Archive member included because of file (symbol)

c:/altera/11.1sp2/nios2eds/bin/gnu/h-i686-mingw32/bin/../lib/gcc/nios2-elf/4.1.2/mno-hw-mul\libgcc.a(lib2-divmod.o)
                              obj/default/ledos/fatfs/ff.o (__udivsi3)
c:/altera/11.1sp2/nios2eds/bin/gnu/h-i686-mingw32/bin/../lib/gcc/nios2-elf/4.1.2/mno-hw-mul\libgcc.a(lib2-mul.o)
                              obj/default/ledos/fatfs/ff.o (__mulsi3)
c:/altera/11.1sp2/nios2eds/bin/gnu/h-i686-mingw32/bin/../lib/gcc/nios2-elf/4.1.2/../../../../nios2-elf/lib/mno-hw-mul\libc.a(lib_a-printf.o)
                              obj/default/ledos/shell/bash.o (printf)
c:/altera/11.1sp2/nios2eds/bin/gnu/h-i686-mingw32/bin/../lib/gcc/nios2-elf/4.1.2/../../../../nios2-elf/lib/mno-hw-mul\libc.a(lib_a-strcasecmp.o)
                              obj/default/ledos/shell/bash.o (strcasecmp)
c:/altera/11.1sp2/nios2eds/bin/gnu/h-i686-mingw32/bin/../lib/gcc/nios2-elf/4.1.2/../../../../nios2-elf/lib/mno-hw-mul\libc.a(lib_a-strpbrk.o)
                              obj/default/ledos/shell/shell.o (strpbrk)
c:/altera/11.1sp2/nios2eds/bin/gnu/h-i686-mingw32/bin/../lib/gcc/nios2-elf/4.1.2/../../../../nios2-elf/lib/mno-hw-mul\libc.a(lib_a-strspn.o)
                              obj/default/ledos/shell/shell.o (strspn)
c:/altera/11.1sp2/nios2eds/bin/gnu/h-i686-mingw32/bin/../lib/gcc/nios2-elf/4.1.2/../../../../nios2-elf/lib/mno-hw-mul\libc.a(lib_a-vfprintf.o)
                              c:/altera/11.1sp2/nios2eds/bin/gnu/h-i686-mingw32/bin/../lib/gcc/nios2-elf/4.1.2/../../../../nios2-elf/lib/mno-hw-mul\libc.a(lib_a-printf.o) (___vfprintf_internal_r)
c:/altera/11.1sp2/nios2eds/bin/gnu/h-i686-mingw32/bin/../lib/gcc/nios2-elf/4.1.2/../../../../nios2-elf/lib/mno-hw-mul\libc.a(lib_a-wsetup.o)
                              c:/altera/11.1sp2/nios2eds/bin/gnu/h-i686-mingw32/bin/../lib/gcc/nios2-elf/4.1.2/../../../../nios2-elf/lib/mno-hw-mul\libc.a(lib_a-vfprintf.o) (__swsetup_r)
c:/altera/11.1sp2/nios2eds/bin/gnu/h-i686-mingw32/bin/../lib/gcc/nios2-elf/4.1.2/../../../../nios2-elf/lib/mno-hw-mul\libc.a(lib_a-ctype_.o)
                              c:/altera/11.1sp2/nios2eds/bin/gnu/h-i686-mingw32/bin/../lib/gcc/nios2-elf/4.1.2/../../../../nios2-elf/lib/mno-hw-mul\libc.a(lib_a-strcasecmp.o) (__ctype_ptr)
c:/altera/11.1sp2/nios2eds/bin/gnu/h-i686-mingw32/bin/../lib/gcc/nios2-elf/4.1.2/../../../../nios2-elf/lib/mno-hw-mul\libc.a(lib_a-dtoa.o)
                              c:/altera/11.1sp2/nios2eds/bin/gnu/h-i686-mingw32/bin/../lib/gcc/nios2-elf/4.1.2/../../../../nios2-elf/lib/mno-hw-mul\libc.a(lib_a-vfprintf.o) (_dtoa_r)
c:/altera/11.1sp2/nios2eds/bin/gnu/h-i686-mingw32/bin/../lib/gcc/nios2-elf/4.1.2/../../../../nios2-elf/lib/mno-hw-mul\libc.a(lib_a-fflush.o)
                              c:/altera/11.1sp2/nios2eds/bin/gnu/h-i686-mingw32/bin/../lib/gcc/nios2-elf/4.1.2/../../../../nios2-elf/lib/mno-hw-mul\libc.a(lib_a-vfprintf.o) (_fflush_r)
c:/altera/11.1sp2/nios2eds/bin/gnu/h-i686-mingw32/bin/../lib/gcc/nios2-elf/4.1.2/../../../../nios2-elf/lib/mno-hw-mul\libc.a(lib_a-findfp.o)
                              c:/altera/11.1sp2/nios2eds/bin/gnu/h-i686-mingw32/bin/../lib/gcc/nios2-elf/4.1.2/../../../../nios2-elf/lib/mno-hw-mul\libc.a(lib_a-vfprintf.o) (__sinit)
c:/altera/11.1sp2/nios2eds/bin/gnu/h-i686-mingw32/bin/../lib/gcc/nios2-elf/4.1.2/../../../../nios2-elf/lib/mno-hw-mul\libc.a(lib_a-freer.o)
                              c:/altera/11.1sp2/nios2eds/bin/gnu/h-i686-mingw32/bin/../lib/gcc/nios2-elf/4.1.2/../../../../nios2-elf/lib/mno-hw-mul\libc.a(lib_a-wsetup.o) (_free_r)
c:/altera/11.1sp2/nios2eds/bin/gnu/h-i686-mingw32/bin/../lib/gcc/nios2-elf/4.1.2/../../../../nios2-elf/lib/mno-hw-mul\libc.a(lib_a-fvwrite.o)
                              c:/altera/11.1sp2/nios2eds/bin/gnu/h-i686-mingw32/bin/../lib/gcc/nios2-elf/4.1.2/../../../../nios2-elf/lib/mno-hw-mul\libc.a(lib_a-vfprintf.o) (__sfvwrite_r)
c:/altera/11.1sp2/nios2eds/bin/gnu/h-i686-mingw32/bin/../lib/gcc/nios2-elf/4.1.2/../../../../nios2-elf/lib/mno-hw-mul\libc.a(lib_a-fwalk.o)
                              c:/altera/11.1sp2/nios2eds/bin/gnu/h-i686-mingw32/bin/../lib/gcc/nios2-elf/4.1.2/../../../../nios2-elf/lib/mno-hw-mul\libc.a(lib_a-fflush.o) (_fwalk_reent)
c:/altera/11.1sp2/nios2eds/bin/gnu/h-i686-mingw32/bin/../lib/gcc/nios2-elf/4.1.2/../../../../nios2-elf/lib/mno-hw-mul\libc.a(lib_a-impure.o)
                              c:/altera/11.1sp2/nios2eds/bin/gnu/h-i686-mingw32/bin/../lib/gcc/nios2-elf/4.1.2/../../../../nios2-elf/lib/mno-hw-mul\libc.a(lib_a-printf.o) (_impure_ptr)
c:/altera/11.1sp2/nios2eds/bin/gnu/h-i686-mingw32/bin/../lib/gcc/nios2-elf/4.1.2/../../../../nios2-elf/lib/mno-hw-mul\libc.a(lib_a-locale.o)
                              c:/altera/11.1sp2/nios2eds/bin/gnu/h-i686-mingw32/bin/../lib/gcc/nios2-elf/4.1.2/../../../../nios2-elf/lib/mno-hw-mul\libc.a(lib_a-vfprintf.o) (_localeconv_r)
c:/altera/11.1sp2/nios2eds/bin/gnu/h-i686-mingw32/bin/../lib/gcc/nios2-elf/4.1.2/../../../../nios2-elf/lib/mno-hw-mul\libc.a(lib_a-makebuf.o)
                              c:/altera/11.1sp2/nios2eds/bin/gnu/h-i686-mingw32/bin/../lib/gcc/nios2-elf/4.1.2/../../../../nios2-elf/lib/mno-hw-mul\libc.a(lib_a-wsetup.o) (__smakebuf_r)
c:/altera/11.1sp2/nios2eds/bin/gnu/h-i686-mingw32/bin/../lib/gcc/nios2-elf/4.1.2/../../../../nios2-elf/lib/mno-hw-mul\libc.a(lib_a-mallocr.o)
                              c:/altera/11.1sp2/nios2eds/bin/gnu/h-i686-mingw32/bin/../lib/gcc/nios2-elf/4.1.2/../../../../nios2-elf/lib/mno-hw-mul\libc.a(lib_a-findfp.o) (_malloc_r)
c:/altera/11.1sp2/nios2eds/bin/gnu/h-i686-mingw32/bin/../lib/gcc/nios2-elf/4.1.2/../../../../nios2-elf/lib/mno-hw-mul\libc.a(lib_a-memchr.o)
                              c:/altera/11.1sp2/nios2eds/bin/gnu/h-i686-mingw32/bin/../lib/gcc/nios2-elf/4.1.2/../../../../nios2-elf/lib/mno-hw-mul\libc.a(lib_a-vfprintf.o) (memchr)
c:/altera/11.1sp2/nios2eds/bin/gnu/h-i686-mingw32/bin/../lib/gcc/nios2-elf/4.1.2/../../../../nios2-elf/lib/mno-hw-mul\libc.a(lib_a-memcpy.o)
                              c:/altera/11.1sp2/nios2eds/bin/gnu/h-i686-mingw32/bin/../lib/gcc/nios2-elf/4.1.2/../../../../nios2-elf/lib/mno-hw-mul\libc.a(lib_a-dtoa.o) (memcpy)
c:/altera/11.1sp2/nios2eds/bin/gnu/h-i686-mingw32/bin/../lib/gcc/nios2-elf/4.1.2/../../../../nios2-elf/lib/mno-hw-mul\libc.a(lib_a-memmove.o)
                              c:/altera/11.1sp2/nios2eds/bin/gnu/h-i686-mingw32/bin/../lib/gcc/nios2-elf/4.1.2/../../../../nios2-elf/lib/mno-hw-mul\libc.a(lib_a-fvwrite.o) (memmove)
c:/altera/11.1sp2/nios2eds/bin/gnu/h-i686-mingw32/bin/../lib/gcc/nios2-elf/4.1.2/../../../../nios2-elf/lib/mno-hw-mul\libc.a(lib_a-memset.o)
                              c:/altera/11.1sp2/nios2eds/bin/gnu/h-i686-mingw32/bin/../lib/gcc/nios2-elf/4.1.2/../../../../nios2-elf/lib/mno-hw-mul\libc.a(lib_a-findfp.o) (memset)
c:/altera/11.1sp2/nios2eds/bin/gnu/h-i686-mingw32/bin/../lib/gcc/nios2-elf/4.1.2/../../../../nios2-elf/lib/mno-hw-mul\libc.a(lib_a-mprec.o)
                              c:/altera/11.1sp2/nios2eds/bin/gnu/h-i686-mingw32/bin/../lib/gcc/nios2-elf/4.1.2/../../../../nios2-elf/lib/mno-hw-mul\libc.a(lib_a-dtoa.o) (_Bfree)
c:/altera/11.1sp2/nios2eds/bin/gnu/h-i686-mingw32/bin/../lib/gcc/nios2-elf/4.1.2/../../../../nios2-elf/lib/mno-hw-mul\libc.a(lib_a-reallocr.o)
                              c:/altera/11.1sp2/nios2eds/bin/gnu/h-i686-mingw32/bin/../lib/gcc/nios2-elf/4.1.2/../../../../nios2-elf/lib/mno-hw-mul\libc.a(lib_a-fvwrite.o) (_realloc_r)
c:/altera/11.1sp2/nios2eds/bin/gnu/h-i686-mingw32/bin/../lib/gcc/nios2-elf/4.1.2/../../../../nios2-elf/lib/mno-hw-mul\libc.a(lib_a-s_isinfd.o)
                              c:/altera/11.1sp2/nios2eds/bin/gnu/h-i686-mingw32/bin/../lib/gcc/nios2-elf/4.1.2/../../../../nios2-elf/lib/mno-hw-mul\libc.a(lib_a-vfprintf.o) (__isinfd)
c:/altera/11.1sp2/nios2eds/bin/gnu/h-i686-mingw32/bin/../lib/gcc/nios2-elf/4.1.2/../../../../nios2-elf/lib/mno-hw-mul\libc.a(lib_a-s_isnand.o)
                              c:/altera/11.1sp2/nios2eds/bin/gnu/h-i686-mingw32/bin/../lib/gcc/nios2-elf/4.1.2/../../../../nios2-elf/lib/mno-hw-mul\libc.a(lib_a-vfprintf.o) (__isnand)
c:/altera/11.1sp2/nios2eds/bin/gnu/h-i686-mingw32/bin/../lib/gcc/nios2-elf/4.1.2/../../../../nios2-elf/lib/mno-hw-mul\libc.a(lib_a-sbrkr.o)
                              c:/altera/11.1sp2/nios2eds/bin/gnu/h-i686-mingw32/bin/../lib/gcc/nios2-elf/4.1.2/../../../../nios2-elf/lib/mno-hw-mul\libc.a(lib_a-freer.o) (_sbrk_r)
c:/altera/11.1sp2/nios2eds/bin/gnu/h-i686-mingw32/bin/../lib/gcc/nios2-elf/4.1.2/../../../../nios2-elf/lib/mno-hw-mul\libc.a(lib_a-stdio.o)
                              c:/altera/11.1sp2/nios2eds/bin/gnu/h-i686-mingw32/bin/../lib/gcc/nios2-elf/4.1.2/../../../../nios2-elf/lib/mno-hw-mul\libc.a(lib_a-findfp.o) (__sclose)
c:/altera/11.1sp2/nios2eds/bin/gnu/h-i686-mingw32/bin/../lib/gcc/nios2-elf/4.1.2/../../../../nios2-elf/lib/mno-hw-mul\libc.a(lib_a-strcmp.o)
                              c:/altera/11.1sp2/nios2eds/bin/gnu/h-i686-mingw32/bin/../lib/gcc/nios2-elf/4.1.2/../../../../nios2-elf/lib/mno-hw-mul\libc.a(lib_a-locale.o) (strcmp)
c:/altera/11.1sp2/nios2eds/bin/gnu/h-i686-mingw32/bin/../lib/gcc/nios2-elf/4.1.2/../../../../nios2-elf/lib/mno-hw-mul\libc.a(lib_a-strlen.o)
                              c:/altera/11.1sp2/nios2eds/bin/gnu/h-i686-mingw32/bin/../lib/gcc/nios2-elf/4.1.2/../../../../nios2-elf/lib/mno-hw-mul\libc.a(lib_a-vfprintf.o) (strlen)
c:/altera/11.1sp2/nios2eds/bin/gnu/h-i686-mingw32/bin/../lib/gcc/nios2-elf/4.1.2/../../../../nios2-elf/lib/mno-hw-mul\libc.a(lib_a-writer.o)
                              c:/altera/11.1sp2/nios2eds/bin/gnu/h-i686-mingw32/bin/../lib/gcc/nios2-elf/4.1.2/../../../../nios2-elf/lib/mno-hw-mul\libc.a(lib_a-stdio.o) (_write_r)
c:/altera/11.1sp2/nios2eds/bin/gnu/h-i686-mingw32/bin/../lib/gcc/nios2-elf/4.1.2/../../../../nios2-elf/lib/mno-hw-mul\libc.a(lib_a-callocr.o)
                              c:/altera/11.1sp2/nios2eds/bin/gnu/h-i686-mingw32/bin/../lib/gcc/nios2-elf/4.1.2/../../../../nios2-elf/lib/mno-hw-mul\libc.a(lib_a-mprec.o) (_calloc_r)
c:/altera/11.1sp2/nios2eds/bin/gnu/h-i686-mingw32/bin/../lib/gcc/nios2-elf/4.1.2/../../../../nios2-elf/lib/mno-hw-mul\libc.a(lib_a-closer.o)
                              c:/altera/11.1sp2/nios2eds/bin/gnu/h-i686-mingw32/bin/../lib/gcc/nios2-elf/4.1.2/../../../../nios2-elf/lib/mno-hw-mul\libc.a(lib_a-stdio.o) (_close_r)
c:/altera/11.1sp2/nios2eds/bin/gnu/h-i686-mingw32/bin/../lib/gcc/nios2-elf/4.1.2/../../../../nios2-elf/lib/mno-hw-mul\libc.a(lib_a-fclose.o)
                              c:/altera/11.1sp2/nios2eds/bin/gnu/h-i686-mingw32/bin/../lib/gcc/nios2-elf/4.1.2/../../../../nios2-elf/lib/mno-hw-mul\libc.a(lib_a-findfp.o) (fclose)
c:/altera/11.1sp2/nios2eds/bin/gnu/h-i686-mingw32/bin/../lib/gcc/nios2-elf/4.1.2/../../../../nios2-elf/lib/mno-hw-mul\libc.a(lib_a-fstatr.o)
                              c:/altera/11.1sp2/nios2eds/bin/gnu/h-i686-mingw32/bin/../lib/gcc/nios2-elf/4.1.2/../../../../nios2-elf/lib/mno-hw-mul\libc.a(lib_a-makebuf.o) (_fstat_r)
c:/altera/11.1sp2/nios2eds/bin/gnu/h-i686-mingw32/bin/../lib/gcc/nios2-elf/4.1.2/../../../../nios2-elf/lib/mno-hw-mul\libc.a(lib_a-int_errno.o)
                              c:/altera/11.1sp2/nios2eds/bin/gnu/h-i686-mingw32/bin/../lib/gcc/nios2-elf/4.1.2/../../../../nios2-elf/lib/mno-hw-mul\libc.a(lib_a-sbrkr.o) (errno)
c:/altera/11.1sp2/nios2eds/bin/gnu/h-i686-mingw32/bin/../lib/gcc/nios2-elf/4.1.2/../../../../nios2-elf/lib/mno-hw-mul\libc.a(lib_a-isattyr.o)
                              c:/altera/11.1sp2/nios2eds/bin/gnu/h-i686-mingw32/bin/../lib/gcc/nios2-elf/4.1.2/../../../../nios2-elf/lib/mno-hw-mul\libc.a(lib_a-makebuf.o) (_isatty_r)
c:/altera/11.1sp2/nios2eds/bin/gnu/h-i686-mingw32/bin/../lib/gcc/nios2-elf/4.1.2/../../../../nios2-elf/lib/mno-hw-mul\libc.a(lib_a-lseekr.o)
                              c:/altera/11.1sp2/nios2eds/bin/gnu/h-i686-mingw32/bin/../lib/gcc/nios2-elf/4.1.2/../../../../nios2-elf/lib/mno-hw-mul\libc.a(lib_a-stdio.o) (_lseek_r)
c:/altera/11.1sp2/nios2eds/bin/gnu/h-i686-mingw32/bin/../lib/gcc/nios2-elf/4.1.2/../../../../nios2-elf/lib/mno-hw-mul\libc.a(lib_a-readr.o)
                              c:/altera/11.1sp2/nios2eds/bin/gnu/h-i686-mingw32/bin/../lib/gcc/nios2-elf/4.1.2/../../../../nios2-elf/lib/mno-hw-mul\libc.a(lib_a-stdio.o) (_read_r)
c:/altera/11.1sp2/nios2eds/bin/gnu/h-i686-mingw32/bin/../lib/gcc/nios2-elf/4.1.2/mno-hw-mul\libgcc.a(_udivdi3.o)
                              c:/altera/11.1sp2/nios2eds/bin/gnu/h-i686-mingw32/bin/../lib/gcc/nios2-elf/4.1.2/../../../../nios2-elf/lib/mno-hw-mul\libc.a(lib_a-vfprintf.o) (__udivdi3)
c:/altera/11.1sp2/nios2eds/bin/gnu/h-i686-mingw32/bin/../lib/gcc/nios2-elf/4.1.2/mno-hw-mul\libgcc.a(_umoddi3.o)
                              c:/altera/11.1sp2/nios2eds/bin/gnu/h-i686-mingw32/bin/../lib/gcc/nios2-elf/4.1.2/../../../../nios2-elf/lib/mno-hw-mul\libc.a(lib_a-vfprintf.o) (__umoddi3)
c:/altera/11.1sp2/nios2eds/bin/gnu/h-i686-mingw32/bin/../lib/gcc/nios2-elf/4.1.2/mno-hw-mul\libgcc.a(_addsub_df.o)
                              c:/altera/11.1sp2/nios2eds/bin/gnu/h-i686-mingw32/bin/../lib/gcc/nios2-elf/4.1.2/../../../../nios2-elf/lib/mno-hw-mul\libc.a(lib_a-dtoa.o) (__subdf3)
c:/altera/11.1sp2/nios2eds/bin/gnu/h-i686-mingw32/bin/../lib/gcc/nios2-elf/4.1.2/mno-hw-mul\libgcc.a(_mul_df.o)
                              c:/altera/11.1sp2/nios2eds/bin/gnu/h-i686-mingw32/bin/../lib/gcc/nios2-elf/4.1.2/../../../../nios2-elf/lib/mno-hw-mul\libc.a(lib_a-dtoa.o) (__muldf3)
c:/altera/11.1sp2/nios2eds/bin/gnu/h-i686-mingw32/bin/../lib/gcc/nios2-elf/4.1.2/mno-hw-mul\libgcc.a(_div_df.o)
                              c:/altera/11.1sp2/nios2eds/bin/gnu/h-i686-mingw32/bin/../lib/gcc/nios2-elf/4.1.2/../../../../nios2-elf/lib/mno-hw-mul\libc.a(lib_a-dtoa.o) (__divdf3)
c:/altera/11.1sp2/nios2eds/bin/gnu/h-i686-mingw32/bin/../lib/gcc/nios2-elf/4.1.2/mno-hw-mul\libgcc.a(_eq_df.o)
                              c:/altera/11.1sp2/nios2eds/bin/gnu/h-i686-mingw32/bin/../lib/gcc/nios2-elf/4.1.2/../../../../nios2-elf/lib/mno-hw-mul\libc.a(lib_a-vfprintf.o) (__eqdf2)
c:/altera/11.1sp2/nios2eds/bin/gnu/h-i686-mingw32/bin/../lib/gcc/nios2-elf/4.1.2/mno-hw-mul\libgcc.a(_ne_df.o)
                              c:/altera/11.1sp2/nios2eds/bin/gnu/h-i686-mingw32/bin/../lib/gcc/nios2-elf/4.1.2/../../../../nios2-elf/lib/mno-hw-mul\libc.a(lib_a-vfprintf.o) (__nedf2)
c:/altera/11.1sp2/nios2eds/bin/gnu/h-i686-mingw32/bin/../lib/gcc/nios2-elf/4.1.2/mno-hw-mul\libgcc.a(_gt_df.o)
                              c:/altera/11.1sp2/nios2eds/bin/gnu/h-i686-mingw32/bin/../lib/gcc/nios2-elf/4.1.2/../../../../nios2-elf/lib/mno-hw-mul\libc.a(lib_a-dtoa.o) (__gtdf2)
c:/altera/11.1sp2/nios2eds/bin/gnu/h-i686-mingw32/bin/../lib/gcc/nios2-elf/4.1.2/mno-hw-mul\libgcc.a(_ge_df.o)
                              c:/altera/11.1sp2/nios2eds/bin/gnu/h-i686-mingw32/bin/../lib/gcc/nios2-elf/4.1.2/../../../../nios2-elf/lib/mno-hw-mul\libc.a(lib_a-dtoa.o) (__gedf2)
c:/altera/11.1sp2/nios2eds/bin/gnu/h-i686-mingw32/bin/../lib/gcc/nios2-elf/4.1.2/mno-hw-mul\libgcc.a(_lt_df.o)
                              c:/altera/11.1sp2/nios2eds/bin/gnu/h-i686-mingw32/bin/../lib/gcc/nios2-elf/4.1.2/../../../../nios2-elf/lib/mno-hw-mul\libc.a(lib_a-vfprintf.o) (__ltdf2)
c:/altera/11.1sp2/nios2eds/bin/gnu/h-i686-mingw32/bin/../lib/gcc/nios2-elf/4.1.2/mno-hw-mul\libgcc.a(_si_to_df.o)
                              c:/altera/11.1sp2/nios2eds/bin/gnu/h-i686-mingw32/bin/../lib/gcc/nios2-elf/4.1.2/../../../../nios2-elf/lib/mno-hw-mul\libc.a(lib_a-dtoa.o) (__floatsidf)
c:/altera/11.1sp2/nios2eds/bin/gnu/h-i686-mingw32/bin/../lib/gcc/nios2-elf/4.1.2/mno-hw-mul\libgcc.a(_df_to_si.o)
                              c:/altera/11.1sp2/nios2eds/bin/gnu/h-i686-mingw32/bin/../lib/gcc/nios2-elf/4.1.2/../../../../nios2-elf/lib/mno-hw-mul\libc.a(lib_a-dtoa.o) (__fixdfsi)
c:/altera/11.1sp2/nios2eds/bin/gnu/h-i686-mingw32/bin/../lib/gcc/nios2-elf/4.1.2/mno-hw-mul\libgcc.a(_thenan_df.o)
                              c:/altera/11.1sp2/nios2eds/bin/gnu/h-i686-mingw32/bin/../lib/gcc/nios2-elf/4.1.2/mno-hw-mul\libgcc.a(_addsub_df.o) (__thenan_df)
c:/altera/11.1sp2/nios2eds/bin/gnu/h-i686-mingw32/bin/../lib/gcc/nios2-elf/4.1.2/mno-hw-mul\libgcc.a(_usi_to_df.o)
                              c:/altera/11.1sp2/nios2eds/bin/gnu/h-i686-mingw32/bin/../lib/gcc/nios2-elf/4.1.2/../../../../nios2-elf/lib/mno-hw-mul\libc.a(lib_a-dtoa.o) (__floatunsidf)
c:/altera/11.1sp2/nios2eds/bin/gnu/h-i686-mingw32/bin/../lib/gcc/nios2-elf/4.1.2/mno-hw-mul\libgcc.a(_muldi3.o)
                              c:/altera/11.1sp2/nios2eds/bin/gnu/h-i686-mingw32/bin/../lib/gcc/nios2-elf/4.1.2/mno-hw-mul\libgcc.a(_mul_df.o) (__muldi3)
c:/altera/11.1sp2/nios2eds/bin/gnu/h-i686-mingw32/bin/../lib/gcc/nios2-elf/4.1.2/mno-hw-mul\libgcc.a(_clz.o)
                              c:/altera/11.1sp2/nios2eds/bin/gnu/h-i686-mingw32/bin/../lib/gcc/nios2-elf/4.1.2/mno-hw-mul\libgcc.a(_udivdi3.o) (__clz_tab)
c:/altera/11.1sp2/nios2eds/bin/gnu/h-i686-mingw32/bin/../lib/gcc/nios2-elf/4.1.2/mno-hw-mul\libgcc.a(_clzsi2.o)
                              c:/altera/11.1sp2/nios2eds/bin/gnu/h-i686-mingw32/bin/../lib/gcc/nios2-elf/4.1.2/mno-hw-mul\libgcc.a(_si_to_df.o) (__clzsi2)
c:/altera/11.1sp2/nios2eds/bin/gnu/h-i686-mingw32/bin/../lib/gcc/nios2-elf/4.1.2/mno-hw-mul\libgcc.a(_pack_df.o)
                              c:/altera/11.1sp2/nios2eds/bin/gnu/h-i686-mingw32/bin/../lib/gcc/nios2-elf/4.1.2/mno-hw-mul\libgcc.a(_addsub_df.o) (__pack_d)
c:/altera/11.1sp2/nios2eds/bin/gnu/h-i686-mingw32/bin/../lib/gcc/nios2-elf/4.1.2/mno-hw-mul\libgcc.a(_unpack_df.o)
                              c:/altera/11.1sp2/nios2eds/bin/gnu/h-i686-mingw32/bin/../lib/gcc/nios2-elf/4.1.2/mno-hw-mul\libgcc.a(_addsub_df.o) (__unpack_d)
c:/altera/11.1sp2/nios2eds/bin/gnu/h-i686-mingw32/bin/../lib/gcc/nios2-elf/4.1.2/mno-hw-mul\libgcc.a(_fpcmp_parts_df.o)
                              c:/altera/11.1sp2/nios2eds/bin/gnu/h-i686-mingw32/bin/../lib/gcc/nios2-elf/4.1.2/mno-hw-mul\libgcc.a(_eq_df.o) (__fpcmp_parts_d)
D:/WorK/Synesthesia/wxp/synesthesia/sw_wxp/de1_limbus_bsp/\libchibios_v240_bsp.a(chdynamic.o)
                              obj/default/ledos/shell/shell.o (chThdCreateFromHeap)
D:/WorK/Synesthesia/wxp/synesthesia/sw_wxp/de1_limbus_bsp/\libchibios_v240_bsp.a(chevents.o)
                              obj/default/ledos/ledos.o (chEvtRegisterMask)
D:/WorK/Synesthesia/wxp/synesthesia/sw_wxp/de1_limbus_bsp/\libchibios_v240_bsp.a(chheap.o)
                              D:/WorK/Synesthesia/wxp/synesthesia/sw_wxp/de1_limbus_bsp/\libchibios_v240_bsp.a(chdynamic.o) (chHeapAlloc)
D:/WorK/Synesthesia/wxp/synesthesia/sw_wxp/de1_limbus_bsp/\libchibios_v240_bsp.a(chmemcore.o)
                              D:/WorK/Synesthesia/wxp/synesthesia/sw_wxp/de1_limbus_bsp/\libchibios_v240_bsp.a(chheap.o) (chCoreAlloc)
D:/WorK/Synesthesia/wxp/synesthesia/sw_wxp/de1_limbus_bsp/\libchibios_v240_bsp.a(chmempools.o)
                              D:/WorK/Synesthesia/wxp/synesthesia/sw_wxp/de1_limbus_bsp/\libchibios_v240_bsp.a(chdynamic.o) (chPoolAlloc)
D:/WorK/Synesthesia/wxp/synesthesia/sw_wxp/de1_limbus_bsp/\libchibios_v240_bsp.a(chmsg.o)
                              obj/default/ledos/shell/bash.o (chMsgSend)
D:/WorK/Synesthesia/wxp/synesthesia/sw_wxp/de1_limbus_bsp/\libchibios_v240_bsp.a(chmtx.o)
                              D:/WorK/Synesthesia/wxp/synesthesia/sw_wxp/de1_limbus_bsp/\libchibios_v240_bsp.a(chheap.o) (chMtxInit)
D:/WorK/Synesthesia/wxp/synesthesia/sw_wxp/de1_limbus_bsp/\libchibios_v240_bsp.a(chschd.o)
                              obj/default/ledos/shell/bash.o (rlist)
D:/WorK/Synesthesia/wxp/synesthesia/sw_wxp/de1_limbus_bsp/\libchibios_v240_bsp.a(chthreads.o)
                              D:/WorK/Synesthesia/wxp/synesthesia/sw_wxp/de1_limbus_bsp/\libchibios_v240_bsp.a(chdynamic.o) (chThdCreateI)
D:/WorK/Synesthesia/wxp/synesthesia/sw_wxp/de1_limbus_bsp/\libchibios_v240_bsp.a(chvt.o)
                              obj/default/ledos/shell/shell.o (vtlist)
D:/WorK/Synesthesia/wxp/synesthesia/sw_wxp/de1_limbus_bsp/\libchibios_v240_bsp.a(chcoreasm.o)
                              D:/WorK/Synesthesia/wxp/synesthesia/sw_wxp/de1_limbus_bsp/\libchibios_v240_bsp.a(chthreads.o) (_port_thread_start)
D:/WorK/Synesthesia/wxp/synesthesia/sw_wxp/de1_limbus_bsp/\libchibios_v240_bsp.a(alt_close.o)
                              c:/altera/11.1sp2/nios2eds/bin/gnu/h-i686-mingw32/bin/../lib/gcc/nios2-elf/4.1.2/../../../../nios2-elf/lib/mno-hw-mul\libc.a(lib_a-closer.o) (close)
D:/WorK/Synesthesia/wxp/synesthesia/sw_wxp/de1_limbus_bsp/\libchibios_v240_bsp.a(alt_dev.o)
                              D:/WorK/Synesthesia/wxp/synesthesia/sw_wxp/de1_limbus_bsp/\libchibios_v240_bsp.a(alt_close.o) (alt_fd_list)
D:/WorK/Synesthesia/wxp/synesthesia/sw_wxp/de1_limbus_bsp/\libchibios_v240_bsp.a(alt_errno.o)
                              D:/WorK/Synesthesia/wxp/synesthesia/sw_wxp/de1_limbus_bsp/\libchibios_v240_bsp.a(alt_close.o) (alt_errno)
D:/WorK/Synesthesia/wxp/synesthesia/sw_wxp/de1_limbus_bsp/\libchibios_v240_bsp.a(alt_fstat.o)
                              c:/altera/11.1sp2/nios2eds/bin/gnu/h-i686-mingw32/bin/../lib/gcc/nios2-elf/4.1.2/../../../../nios2-elf/lib/mno-hw-mul\libc.a(lib_a-fstatr.o) (fstat)
D:/WorK/Synesthesia/wxp/synesthesia/sw_wxp/de1_limbus_bsp/\libchibios_v240_bsp.a(alt_getchar.o)
                              obj/default/ledos/shell/bash.o (alt_getchar)
D:/WorK/Synesthesia/wxp/synesthesia/sw_wxp/de1_limbus_bsp/\libchibios_v240_bsp.a(alt_isatty.o)
                              c:/altera/11.1sp2/nios2eds/bin/gnu/h-i686-mingw32/bin/../lib/gcc/nios2-elf/4.1.2/../../../../nios2-elf/lib/mno-hw-mul\libc.a(lib_a-isattyr.o) (isatty)
D:/WorK/Synesthesia/wxp/synesthesia/sw_wxp/de1_limbus_bsp/\libchibios_v240_bsp.a(alt_load.o)
                              D:/WorK/Synesthesia/wxp/synesthesia/sw_wxp/de1_limbus_bsp//obj/HAL/src/crt0.o (alt_load)
D:/WorK/Synesthesia/wxp/synesthesia/sw_wxp/de1_limbus_bsp/\libchibios_v240_bsp.a(alt_lseek.o)
                              c:/altera/11.1sp2/nios2eds/bin/gnu/h-i686-mingw32/bin/../lib/gcc/nios2-elf/4.1.2/../../../../nios2-elf/lib/mno-hw-mul\libc.a(lib_a-lseekr.o) (lseek)
D:/WorK/Synesthesia/wxp/synesthesia/sw_wxp/de1_limbus_bsp/\libchibios_v240_bsp.a(alt_main.o)
                              D:/WorK/Synesthesia/wxp/synesthesia/sw_wxp/de1_limbus_bsp//obj/HAL/src/crt0.o (alt_main)
D:/WorK/Synesthesia/wxp/synesthesia/sw_wxp/de1_limbus_bsp/\libchibios_v240_bsp.a(alt_malloc_lock.o)
                              c:/altera/11.1sp2/nios2eds/bin/gnu/h-i686-mingw32/bin/../lib/gcc/nios2-elf/4.1.2/../../../../nios2-elf/lib/mno-hw-mul\libc.a(lib_a-freer.o) (__malloc_lock)
D:/WorK/Synesthesia/wxp/synesthesia/sw_wxp/de1_limbus_bsp/\libchibios_v240_bsp.a(alt_printf.o)
                              obj/default/ledos/codec/codec.o (alt_printf)
D:/WorK/Synesthesia/wxp/synesthesia/sw_wxp/de1_limbus_bsp/\libchibios_v240_bsp.a(alt_putchar.o)
                              obj/default/ledos/shell/bash.o (alt_putchar)
D:/WorK/Synesthesia/wxp/synesthesia/sw_wxp/de1_limbus_bsp/\libchibios_v240_bsp.a(alt_read.o)
                              c:/altera/11.1sp2/nios2eds/bin/gnu/h-i686-mingw32/bin/../lib/gcc/nios2-elf/4.1.2/../../../../nios2-elf/lib/mno-hw-mul\libc.a(lib_a-readr.o) (read)
D:/WorK/Synesthesia/wxp/synesthesia/sw_wxp/de1_limbus_bsp/\libchibios_v240_bsp.a(alt_release_fd.o)
                              D:/WorK/Synesthesia/wxp/synesthesia/sw_wxp/de1_limbus_bsp/\libchibios_v240_bsp.a(alt_close.o) (alt_release_fd)
D:/WorK/Synesthesia/wxp/synesthesia/sw_wxp/de1_limbus_bsp/\libchibios_v240_bsp.a(alt_sbrk.o)
                              c:/altera/11.1sp2/nios2eds/bin/gnu/h-i686-mingw32/bin/../lib/gcc/nios2-elf/4.1.2/../../../../nios2-elf/lib/mno-hw-mul\libc.a(lib_a-sbrkr.o) (sbrk)
D:/WorK/Synesthesia/wxp/synesthesia/sw_wxp/de1_limbus_bsp/\libchibios_v240_bsp.a(alt_write.o)
                              c:/altera/11.1sp2/nios2eds/bin/gnu/h-i686-mingw32/bin/../lib/gcc/nios2-elf/4.1.2/../../../../nios2-elf/lib/mno-hw-mul\libc.a(lib_a-writer.o) (write)
D:/WorK/Synesthesia/wxp/synesthesia/sw_wxp/de1_limbus_bsp/\libchibios_v240_bsp.a(alt_sys_init.o)
                              D:/WorK/Synesthesia/wxp/synesthesia/sw_wxp/de1_limbus_bsp/\libchibios_v240_bsp.a(alt_main.o) (alt_irq_init)
D:/WorK/Synesthesia/wxp/synesthesia/sw_wxp/de1_limbus_bsp/\libchibios_v240_bsp.a(altera_avalon_jtag_uart_fd.o)
                              D:/WorK/Synesthesia/wxp/synesthesia/sw_wxp/de1_limbus_bsp/\libchibios_v240_bsp.a(alt_sys_init.o) (altera_avalon_jtag_uart_read_fd)
D:/WorK/Synesthesia/wxp/synesthesia/sw_wxp/de1_limbus_bsp/\libchibios_v240_bsp.a(altera_avalon_jtag_uart_init.o)
                              D:/WorK/Synesthesia/wxp/synesthesia/sw_wxp/de1_limbus_bsp/\libchibios_v240_bsp.a(alt_sys_init.o) (altera_avalon_jtag_uart_init)
D:/WorK/Synesthesia/wxp/synesthesia/sw_wxp/de1_limbus_bsp/\libchibios_v240_bsp.a(altera_avalon_jtag_uart_ioctl.o)
                              D:/WorK/Synesthesia/wxp/synesthesia/sw_wxp/de1_limbus_bsp/\libchibios_v240_bsp.a(altera_avalon_jtag_uart_fd.o) (altera_avalon_jtag_uart_ioctl)
D:/WorK/Synesthesia/wxp/synesthesia/sw_wxp/de1_limbus_bsp/\libchibios_v240_bsp.a(altera_avalon_jtag_uart_read.o)
                              D:/WorK/Synesthesia/wxp/synesthesia/sw_wxp/de1_limbus_bsp/\libchibios_v240_bsp.a(altera_avalon_jtag_uart_fd.o) (altera_avalon_jtag_uart_read)
D:/WorK/Synesthesia/wxp/synesthesia/sw_wxp/de1_limbus_bsp/\libchibios_v240_bsp.a(altera_avalon_jtag_uart_write.o)
                              D:/WorK/Synesthesia/wxp/synesthesia/sw_wxp/de1_limbus_bsp/\libchibios_v240_bsp.a(altera_avalon_jtag_uart_fd.o) (altera_avalon_jtag_uart_write)
D:/WorK/Synesthesia/wxp/synesthesia/sw_wxp/de1_limbus_bsp/\libchibios_v240_bsp.a(altera_avalon_performance_counter.o)
                              obj/default/ledos/shell/bash.o (alt_get_cpu_freq)
D:/WorK/Synesthesia/wxp/synesthesia/sw_wxp/de1_limbus_bsp/\libchibios_v240_bsp.a(altera_avalon_timer_sc.o)
                              D:/WorK/Synesthesia/wxp/synesthesia/sw_wxp/de1_limbus_bsp/\libchibios_v240_bsp.a(alt_sys_init.o) (alt_avalon_timer_sc_init)
D:/WorK/Synesthesia/wxp/synesthesia/sw_wxp/de1_limbus_bsp/\libchibios_v240_bsp.a(altera_avalon_uart_fd.o)
                              D:/WorK/Synesthesia/wxp/synesthesia/sw_wxp/de1_limbus_bsp/\libchibios_v240_bsp.a(alt_sys_init.o) (altera_avalon_uart_read_fd)
D:/WorK/Synesthesia/wxp/synesthesia/sw_wxp/de1_limbus_bsp/\libchibios_v240_bsp.a(altera_avalon_uart_init.o)
                              D:/WorK/Synesthesia/wxp/synesthesia/sw_wxp/de1_limbus_bsp/\libchibios_v240_bsp.a(alt_sys_init.o) (altera_avalon_uart_init)
D:/WorK/Synesthesia/wxp/synesthesia/sw_wxp/de1_limbus_bsp/\libchibios_v240_bsp.a(altera_avalon_uart_read.o)
                              D:/WorK/Synesthesia/wxp/synesthesia/sw_wxp/de1_limbus_bsp/\libchibios_v240_bsp.a(altera_avalon_uart_fd.o) (altera_avalon_uart_read)
D:/WorK/Synesthesia/wxp/synesthesia/sw_wxp/de1_limbus_bsp/\libchibios_v240_bsp.a(altera_avalon_uart_write.o)
                              D:/WorK/Synesthesia/wxp/synesthesia/sw_wxp/de1_limbus_bsp/\libchibios_v240_bsp.a(altera_avalon_uart_fd.o) (altera_avalon_uart_write)
D:/WorK/Synesthesia/wxp/synesthesia/sw_wxp/de1_limbus_bsp/\libchibios_v240_bsp.a(perf_print_formatted_report.o)
                              obj/default/ledos/shell/bash.o (perf_print_formatted_report)
D:/WorK/Synesthesia/wxp/synesthesia/sw_wxp/de1_limbus_bsp/\libchibios_v240_bsp.a(chsys.o)
                              D:/WorK/Synesthesia/wxp/synesthesia/sw_wxp/de1_limbus_bsp/\libchibios_v240_bsp.a(alt_main.o) (chSysInit)
D:/WorK/Synesthesia/wxp/synesthesia/sw_wxp/de1_limbus_bsp/\libchibios_v240_bsp.a(alt_alarm_start.o)
                              D:/WorK/Synesthesia/wxp/synesthesia/sw_wxp/de1_limbus_bsp/\libchibios_v240_bsp.a(altera_avalon_jtag_uart_init.o) (alt_alarm_start)
D:/WorK/Synesthesia/wxp/synesthesia/sw_wxp/de1_limbus_bsp/\libchibios_v240_bsp.a(alt_dcache_flush_all.o)
                              D:/WorK/Synesthesia/wxp/synesthesia/sw_wxp/de1_limbus_bsp/\libchibios_v240_bsp.a(alt_load.o) (alt_dcache_flush_all)
D:/WorK/Synesthesia/wxp/synesthesia/sw_wxp/de1_limbus_bsp/\libchibios_v240_bsp.a(alt_dev_llist_insert.o)
                              D:/WorK/Synesthesia/wxp/synesthesia/sw_wxp/de1_limbus_bsp/\libchibios_v240_bsp.a(alt_sys_init.o) (alt_dev_llist_insert)
D:/WorK/Synesthesia/wxp/synesthesia/sw_wxp/de1_limbus_bsp/\libchibios_v240_bsp.a(alt_do_ctors.o)
                              D:/WorK/Synesthesia/wxp/synesthesia/sw_wxp/de1_limbus_bsp/\libchibios_v240_bsp.a(alt_main.o) (_do_ctors)
D:/WorK/Synesthesia/wxp/synesthesia/sw_wxp/de1_limbus_bsp/\libchibios_v240_bsp.a(alt_do_dtors.o)
                              D:/WorK/Synesthesia/wxp/synesthesia/sw_wxp/de1_limbus_bsp/\libchibios_v240_bsp.a(alt_main.o) (_do_dtors)
D:/WorK/Synesthesia/wxp/synesthesia/sw_wxp/de1_limbus_bsp/\libchibios_v240_bsp.a(alt_icache_flush_all.o)
                              D:/WorK/Synesthesia/wxp/synesthesia/sw_wxp/de1_limbus_bsp/\libchibios_v240_bsp.a(alt_load.o) (alt_icache_flush_all)
D:/WorK/Synesthesia/wxp/synesthesia/sw_wxp/de1_limbus_bsp/\libchibios_v240_bsp.a(alt_iic.o)
                              D:/WorK/Synesthesia/wxp/synesthesia/sw_wxp/de1_limbus_bsp/\libchibios_v240_bsp.a(altera_avalon_jtag_uart_init.o) (alt_ic_isr_register)
D:/WorK/Synesthesia/wxp/synesthesia/sw_wxp/de1_limbus_bsp/\libchibios_v240_bsp.a(alt_iic_isr_register.o)
                              D:/WorK/Synesthesia/wxp/synesthesia/sw_wxp/de1_limbus_bsp/\libchibios_v240_bsp.a(alt_iic.o) (alt_iic_isr_register)
D:/WorK/Synesthesia/wxp/synesthesia/sw_wxp/de1_limbus_bsp/\libchibios_v240_bsp.a(alt_io_redirect.o)
                              D:/WorK/Synesthesia/wxp/synesthesia/sw_wxp/de1_limbus_bsp/\libchibios_v240_bsp.a(alt_main.o) (alt_io_redirect)
D:/WorK/Synesthesia/wxp/synesthesia/sw_wxp/de1_limbus_bsp/\libchibios_v240_bsp.a(alt_irq_entry.o)
                              D:/WorK/Synesthesia/wxp/synesthesia/sw_wxp/de1_limbus_bsp/\libchibios_v240_bsp.a(alt_iic_isr_register.o) (alt_irq_entry)
D:/WorK/Synesthesia/wxp/synesthesia/sw_wxp/de1_limbus_bsp/\libchibios_v240_bsp.a(alt_irq_handler.o)
                              D:/WorK/Synesthesia/wxp/synesthesia/sw_wxp/de1_limbus_bsp/\libchibios_v240_bsp.a(alt_iic_isr_register.o) (alt_irq_handler)
D:/WorK/Synesthesia/wxp/synesthesia/sw_wxp/de1_limbus_bsp/\libchibios_v240_bsp.a(alt_irq_vars.o)
                              D:/WorK/Synesthesia/wxp/synesthesia/sw_wxp/de1_limbus_bsp/\libchibios_v240_bsp.a(alt_iic.o) (alt_irq_active)
D:/WorK/Synesthesia/wxp/synesthesia/sw_wxp/de1_limbus_bsp/\libchibios_v240_bsp.a(alt_open.o)
                              D:/WorK/Synesthesia/wxp/synesthesia/sw_wxp/de1_limbus_bsp/\libchibios_v240_bsp.a(alt_io_redirect.o) (open)
D:/WorK/Synesthesia/wxp/synesthesia/sw_wxp/de1_limbus_bsp/\libchibios_v240_bsp.a(alt_tick.o)
                              D:/WorK/Synesthesia/wxp/synesthesia/sw_wxp/de1_limbus_bsp/\libchibios_v240_bsp.a(altera_avalon_jtag_uart_init.o) (_alt_tick_rate)
D:/WorK/Synesthesia/wxp/synesthesia/sw_wxp/de1_limbus_bsp/\libchibios_v240_bsp.a(altera_nios2_qsys_irq.o)
                              D:/WorK/Synesthesia/wxp/synesthesia/sw_wxp/de1_limbus_bsp/\libchibios_v240_bsp.a(alt_sys_init.o) (altera_nios2_qsys_irq_init)
D:/WorK/Synesthesia/wxp/synesthesia/sw_wxp/de1_limbus_bsp/\libchibios_v240_bsp.a(chcore.o)
                              D:/WorK/Synesthesia/wxp/synesthesia/sw_wxp/de1_limbus_bsp/\libchibios_v240_bsp.a(alt_tick.o) (port_time_tick)
D:/WorK/Synesthesia/wxp/synesthesia/sw_wxp/de1_limbus_bsp/\libchibios_v240_bsp.a(alt_exception_entry.o)
                              D:/WorK/Synesthesia/wxp/synesthesia/sw_wxp/de1_limbus_bsp/\libchibios_v240_bsp.a(alt_irq_entry.o) (alt_exception)
D:/WorK/Synesthesia/wxp/synesthesia/sw_wxp/de1_limbus_bsp/\libchibios_v240_bsp.a(alt_find_dev.o)
                              D:/WorK/Synesthesia/wxp/synesthesia/sw_wxp/de1_limbus_bsp/\libchibios_v240_bsp.a(alt_open.o) (alt_find_dev)
D:/WorK/Synesthesia/wxp/synesthesia/sw_wxp/de1_limbus_bsp/\libchibios_v240_bsp.a(alt_find_file.o)
                              D:/WorK/Synesthesia/wxp/synesthesia/sw_wxp/de1_limbus_bsp/\libchibios_v240_bsp.a(alt_open.o) (alt_find_file)
D:/WorK/Synesthesia/wxp/synesthesia/sw_wxp/de1_limbus_bsp/\libchibios_v240_bsp.a(alt_get_fd.o)
                              D:/WorK/Synesthesia/wxp/synesthesia/sw_wxp/de1_limbus_bsp/\libchibios_v240_bsp.a(alt_open.o) (alt_get_fd)
c:/altera/11.1sp2/nios2eds/bin/gnu/h-i686-mingw32/bin/../lib/gcc/nios2-elf/4.1.2/../../../../nios2-elf/lib/mno-hw-mul\libc.a(lib_a-atexit.o)
                              D:/WorK/Synesthesia/wxp/synesthesia/sw_wxp/de1_limbus_bsp/\libchibios_v240_bsp.a(alt_main.o) (atexit)
c:/altera/11.1sp2/nios2eds/bin/gnu/h-i686-mingw32/bin/../lib/gcc/nios2-elf/4.1.2/../../../../nios2-elf/lib/mno-hw-mul\libc.a(lib_a-exit.o)
                              D:/WorK/Synesthesia/wxp/synesthesia/sw_wxp/de1_limbus_bsp/\libchibios_v240_bsp.a(alt_main.o) (exit)
c:/altera/11.1sp2/nios2eds/bin/gnu/h-i686-mingw32/bin/../lib/gcc/nios2-elf/4.1.2/../../../../nios2-elf/lib/mno-hw-mul\libc.a(lib_a-getc.o)
                              D:/WorK/Synesthesia/wxp/synesthesia/sw_wxp/de1_limbus_bsp/\libchibios_v240_bsp.a(alt_getchar.o) (getc)
c:/altera/11.1sp2/nios2eds/bin/gnu/h-i686-mingw32/bin/../lib/gcc/nios2-elf/4.1.2/../../../../nios2-elf/lib/mno-hw-mul\libc.a(lib_a-memcmp.o)
                              D:/WorK/Synesthesia/wxp/synesthesia/sw_wxp/de1_limbus_bsp/\libchibios_v240_bsp.a(alt_find_dev.o) (memcmp)
c:/altera/11.1sp2/nios2eds/bin/gnu/h-i686-mingw32/bin/../lib/gcc/nios2-elf/4.1.2/../../../../nios2-elf/lib/mno-hw-mul\libc.a(lib_a-putc.o)
                              D:/WorK/Synesthesia/wxp/synesthesia/sw_wxp/de1_limbus_bsp/\libchibios_v240_bsp.a(alt_putchar.o) (putc)
c:/altera/11.1sp2/nios2eds/bin/gnu/h-i686-mingw32/bin/../lib/gcc/nios2-elf/4.1.2/../../../../nios2-elf/lib/mno-hw-mul\libc.a(lib_a-rget.o)
                              c:/altera/11.1sp2/nios2eds/bin/gnu/h-i686-mingw32/bin/../lib/gcc/nios2-elf/4.1.2/../../../../nios2-elf/lib/mno-hw-mul\libc.a(lib_a-getc.o) (__srget_r)
c:/altera/11.1sp2/nios2eds/bin/gnu/h-i686-mingw32/bin/../lib/gcc/nios2-elf/4.1.2/../../../../nios2-elf/lib/mno-hw-mul\libc.a(lib_a-wbuf.o)
                              c:/altera/11.1sp2/nios2eds/bin/gnu/h-i686-mingw32/bin/../lib/gcc/nios2-elf/4.1.2/../../../../nios2-elf/lib/mno-hw-mul\libc.a(lib_a-putc.o) (__swbuf_r)
c:/altera/11.1sp2/nios2eds/bin/gnu/h-i686-mingw32/bin/../lib/gcc/nios2-elf/4.1.2/../../../../nios2-elf/lib/mno-hw-mul\libc.a(lib_a-__atexit.o)
                              c:/altera/11.1sp2/nios2eds/bin/gnu/h-i686-mingw32/bin/../lib/gcc/nios2-elf/4.1.2/../../../../nios2-elf/lib/mno-hw-mul\libc.a(lib_a-atexit.o) (__register_exitproc)
c:/altera/11.1sp2/nios2eds/bin/gnu/h-i686-mingw32/bin/../lib/gcc/nios2-elf/4.1.2/../../../../nios2-elf/lib/mno-hw-mul\libc.a(lib_a-__call_atexit.o)
                              c:/altera/11.1sp2/nios2eds/bin/gnu/h-i686-mingw32/bin/../lib/gcc/nios2-elf/4.1.2/../../../../nios2-elf/lib/mno-hw-mul\libc.a(lib_a-exit.o) (__call_exitprocs)
c:/altera/11.1sp2/nios2eds/bin/gnu/h-i686-mingw32/bin/../lib/gcc/nios2-elf/4.1.2/../../../../nios2-elf/lib/mno-hw-mul\libc.a(lib_a-refill.o)
                              c:/altera/11.1sp2/nios2eds/bin/gnu/h-i686-mingw32/bin/../lib/gcc/nios2-elf/4.1.2/../../../../nios2-elf/lib/mno-hw-mul\libc.a(lib_a-rget.o) (__srefill_r)
c:/altera/11.1sp2/nios2eds/bin/gnu/h-i686-mingw32/bin/../lib/gcc/nios2-elf/4.1.2/mno-hw-mul\libgcc.a(_floatundidf.o)
                              D:/WorK/Synesthesia/wxp/synesthesia/sw_wxp/de1_limbus_bsp/\libchibios_v240_bsp.a(perf_print_formatted_report.o) (__floatundidf)
D:/WorK/Synesthesia/wxp/synesthesia/sw_wxp/de1_limbus_bsp/\libchibios_v240_bsp.a(alt_exit.o)
                              c:/altera/11.1sp2/nios2eds/bin/gnu/h-i686-mingw32/bin/../lib/gcc/nios2-elf/4.1.2/../../../../nios2-elf/lib/mno-hw-mul\libc.a(lib_a-exit.o) (_exit)

Allocating common symbols
Common symbol       size              file

alt_irq             0x100             D:/WorK/Synesthesia/wxp/synesthesia/sw_wxp/de1_limbus_bsp/\libchibios_v240_bsp.a(alt_irq_handler.o)
bash_rc             0x4               obj/default/ledos/shell/bash.o
errno               0x4               c:/altera/11.1sp2/nios2eds/bin/gnu/h-i686-mingw32/bin/../lib/gcc/nios2-elf/4.1.2/../../../../nios2-elf/lib/mno-hw-mul\libc.a(lib_a-int_errno.o)
bash_Buff           0x10000           obj/default/ledos/shell/bash.o
bash_dir            0x1c              obj/default/ledos/shell/bash.o
shell_terminated    0x4               obj/default/ledos/shell/shell.o
bash_fno            0x18              obj/default/ledos/shell/bash.o
shell_tel           0xc               obj/default/ledos/ledos.o
vtlist              0x10              D:/WorK/Synesthesia/wxp/synesthesia/sw_wxp/de1_limbus_bsp/\libchibios_v240_bsp.a(chvt.o)
rlist               0x20              D:/WorK/Synesthesia/wxp/synesthesia/sw_wxp/de1_limbus_bsp/\libchibios_v240_bsp.a(chschd.o)
_atexit0            0x190             c:/altera/11.1sp2/nios2eds/bin/gnu/h-i686-mingw32/bin/../lib/gcc/nios2-elf/4.1.2/../../../../nios2-elf/lib/mno-hw-mul\libc.a(lib_a-atexit.o)
_idle_thread_wa     0x1c0             D:/WorK/Synesthesia/wxp/synesthesia/sw_wxp/de1_limbus_bsp/\libchibios_v240_bsp.a(chsys.o)
bash_Fil            0x24              obj/default/ledos/shell/bash.o
bash_Fatfs          0x234             obj/default/ledos/shell/bash.o

Memory Configuration

Name             Origin             Length             Attributes
reset            0x00800000         0x00000020
sdram            0x00800020         0x007fffe0
*default*        0x00000000         0xffffffff

Linker script and memory map

LOAD D:/WorK/Synesthesia/wxp/synesthesia/sw_wxp/de1_limbus_bsp//obj/HAL/src/crt0.o
LOAD obj/default/ledos/codec/codec.o
LOAD obj/default/ledos/cortex/acortex/acortex.o
LOAD obj/default/ledos/cortex/acortex/dac/dac_drvr.o
LOAD obj/default/ledos/cortex/acortex/i2c/i2c_drvr.o
LOAD obj/default/ledos/cortex/acortex/prsr/prsr.o
LOAD obj/default/ledos/cortex/acortex/sram/sram.o
LOAD obj/default/ledos/cortex/cortex.o
LOAD obj/default/ledos/cortex/fgyrus/fgyrus.o
LOAD obj/default/ledos/cortex/vcortex/vcortex.o
LOAD obj/default/ledos/fatfs/diskio.o
LOAD obj/default/ledos/fatfs/ff.o
LOAD obj/default/ledos/fft_cache/fft_cache.o
LOAD obj/default/ledos/ledos.o
LOAD obj/default/ledos/lsd/lsd.o
LOAD obj/default/ledos/shell/bash.o
LOAD obj/default/ledos/shell/shell.o
LOAD obj/default/main.o
LOAD c:/altera/11.1sp2/nios2eds/bin/gnu/h-i686-mingw32/bin/../lib/gcc/nios2-elf/4.1.2/../../../../nios2-elf/lib/mno-hw-mul\libstdc++.a
LOAD c:/altera/11.1sp2/nios2eds/bin/gnu/h-i686-mingw32/bin/../lib/gcc/nios2-elf/4.1.2/../../../../nios2-elf/lib/mno-hw-mul\libm.a
LOAD c:/altera/11.1sp2/nios2eds/bin/gnu/h-i686-mingw32/bin/../lib/gcc/nios2-elf/4.1.2/mno-hw-mul\libgcc.a
START GROUP
LOAD c:/altera/11.1sp2/nios2eds/bin/gnu/h-i686-mingw32/bin/../lib/gcc/nios2-elf/4.1.2/../../../../nios2-elf/lib/mno-hw-mul\libc.a
LOAD c:/altera/11.1sp2/nios2eds/bin/gnu/h-i686-mingw32/bin/../lib/gcc/nios2-elf/4.1.2/mno-hw-mul\libgcc.a
LOAD D:/WorK/Synesthesia/wxp/synesthesia/sw_wxp/de1_limbus_bsp/\libchibios_v240_bsp.a
END GROUP
LOAD c:/altera/11.1sp2/nios2eds/bin/gnu/h-i686-mingw32/bin/../lib/gcc/nios2-elf/4.1.2/mno-hw-mul\libgcc.a
                0x00800000                __alt_mem_sdram = 0x800000

.entry          0x00800000       0x20
 *(.entry)
 .entry         0x00800000       0x20 D:/WorK/Synesthesia/wxp/synesthesia/sw_wxp/de1_limbus_bsp//obj/HAL/src/crt0.o
                0x00800000                __reset

.exceptions     0x00800020      0x1a4
                0x00800020                PROVIDE (__ram_exceptions_start, ABSOLUTE (.))
                0x00800020                . = ALIGN (0x20)
 *(.irq)
 *(.exceptions.entry.label)
 .exceptions.entry.label
                0x00800020        0x0 D:/WorK/Synesthesia/wxp/synesthesia/sw_wxp/de1_limbus_bsp/\libchibios_v240_bsp.a(alt_irq_entry.o)
                0x00800020                alt_irq_entry
 .exceptions.entry.label
                0x00800020        0x0 D:/WorK/Synesthesia/wxp/synesthesia/sw_wxp/de1_limbus_bsp/\libchibios_v240_bsp.a(alt_exception_entry.o)
                0x00800020                alt_exception
 *(.exceptions.entry.user)
 *(.exceptions.entry)
 .exceptions.entry
                0x00800020       0x54 D:/WorK/Synesthesia/wxp/synesthesia/sw_wxp/de1_limbus_bsp/\libchibios_v240_bsp.a(alt_exception_entry.o)
 *(.exceptions.irqtest.user)
 *(.exceptions.irqtest)
 .exceptions.irqtest
                0x00800074       0x10 D:/WorK/Synesthesia/wxp/synesthesia/sw_wxp/de1_limbus_bsp/\libchibios_v240_bsp.a(alt_irq_entry.o)
 *(.exceptions.irqhandler.user)
 *(.exceptions.irqhandler)
 .exceptions.irqhandler
                0x00800084        0x4 D:/WorK/Synesthesia/wxp/synesthesia/sw_wxp/de1_limbus_bsp/\libchibios_v240_bsp.a(alt_irq_entry.o)
 *(.exceptions.irqreturn.user)
 *(.exceptions.irqreturn)
 .exceptions.irqreturn
                0x00800088        0x4 D:/WorK/Synesthesia/wxp/synesthesia/sw_wxp/de1_limbus_bsp/\libchibios_v240_bsp.a(alt_irq_entry.o)
 *(.exceptions.notirq.label)
 .exceptions.notirq.label
                0x0080008c        0x0 D:/WorK/Synesthesia/wxp/synesthesia/sw_wxp/de1_limbus_bsp/\libchibios_v240_bsp.a(alt_irq_entry.o)
 *(.exceptions.notirq.user)
 *(.exceptions.notirq)
 .exceptions.notirq
                0x0080008c        0x8 D:/WorK/Synesthesia/wxp/synesthesia/sw_wxp/de1_limbus_bsp/\libchibios_v240_bsp.a(alt_exception_entry.o)
 *(.exceptions.soft.user)
 *(.exceptions.soft)
 *(.exceptions.unknown.user)
 *(.exceptions.unknown)
 .exceptions.unknown
                0x00800094        0x4 D:/WorK/Synesthesia/wxp/synesthesia/sw_wxp/de1_limbus_bsp/\libchibios_v240_bsp.a(alt_exception_entry.o)
 *(.exceptions.exit.label)
 .exceptions.exit.label
                0x00800098        0x0 D:/WorK/Synesthesia/wxp/synesthesia/sw_wxp/de1_limbus_bsp/\libchibios_v240_bsp.a(alt_irq_entry.o)
 .exceptions.exit.label
                0x00800098        0x0 D:/WorK/Synesthesia/wxp/synesthesia/sw_wxp/de1_limbus_bsp/\libchibios_v240_bsp.a(alt_exception_entry.o)
 *(.exceptions.exit.user)
 *(.exceptions.exit)
 .exceptions.exit
                0x00800098       0x54 D:/WorK/Synesthesia/wxp/synesthesia/sw_wxp/de1_limbus_bsp/\libchibios_v240_bsp.a(alt_exception_entry.o)
 *(.exceptions)
 .exceptions    0x008000ec       0xd8 D:/WorK/Synesthesia/wxp/synesthesia/sw_wxp/de1_limbus_bsp/\libchibios_v240_bsp.a(alt_irq_handler.o)
                0x008000ec                alt_irq_handler
                0x008001c4                PROVIDE (__ram_exceptions_end, ABSOLUTE (.))
                0x00800020                PROVIDE (__flash_exceptions_start, LOADADDR (.exceptions))

.text           0x008001c4    0x17264
                0x008001c4                PROVIDE (stext, ABSOLUTE (.))
 *(.interp)
 *(.hash)
 *(.dynsym)
 *(.dynstr)
 *(.gnu.version)
 *(.gnu.version_d)
 *(.gnu.version_r)
 *(.rel.init)
 *(.rela.init)
 *(.rel.text .rel.text.* .rel.gnu.linkonce.t.*)
 *(.rela.text .rela.text.* .rela.gnu.linkonce.t.*)
 *(.rel.fini)
 *(.rela.fini)
 *(.rel.rodata .rel.rodata.* .rel.gnu.linkonce.r.*)
 *(.rela.rodata .rela.rodata.* .rela.gnu.linkonce.r.*)
 *(.rel.data .rel.data.* .rel.gnu.linkonce.d.*)
 *(.rela.data .rela.data.* .rela.gnu.linkonce.d.*)
 *(.rel.tdata .rel.tdata.* .rel.gnu.linkonce.td.*)
 *(.rela.tdata .rela.tdata.* .rela.gnu.linkonce.td.*)
 *(.rel.tbss .rel.tbss.* .rel.gnu.linkonce.tb.*)
 *(.rela.tbss .rela.tbss.* .rela.gnu.linkonce.tb.*)
 *(.rel.ctors)
 *(.rela.ctors)
 *(.rel.dtors)
 *(.rela.dtors)
 *(.rel.got)
 *(.rela.got)
 *(.rel.sdata .rel.sdata.* .rel.gnu.linkonce.s.*)
 *(.rela.sdata .rela.sdata.* .rela.gnu.linkonce.s.*)
 *(.rel.sbss .rel.sbss.* .rel.gnu.linkonce.sb.*)
 *(.rela.sbss .rela.sbss.* .rela.gnu.linkonce.sb.*)
 *(.rel.sdata2 .rel.sdata2.* .rel.gnu.linkonce.s2.*)
 *(.rela.sdata2 .rela.sdata2.* .rela.gnu.linkonce.s2.*)
 *(.rel.sbss2 .rel.sbss2.* .rel.gnu.linkonce.sb2.*)
 *(.rela.sbss2 .rela.sbss2.* .rela.gnu.linkonce.sb2.*)
 *(.rel.bss .rel.bss.* .rel.gnu.linkonce.b.*)
 *(.rela.bss .rela.bss.* .rela.gnu.linkonce.b.*)
 *(.rel.plt)
 *(.rela.plt)
 *(.rel.dyn)
 *(.init)
 *(.plt)
 *(.text .stub .text.* .gnu.linkonce.t.*)
 .text          0x008001c4       0x3c D:/WorK/Synesthesia/wxp/synesthesia/sw_wxp/de1_limbus_bsp//obj/HAL/src/crt0.o
                0x008001c4                _start
 .text          0x00800200      0x43c obj/default/ledos/codec/codec.o
                0x00800200                codec_dump_regs
                0x00800260                codec_config_reg
                0x008002b0                codec_iwl_update
                0x008002c4                codec_sr_update
                0x008002d8                codec_adc_pwr_dwn_n_up
                0x008002ec                codec_adc_hpf_enable
                0x00800300                codec_lineout_pwr_dwn_n_up
                0x00800314                codec_linein_pwr_dwn_n_up
                0x00800328                codec_pwr_off_n_on
                0x0080033c                codec_dac_inactivate
                0x008003a0                codec_dac_activate
                0x00800404                codec_dsp_if_inactivate
                0x00800418                codec_dsp_if_activate
                0x0080042c                codec_reset
                0x0080049c                codec_init
 .text          0x0080063c      0x1ec obj/default/ledos/cortex/acortex/acortex.o
                0x0080063c                acortex_aud_src_sel
                0x00800650                reset_acortex
                0x00800668                acortex_init
                0x008006dc                adc_cap
 .text          0x00800828      0x164 obj/default/ledos/cortex/acortex/dac/dac_drvr.o
                0x00800828                update_fs_div
                0x00800854                disable_mclk
                0x00800868                enable_mclk
                0x00800884                update_mclk
                0x008008dc                configure_dac_drvr_bps
                0x00800914                enable_adc_drvr
                0x00800930                disable_adc_drvr
                0x00800950                enable_dac_drvr
                0x0080096c                disable_dac_drvr
 .text          0x0080098c      0x12c obj/default/ledos/cortex/acortex/i2c/i2c_drvr.o
                0x0080098c                get_i2c_clk
                0x008009a4                is_busy
                0x008009c0                get_i2c_status
                0x008009f0                configure_i2c_clk
                0x00800a08                i2c_xtn_write16
 .text          0x00800ab8       0xfc obj/default/ledos/cortex/acortex/prsr/prsr.o
                0x00800ab8                prsr_get_bytes_read
                0x00800ae8                prsr_hdr_ram_read16
                0x00800b14                get_wav_hdr_frm_prsr
                0x00800b88                prsr_disable
                0x00800b9c                prsr_enable
 .text          0x00800bb4       0xb0 obj/default/ledos/cortex/acortex/sram/sram.o
                0x00800bb4                sram_write16
                0x00800c0c                sram_read16
 .text          0x00800c64       0x6c obj/default/ledos/cortex/cortex.o
                0x00800c64                cortex_init
 .text          0x00800cd0       0x9c obj/default/ledos/cortex/fgyrus/fgyrus.o
                0x00800cd0                get_full_fgyrus_addr
                0x00800ce4                get_fgyrus_status
                0x00800d04                configure_post_norm
                0x00800d20                disable_fgyrus
                0x00800d34                enable_fgyrus
                0x00800d4c                get_fgyrus_fsm_pstate
 .text          0x00800d6c       0x54 obj/default/ledos/cortex/vcortex/vcortex.o
                0x00800d6c                pwm_paint
                0x00800d9c                disable_vcortex
                0x00800dac                enable_vcortex
 .text          0x00800dc0      0x9d8 obj/default/ledos/fatfs/diskio.o
                0x00800dc0                disk_timerproc
                0x00800dc4                init_port
                0x00800ddc                wait_on_spi
                0x00800f10                dly_us
                0x0080124c                disk_initialize
                0x008013e4                disk_status
                0x00801448                disk_ioctl
                0x008015a4                disk_write
                0x008016b0                disk_read
 .text          0x00801798     0x3484 obj/default/ledos/fatfs/ff.o
                0x008017d8                clust2sect
                0x0080191c                f_mount
                0x00801948                f_chdrive
                0x00801960                get_fattime
                0x00801968                decode_fres
                0x0080224c                put_fat
                0x00802424                get_fat
                0x008025a8                f_getfree
                0x00802784                f_read
                0x00802c88                f_lseek
                0x00802eb8                f_write
                0x00803484                f_readdir
                0x0080353c                f_getcwd
                0x00803bb8                f_stat
                0x00803c40                f_opendir
                0x00803d04                f_chdir
                0x00803e8c                f_truncate
                0x008040c8                f_rename
                0x008042d8                f_utime
                0x008043ac                f_chmod
                0x00804480                f_unlink
                0x008045fc                f_sync
                0x008046f4                f_close
                0x00804720                f_open
                0x00804988                f_mkdir
 .text          0x00804c1c       0x58 obj/default/ledos/fft_cache/fft_cache.o
                0x00804c1c                read_fft_cache
 .text          0x00804c74      0x5c8 obj/default/ledos/ledos.o
                0x00804c74                update_aud_bytes_read
                0x00804c88                byte_swap16
                0x00804ca8                byte_swap32
                0x00804cd8                chk_wav_hdr
                0x00804d84                prep_cortex
                0x00804ea4                printf_wave_hdr
                0x00804fa0                wave_parse
                0x0080504c                splash_ledos
                0x00805168                init_ledos
 .text          0x0080523c       0x34 obj/default/ledos/lsd/lsd.o
                0x00805264                get_acid_box
 .text          0x00805270      0xb08 obj/default/ledos/shell/bash.o
                0x00805270                get_usr_bash_config
                0x00805278                init_bash
                0x008052c0                update_acid
                0x00805cb8                acidThreadCreateStatic
                0x00805cdc                acid_thread
 .text          0x00805d78      0x594 obj/default/ledos/shell/shell.o
                0x00805d78                shellInit
                0x00805dd4                shellGetLine
                0x00805ec4                shellCreateStatic
                0x008062e4                shellCreate
 .text          0x0080630c       0x2c obj/default/main.o
                0x0080630c                main
 .text          0x00806338      0x14c c:/altera/11.1sp2/nios2eds/bin/gnu/h-i686-mingw32/bin/../lib/gcc/nios2-elf/4.1.2/mno-hw-mul\libgcc.a(lib2-divmod.o)
                0x008063b4                __divsi3
                0x00806414                __modsi3
                0x00806474                __udivsi3
                0x0080647c                __umodsi3
 .text          0x00806484       0x38 c:/altera/11.1sp2/nios2eds/bin/gnu/h-i686-mingw32/bin/../lib/gcc/nios2-elf/4.1.2/mno-hw-mul\libgcc.a(lib2-mul.o)
                0x00806484                __mulsi3
 .text          0x008064bc       0x78 c:/altera/11.1sp2/nios2eds/bin/gnu/h-i686-mingw32/bin/../lib/gcc/nios2-elf/4.1.2/../../../../nios2-elf/lib/mno-hw-mul\libc.a(lib_a-printf.o)
                0x008064bc                printf
                0x00806500                _printf_r
 .text          0x00806534       0xb0 c:/altera/11.1sp2/nios2eds/bin/gnu/h-i686-mingw32/bin/../lib/gcc/nios2-elf/4.1.2/../../../../nios2-elf/lib/mno-hw-mul\libc.a(lib_a-strcasecmp.o)
                0x00806534                strcasecmp
 .text          0x008065e4       0x50 c:/altera/11.1sp2/nios2eds/bin/gnu/h-i686-mingw32/bin/../lib/gcc/nios2-elf/4.1.2/../../../../nios2-elf/lib/mno-hw-mul\libc.a(lib_a-strpbrk.o)
                0x008065e4                strpbrk
 .text          0x00806634       0x58 c:/altera/11.1sp2/nios2eds/bin/gnu/h-i686-mingw32/bin/../lib/gcc/nios2-elf/4.1.2/../../../../nios2-elf/lib/mno-hw-mul\libc.a(lib_a-strspn.o)
                0x00806634                strspn
 .text          0x0080668c     0x1f40 c:/altera/11.1sp2/nios2eds/bin/gnu/h-i686-mingw32/bin/../lib/gcc/nios2-elf/4.1.2/../../../../nios2-elf/lib/mno-hw-mul\libc.a(lib_a-vfprintf.o)
                0x008066e4                ___vfprintf_internal_r
                0x008085a8                __vfprintf_internal
 .text          0x008085cc      0x13c c:/altera/11.1sp2/nios2eds/bin/gnu/h-i686-mingw32/bin/../lib/gcc/nios2-elf/4.1.2/../../../../nios2-elf/lib/mno-hw-mul\libc.a(lib_a-wsetup.o)
                0x008085cc                __swsetup_r
 .text          0x00808708        0x0 c:/altera/11.1sp2/nios2eds/bin/gnu/h-i686-mingw32/bin/../lib/gcc/nios2-elf/4.1.2/../../../../nios2-elf/lib/mno-hw-mul\libc.a(lib_a-ctype_.o)
 .text          0x00808708     0x17f8 c:/altera/11.1sp2/nios2eds/bin/gnu/h-i686-mingw32/bin/../lib/gcc/nios2-elf/4.1.2/../../../../nios2-elf/lib/mno-hw-mul\libc.a(lib_a-dtoa.o)
                0x0080894c                _dtoa_r
 .text          0x00809f00      0x230 c:/altera/11.1sp2/nios2eds/bin/gnu/h-i686-mingw32/bin/../lib/gcc/nios2-elf/4.1.2/../../../../nios2-elf/lib/mno-hw-mul\libc.a(lib_a-fflush.o)
                0x00809f00                _fflush_r
                0x0080a0fc                fflush
 .text          0x0080a130      0x2f4 c:/altera/11.1sp2/nios2eds/bin/gnu/h-i686-mingw32/bin/../lib/gcc/nios2-elf/4.1.2/../../../../nios2-elf/lib/mno-hw-mul\libc.a(lib_a-findfp.o)
                0x0080a188                __sfp_lock_acquire
                0x0080a18c                __sfp_lock_release
                0x0080a190                __sinit_lock_acquire
                0x0080a194                __sinit_lock_release
                0x0080a198                __sinit
                0x0080a24c                __fp_unlock_all
                0x0080a264                __fp_lock_all
                0x0080a27c                _cleanup_r
                0x0080a288                _cleanup
                0x0080a298                __sfmoreglue
                0x0080a334                __sfp
 .text          0x0080a424      0x440 c:/altera/11.1sp2/nios2eds/bin/gnu/h-i686-mingw32/bin/../lib/gcc/nios2-elf/4.1.2/../../../../nios2-elf/lib/mno-hw-mul\libc.a(lib_a-freer.o)
                0x0080a424                _malloc_trim_r
                0x0080a550                _free_r
 .text          0x0080a864      0x49c c:/altera/11.1sp2/nios2eds/bin/gnu/h-i686-mingw32/bin/../lib/gcc/nios2-elf/4.1.2/../../../../nios2-elf/lib/mno-hw-mul\libc.a(lib_a-fvwrite.o)
                0x0080a864                __sfvwrite_r
 .text          0x0080ad00      0x180 c:/altera/11.1sp2/nios2eds/bin/gnu/h-i686-mingw32/bin/../lib/gcc/nios2-elf/4.1.2/../../../../nios2-elf/lib/mno-hw-mul\libc.a(lib_a-fwalk.o)
                0x0080ad00                _fwalk_reent
                0x0080adc8                _fwalk
 .text          0x0080ae80        0x0 c:/altera/11.1sp2/nios2eds/bin/gnu/h-i686-mingw32/bin/../lib/gcc/nios2-elf/4.1.2/../../../../nios2-elf/lib/mno-hw-mul\libc.a(lib_a-impure.o)
 .text          0x0080ae80       0xc4 c:/altera/11.1sp2/nios2eds/bin/gnu/h-i686-mingw32/bin/../lib/gcc/nios2-elf/4.1.2/../../../../nios2-elf/lib/mno-hw-mul\libc.a(lib_a-locale.o)
                0x0080ae80                __locale_charset
                0x0080ae88                _localeconv_r
                0x0080ae94                localeconv
                0x0080aea4                _setlocale_r
                0x0080af28                setlocale
 .text          0x0080af44      0x194 c:/altera/11.1sp2/nios2eds/bin/gnu/h-i686-mingw32/bin/../lib/gcc/nios2-elf/4.1.2/../../../../nios2-elf/lib/mno-hw-mul\libc.a(lib_a-makebuf.o)
                0x0080af44                __smakebuf_r
 .text          0x0080b0d8      0x740 c:/altera/11.1sp2/nios2eds/bin/gnu/h-i686-mingw32/bin/../lib/gcc/nios2-elf/4.1.2/../../../../nios2-elf/lib/mno-hw-mul\libc.a(lib_a-mallocr.o)
                0x0080b0d8                _malloc_r
 .text          0x0080b818       0xe4 c:/altera/11.1sp2/nios2eds/bin/gnu/h-i686-mingw32/bin/../lib/gcc/nios2-elf/4.1.2/../../../../nios2-elf/lib/mno-hw-mul\libc.a(lib_a-memchr.o)
                0x0080b818                memchr
 .text          0x0080b8fc       0xa0 c:/altera/11.1sp2/nios2eds/bin/gnu/h-i686-mingw32/bin/../lib/gcc/nios2-elf/4.1.2/../../../../nios2-elf/lib/mno-hw-mul\libc.a(lib_a-memcpy.o)
                0x0080b8fc                memcpy
 .text          0x0080b99c       0xe0 c:/altera/11.1sp2/nios2eds/bin/gnu/h-i686-mingw32/bin/../lib/gcc/nios2-elf/4.1.2/../../../../nios2-elf/lib/mno-hw-mul\libc.a(lib_a-memmove.o)
                0x0080b99c                memmove
 .text          0x0080ba7c       0x98 c:/altera/11.1sp2/nios2eds/bin/gnu/h-i686-mingw32/bin/../lib/gcc/nios2-elf/4.1.2/../../../../nios2-elf/lib/mno-hw-mul\libc.a(lib_a-memset.o)
                0x0080ba7c                memset
 .text          0x0080bb14     0x108c c:/altera/11.1sp2/nios2eds/bin/gnu/h-i686-mingw32/bin/../lib/gcc/nios2-elf/4.1.2/../../../../nios2-elf/lib/mno-hw-mul\libc.a(lib_a-mprec.o)
                0x0080bb14                _Bfree
                0x0080bb3c                __hi0bits
                0x0080bbac                __lo0bits
                0x0080bc70                __mcmp
                0x0080bcd0                __ulp
                0x0080bd50                __b2d
                0x0080be70                __ratio
                0x0080bf20                _mprec_log10
                0x0080bfb4                __copybits
                0x0080c00c                __any_on
                0x0080c094                _Balloc
                0x0080c150                __d2b
                0x0080c2cc                __mdiff
                0x0080c458                __lshift
                0x0080c5a4                __multiply
                0x0080c7f8                __i2b
                0x0080c834                __multadd
                0x0080c960                __pow5mult
                0x0080ca80                __s2b
 .text          0x0080cba0      0x5f4 c:/altera/11.1sp2/nios2eds/bin/gnu/h-i686-mingw32/bin/../lib/gcc/nios2-elf/4.1.2/../../../../nios2-elf/lib/mno-hw-mul\libc.a(lib_a-reallocr.o)
                0x0080cba0                _realloc_r
 .text          0x0080d194       0x40 c:/altera/11.1sp2/nios2eds/bin/gnu/h-i686-mingw32/bin/../lib/gcc/nios2-elf/4.1.2/../../../../nios2-elf/lib/mno-hw-mul\libc.a(lib_a-s_isinfd.o)
                0x0080d194                __isinfd
 .text          0x0080d1d4       0x30 c:/altera/11.1sp2/nios2eds/bin/gnu/h-i686-mingw32/bin/../lib/gcc/nios2-elf/4.1.2/../../../../nios2-elf/lib/mno-hw-mul\libc.a(lib_a-s_isnand.o)
                0x0080d1d4                __isnand
 .text          0x0080d204       0x70 c:/altera/11.1sp2/nios2eds/bin/gnu/h-i686-mingw32/bin/../lib/gcc/nios2-elf/4.1.2/../../../../nios2-elf/lib/mno-hw-mul\libc.a(lib_a-sbrkr.o)
                0x0080d204                _sbrk_r
 .text          0x0080d274      0x14c c:/altera/11.1sp2/nios2eds/bin/gnu/h-i686-mingw32/bin/../lib/gcc/nios2-elf/4.1.2/../../../../nios2-elf/lib/mno-hw-mul\libc.a(lib_a-stdio.o)
                0x0080d274                __sclose
                0x0080d27c                __sseek
                0x0080d2e4                __swrite
                0x0080d360                __sread
 .text          0x0080d3c0       0xbc c:/altera/11.1sp2/nios2eds/bin/gnu/h-i686-mingw32/bin/../lib/gcc/nios2-elf/4.1.2/../../../../nios2-elf/lib/mno-hw-mul\libc.a(lib_a-strcmp.o)
                0x0080d3c0                strcmp
 .text          0x0080d47c       0x74 c:/altera/11.1sp2/nios2eds/bin/gnu/h-i686-mingw32/bin/../lib/gcc/nios2-elf/4.1.2/../../../../nios2-elf/lib/mno-hw-mul\libc.a(lib_a-strlen.o)
                0x0080d47c                strlen
 .text          0x0080d4f0       0x78 c:/altera/11.1sp2/nios2eds/bin/gnu/h-i686-mingw32/bin/../lib/gcc/nios2-elf/4.1.2/../../../../nios2-elf/lib/mno-hw-mul\libc.a(lib_a-writer.o)
                0x0080d4f0                _write_r
 .text          0x0080d568       0xc8 c:/altera/11.1sp2/nios2eds/bin/gnu/h-i686-mingw32/bin/../lib/gcc/nios2-elf/4.1.2/../../../../nios2-elf/lib/mno-hw-mul\libc.a(lib_a-callocr.o)
                0x0080d568                _calloc_r
 .text          0x0080d630       0x70 c:/altera/11.1sp2/nios2eds/bin/gnu/h-i686-mingw32/bin/../lib/gcc/nios2-elf/4.1.2/../../../../nios2-elf/lib/mno-hw-mul\libc.a(lib_a-closer.o)
                0x0080d630                _close_r
 .text          0x0080d6a0      0x124 c:/altera/11.1sp2/nios2eds/bin/gnu/h-i686-mingw32/bin/../lib/gcc/nios2-elf/4.1.2/../../../../nios2-elf/lib/mno-hw-mul\libc.a(lib_a-fclose.o)
                0x0080d6a0                _fclose_r
                0x0080d7b0                fclose
 .text          0x0080d7c4       0x74 c:/altera/11.1sp2/nios2eds/bin/gnu/h-i686-mingw32/bin/../lib/gcc/nios2-elf/4.1.2/../../../../nios2-elf/lib/mno-hw-mul\libc.a(lib_a-fstatr.o)
                0x0080d7c4                _fstat_r
 .text          0x0080d838        0x0 c:/altera/11.1sp2/nios2eds/bin/gnu/h-i686-mingw32/bin/../lib/gcc/nios2-elf/4.1.2/../../../../nios2-elf/lib/mno-hw-mul\libc.a(lib_a-int_errno.o)
 .text          0x0080d838       0x70 c:/altera/11.1sp2/nios2eds/bin/gnu/h-i686-mingw32/bin/../lib/gcc/nios2-elf/4.1.2/../../../../nios2-elf/lib/mno-hw-mul\libc.a(lib_a-isattyr.o)
                0x0080d838                _isatty_r
 .text          0x0080d8a8       0x78 c:/altera/11.1sp2/nios2eds/bin/gnu/h-i686-mingw32/bin/../lib/gcc/nios2-elf/4.1.2/../../../../nios2-elf/lib/mno-hw-mul\libc.a(lib_a-lseekr.o)
                0x0080d8a8                _lseek_r
 .text          0x0080d920       0x78 c:/altera/11.1sp2/nios2eds/bin/gnu/h-i686-mingw32/bin/../lib/gcc/nios2-elf/4.1.2/../../../../nios2-elf/lib/mno-hw-mul\libc.a(lib_a-readr.o)
                0x0080d920                _read_r
 .text          0x0080d998      0x66c c:/altera/11.1sp2/nios2eds/bin/gnu/h-i686-mingw32/bin/../lib/gcc/nios2-elf/4.1.2/mno-hw-mul\libgcc.a(_udivdi3.o)
                0x0080d998                __udivdi3
 .text          0x0080e004      0x660 c:/altera/11.1sp2/nios2eds/bin/gnu/h-i686-mingw32/bin/../lib/gcc/nios2-elf/4.1.2/mno-hw-mul\libgcc.a(_umoddi3.o)
                0x0080e004                __umoddi3
 .text          0x0080e664      0x504 c:/altera/11.1sp2/nios2eds/bin/gnu/h-i686-mingw32/bin/../lib/gcc/nios2-elf/4.1.2/mno-hw-mul\libgcc.a(_addsub_df.o)
                0x0080ea74                __subdf3
                0x0080eaf4                __adddf3
 .text          0x0080eb68      0x3c4 c:/altera/11.1sp2/nios2eds/bin/gnu/h-i686-mingw32/bin/../lib/gcc/nios2-elf/4.1.2/mno-hw-mul\libgcc.a(_mul_df.o)
                0x0080eb68                __muldf3
 .text          0x0080ef2c      0x258 c:/altera/11.1sp2/nios2eds/bin/gnu/h-i686-mingw32/bin/../lib/gcc/nios2-elf/4.1.2/mno-hw-mul\libgcc.a(_div_df.o)
                0x0080ef2c                __divdf3
 .text          0x0080f184       0x88 c:/altera/11.1sp2/nios2eds/bin/gnu/h-i686-mingw32/bin/../lib/gcc/nios2-elf/4.1.2/mno-hw-mul\libgcc.a(_eq_df.o)
                0x0080f184                __eqdf2
 .text          0x0080f20c       0x88 c:/altera/11.1sp2/nios2eds/bin/gnu/h-i686-mingw32/bin/../lib/gcc/nios2-elf/4.1.2/mno-hw-mul\libgcc.a(_ne_df.o)
                0x0080f20c                __nedf2
 .text          0x0080f294       0x88 c:/altera/11.1sp2/nios2eds/bin/gnu/h-i686-mingw32/bin/../lib/gcc/nios2-elf/4.1.2/mno-hw-mul\libgcc.a(_gt_df.o)
                0x0080f294                __gtdf2
 .text          0x0080f31c       0x88 c:/altera/11.1sp2/nios2eds/bin/gnu/h-i686-mingw32/bin/../lib/gcc/nios2-elf/4.1.2/mno-hw-mul\libgcc.a(_ge_df.o)
                0x0080f31c                __gedf2
 .text          0x0080f3a4       0x88 c:/altera/11.1sp2/nios2eds/bin/gnu/h-i686-mingw32/bin/../lib/gcc/nios2-elf/4.1.2/mno-hw-mul\libgcc.a(_lt_df.o)
                0x0080f3a4                __ltdf2
 .text          0x0080f42c       0xf8 c:/altera/11.1sp2/nios2eds/bin/gnu/h-i686-mingw32/bin/../lib/gcc/nios2-elf/4.1.2/mno-hw-mul\libgcc.a(_si_to_df.o)
                0x0080f42c                __floatsidf
 .text          0x0080f524       0xd8 c:/altera/11.1sp2/nios2eds/bin/gnu/h-i686-mingw32/bin/../lib/gcc/nios2-elf/4.1.2/mno-hw-mul\libgcc.a(_df_to_si.o)
                0x0080f524                __fixdfsi
 .text          0x0080f5fc        0x0 c:/altera/11.1sp2/nios2eds/bin/gnu/h-i686-mingw32/bin/../lib/gcc/nios2-elf/4.1.2/mno-hw-mul\libgcc.a(_thenan_df.o)
 .text          0x0080f5fc      0x194 c:/altera/11.1sp2/nios2eds/bin/gnu/h-i686-mingw32/bin/../lib/gcc/nios2-elf/4.1.2/mno-hw-mul\libgcc.a(_usi_to_df.o)
                0x0080f5fc                __floatunsidf
 .text          0x0080f790      0x124 c:/altera/11.1sp2/nios2eds/bin/gnu/h-i686-mingw32/bin/../lib/gcc/nios2-elf/4.1.2/mno-hw-mul\libgcc.a(_muldi3.o)
                0x0080f790                __muldi3
 .text          0x0080f8b4        0x0 c:/altera/11.1sp2/nios2eds/bin/gnu/h-i686-mingw32/bin/../lib/gcc/nios2-elf/4.1.2/mno-hw-mul\libgcc.a(_clz.o)
 .text          0x0080f8b4       0x80 c:/altera/11.1sp2/nios2eds/bin/gnu/h-i686-mingw32/bin/../lib/gcc/nios2-elf/4.1.2/mno-hw-mul\libgcc.a(_clzsi2.o)
                0x0080f8b4                __clzsi2
 .text          0x0080f934      0x314 c:/altera/11.1sp2/nios2eds/bin/gnu/h-i686-mingw32/bin/../lib/gcc/nios2-elf/4.1.2/mno-hw-mul\libgcc.a(_pack_df.o)
                0x0080f934                __pack_d
 .text          0x0080fc48      0x138 c:/altera/11.1sp2/nios2eds/bin/gnu/h-i686-mingw32/bin/../lib/gcc/nios2-elf/4.1.2/mno-hw-mul\libgcc.a(_unpack_df.o)
                0x0080fc48                __unpack_d
 .text          0x0080fd80       0xc8 c:/altera/11.1sp2/nios2eds/bin/gnu/h-i686-mingw32/bin/../lib/gcc/nios2-elf/4.1.2/mno-hw-mul\libgcc.a(_fpcmp_parts_df.o)
                0x0080fd80                __fpcmp_parts_d
 .text          0x0080fe48      0x32c D:/WorK/Synesthesia/wxp/synesthesia/sw_wxp/de1_limbus_bsp/\libchibios_v240_bsp.a(chdynamic.o)
                0x0080fe48                chThdAddRef
                0x0080feac                chThdRelease
                0x0080ffe0                chThdCreateFromHeap
                0x008100a4                chThdCreateFromMemoryPool
 .text          0x00810174      0xa80 D:/WorK/Synesthesia/wxp/synesthesia/sw_wxp/de1_limbus_bsp/\libchibios_v240_bsp.a(chevents.o)
                0x00810174                chEvtRegisterMask
                0x0081020c                chEvtUnregister
                0x008102b0                chEvtClearFlags
                0x00810344                chEvtAddFlags
                0x008103c0                chEvtSignalFlags
                0x00810424                chEvtSignalFlagsI
                0x008104d8                chEvtBroadcastFlags
                0x0081053c                chEvtBroadcastFlagsI
                0x008105ac                chEvtDispatch
                0x00810658                chEvtWaitOne
                0x00810734                chEvtWaitAny
                0x008107fc                chEvtWaitAll
                0x008108a8                chEvtWaitOneTimeout
                0x008109d8                chEvtWaitAnyTimeout
                0x00810af4                chEvtWaitAllTimeout
 .text          0x00810bf4      0x4ec D:/WorK/Synesthesia/wxp/synesthesia/sw_wxp/de1_limbus_bsp/\libchibios_v240_bsp.a(chheap.o)
                0x00810bf4                _heap_init
                0x00810c50                chHeapInit
                0x00810cd8                chHeapAlloc
                0x00810e90                chHeapFree
                0x00811018                chHeapStatus
 .text          0x008110e0      0x154 D:/WorK/Synesthesia/wxp/synesthesia/sw_wxp/de1_limbus_bsp/\libchibios_v240_bsp.a(chmemcore.o)
                0x008110e0                _core_init
                0x0081112c                chCoreAlloc
                0x0081118c                chCoreAllocI
                0x00811208                chCoreStatus
 .text          0x00811234      0x204 D:/WorK/Synesthesia/wxp/synesthesia/sw_wxp/de1_limbus_bsp/\libchibios_v240_bsp.a(chmempools.o)
                0x00811234                chPoolInit
                0x00811294                chPoolAllocI
                0x00811318                chPoolAlloc
                0x00811378                chPoolFreeI
                0x008113d8                chPoolFree
 .text          0x00811438      0x274 D:/WorK/Synesthesia/wxp/synesthesia/sw_wxp/de1_limbus_bsp/\libchibios_v240_bsp.a(chmsg.o)
                0x00811438                chMsgSend
                0x0081155c                chMsgWait
                0x0081164c                chMsgRelease
 .text          0x008116ac      0x788 D:/WorK/Synesthesia/wxp/synesthesia/sw_wxp/de1_limbus_bsp/\libchibios_v240_bsp.a(chmtx.o)
                0x008116ac                chMtxInit
                0x008116f4                chMtxLock
                0x0081174c                chMtxLockS
                0x00811990                chMtxTryLock
                0x008119f0                chMtxTryLockS
                0x00811a74                chMtxUnlock
                0x00811c10                chMtxUnlockS
                0x00811d30                chMtxUnlockAll
 .text          0x00811e34      0x5bc D:/WorK/Synesthesia/wxp/synesthesia/sw_wxp/de1_limbus_bsp/\libchibios_v240_bsp.a(chschd.o)
                0x00811e34                _scheduler_init
                0x00811ec4                chSchReadyI
                0x00811f6c                chSchGoSleepS
                0x00812158                chSchGoSleepTimeoutS
                0x008121e8                chSchWakeupS
                0x00812294                chSchRescheduleS
                0x008122e0                chSchIsPreemptionRequired
                0x00812360                chSchDoReschedule
 .text          0x008123f0      0x7e4 D:/WorK/Synesthesia/wxp/synesthesia/sw_wxp/de1_limbus_bsp/\libchibios_v240_bsp.a(chthreads.o)
                0x008123f0                _thread_init
                0x008124f4                chThdCreateI
                0x0081264c                chThdCreateStatic
                0x008126d8                chThdSetPriority
                0x008127a8                chThdResume
                0x00812808                chThdTerminate
                0x00812868                chThdSleep
                0x008128c4                chThdSleepUntil
                0x00812944                chThdYield
                0x008129b8                chThdExit
                0x00812a00                chThdExitS
                0x00812af8                chThdWait
 .text          0x00812bd4      0x2a8 D:/WorK/Synesthesia/wxp/synesthesia/sw_wxp/de1_limbus_bsp/\libchibios_v240_bsp.a(chvt.o)
                0x00812bd4                _vt_init
                0x00812c38                chVTSetI
                0x00812d4c                chVTResetI
                0x00812dd4                chTimeIsWithin
 .text          0x00812e7c       0x8c D:/WorK/Synesthesia/wxp/synesthesia/sw_wxp/de1_limbus_bsp/\libchibios_v240_bsp.a(chcoreasm.o)
                0x00812e7c                _port_thread_start
                0x00812e90                port_switch
 .text          0x00812f08      0x160 D:/WorK/Synesthesia/wxp/synesthesia/sw_wxp/de1_limbus_bsp/\libchibios_v240_bsp.a(alt_close.o)
                0x00812f08                close
 .text          0x00813068       0x2c D:/WorK/Synesthesia/wxp/synesthesia/sw_wxp/de1_limbus_bsp/\libchibios_v240_bsp.a(alt_dev.o)
 .text          0x00813094        0x0 D:/WorK/Synesthesia/wxp/synesthesia/sw_wxp/de1_limbus_bsp/\libchibios_v240_bsp.a(alt_errno.o)
 .text          0x00813094      0x138 D:/WorK/Synesthesia/wxp/synesthesia/sw_wxp/de1_limbus_bsp/\libchibios_v240_bsp.a(alt_fstat.o)
                0x00813094                fstat
 .text          0x008131cc       0x38 D:/WorK/Synesthesia/wxp/synesthesia/sw_wxp/de1_limbus_bsp/\libchibios_v240_bsp.a(alt_getchar.o)
                0x008131cc                alt_getchar
 .text          0x00813204      0x124 D:/WorK/Synesthesia/wxp/synesthesia/sw_wxp/de1_limbus_bsp/\libchibios_v240_bsp.a(alt_isatty.o)
                0x00813204                isatty
 .text          0x00813328       0xec D:/WorK/Synesthesia/wxp/synesthesia/sw_wxp/de1_limbus_bsp/\libchibios_v240_bsp.a(alt_load.o)
                0x00813328                alt_load
 .text          0x00813414      0x154 D:/WorK/Synesthesia/wxp/synesthesia/sw_wxp/de1_limbus_bsp/\libchibios_v240_bsp.a(alt_lseek.o)
                0x00813414                lseek
 .text          0x00813568       0x88 D:/WorK/Synesthesia/wxp/synesthesia/sw_wxp/de1_limbus_bsp/\libchibios_v240_bsp.a(alt_main.o)
                0x00813568                alt_main
 .text          0x008135f0       0x40 D:/WorK/Synesthesia/wxp/synesthesia/sw_wxp/de1_limbus_bsp/\libchibios_v240_bsp.a(alt_malloc_lock.o)
                0x008135f0                __malloc_lock
                0x00813610                __malloc_unlock
 .text          0x00813630      0x258 D:/WorK/Synesthesia/wxp/synesthesia/sw_wxp/de1_limbus_bsp/\libchibios_v240_bsp.a(alt_printf.o)
                0x00813630                alt_printf
 .text          0x00813888       0x40 D:/WorK/Synesthesia/wxp/synesthesia/sw_wxp/de1_limbus_bsp/\libchibios_v240_bsp.a(alt_putchar.o)
                0x00813888                alt_putchar
 .text          0x008138c8      0x184 D:/WorK/Synesthesia/wxp/synesthesia/sw_wxp/de1_limbus_bsp/\libchibios_v240_bsp.a(alt_read.o)
                0x008138c8                read
 .text          0x00813a4c       0x78 D:/WorK/Synesthesia/wxp/synesthesia/sw_wxp/de1_limbus_bsp/\libchibios_v240_bsp.a(alt_release_fd.o)
                0x00813a4c                alt_release_fd
 .text          0x00813ac4       0xbc D:/WorK/Synesthesia/wxp/synesthesia/sw_wxp/de1_limbus_bsp/\libchibios_v240_bsp.a(alt_sbrk.o)
                0x00813ac4                sbrk
 .text          0x00813b80      0x184 D:/WorK/Synesthesia/wxp/synesthesia/sw_wxp/de1_limbus_bsp/\libchibios_v240_bsp.a(alt_write.o)
                0x00813b80                write
 .text          0x00813d04       0xf8 D:/WorK/Synesthesia/wxp/synesthesia/sw_wxp/de1_limbus_bsp/\libchibios_v240_bsp.a(alt_sys_init.o)
                0x00813d04                alt_irq_init
                0x00813d38                alt_sys_init
 .text          0x00813dfc      0x148 D:/WorK/Synesthesia/wxp/synesthesia/sw_wxp/de1_limbus_bsp/\libchibios_v240_bsp.a(altera_avalon_jtag_uart_fd.o)
                0x00813dfc                altera_avalon_jtag_uart_read_fd
                0x00813e54                altera_avalon_jtag_uart_write_fd
                0x00813eac                altera_avalon_jtag_uart_close_fd
                0x00813ef4                altera_avalon_jtag_uart_ioctl_fd
 .text          0x00813f44      0x40c D:/WorK/Synesthesia/wxp/synesthesia/sw_wxp/de1_limbus_bsp/\libchibios_v240_bsp.a(altera_avalon_jtag_uart_init.o)
                0x00813f44                altera_avalon_jtag_uart_init
                0x008142dc                altera_avalon_jtag_uart_close
 .text          0x00814350       0xf4 D:/WorK/Synesthesia/wxp/synesthesia/sw_wxp/de1_limbus_bsp/\libchibios_v240_bsp.a(altera_avalon_jtag_uart_ioctl.o)
                0x00814350                altera_avalon_jtag_uart_ioctl
 .text          0x00814444      0x224 D:/WorK/Synesthesia/wxp/synesthesia/sw_wxp/de1_limbus_bsp/\libchibios_v240_bsp.a(altera_avalon_jtag_uart_read.o)
                0x00814444                altera_avalon_jtag_uart_read
 .text          0x00814668      0x240 D:/WorK/Synesthesia/wxp/synesthesia/sw_wxp/de1_limbus_bsp/\libchibios_v240_bsp.a(altera_avalon_jtag_uart_write.o)
                0x00814668                altera_avalon_jtag_uart_write
 .text          0x008148a8      0x188 D:/WorK/Synesthesia/wxp/synesthesia/sw_wxp/de1_limbus_bsp/\libchibios_v240_bsp.a(altera_avalon_performance_counter.o)
                0x008148a8                perf_get_section_time
                0x00814958                perf_get_total_time
                0x008149ac                perf_get_num_starts
                0x008149ec                alt_get_performance_counter_base
                0x00814a0c                alt_get_cpu_freq
 .text          0x00814a30      0x100 D:/WorK/Synesthesia/wxp/synesthesia/sw_wxp/de1_limbus_bsp/\libchibios_v240_bsp.a(altera_avalon_timer_sc.o)
                0x00814aa0                alt_avalon_timer_sc_init
 .text          0x00814b30       0xf8 D:/WorK/Synesthesia/wxp/synesthesia/sw_wxp/de1_limbus_bsp/\libchibios_v240_bsp.a(altera_avalon_uart_fd.o)
                0x00814b30                altera_avalon_uart_read_fd
                0x00814b88                altera_avalon_uart_write_fd
                0x00814be0                altera_avalon_uart_close_fd
 .text          0x00814c28      0x400 D:/WorK/Synesthesia/wxp/synesthesia/sw_wxp/de1_limbus_bsp/\libchibios_v240_bsp.a(altera_avalon_uart_init.o)
                0x00814c28                altera_avalon_uart_init
                0x00814fc8                altera_avalon_uart_close
 .text          0x00815028      0x290 D:/WorK/Synesthesia/wxp/synesthesia/sw_wxp/de1_limbus_bsp/\libchibios_v240_bsp.a(altera_avalon_uart_read.o)
                0x00815028                altera_avalon_uart_read
 .text          0x008152b8      0x228 D:/WorK/Synesthesia/wxp/synesthesia/sw_wxp/de1_limbus_bsp/\libchibios_v240_bsp.a(altera_avalon_uart_write.o)
                0x008152b8                altera_avalon_uart_write
 .text          0x008154e0      0x294 D:/WorK/Synesthesia/wxp/synesthesia/sw_wxp/de1_limbus_bsp/\libchibios_v240_bsp.a(perf_print_formatted_report.o)
                0x008154e0                perf_print_formatted_report
 .text          0x00815774      0x20c D:/WorK/Synesthesia/wxp/synesthesia/sw_wxp/de1_limbus_bsp/\libchibios_v240_bsp.a(chsys.o)
                0x00815774                _idle_thread
                0x008157a4                chSysInit
                0x00815854                chSysTimerHandlerI
 .text          0x00815980      0x154 D:/WorK/Synesthesia/wxp/synesthesia/sw_wxp/de1_limbus_bsp/\libchibios_v240_bsp.a(alt_alarm_start.o)
                0x00815980                alt_alarm_start
 .text          0x00815ad4       0x1c D:/WorK/Synesthesia/wxp/synesthesia/sw_wxp/de1_limbus_bsp/\libchibios_v240_bsp.a(alt_dcache_flush_all.o)
                0x00815ad4                alt_dcache_flush_all
 .text          0x00815af0      0x114 D:/WorK/Synesthesia/wxp/synesthesia/sw_wxp/de1_limbus_bsp/\libchibios_v240_bsp.a(alt_dev_llist_insert.o)
                0x00815af0                alt_dev_llist_insert
 .text          0x00815c04       0x64 D:/WorK/Synesthesia/wxp/synesthesia/sw_wxp/de1_limbus_bsp/\libchibios_v240_bsp.a(alt_do_ctors.o)
                0x00815c04                _do_ctors
 .text          0x00815c68       0x64 D:/WorK/Synesthesia/wxp/synesthesia/sw_wxp/de1_limbus_bsp/\libchibios_v240_bsp.a(alt_do_dtors.o)
                0x00815c68                _do_dtors
 .text          0x00815ccc       0x1c D:/WorK/Synesthesia/wxp/synesthesia/sw_wxp/de1_limbus_bsp/\libchibios_v240_bsp.a(alt_icache_flush_all.o)
                0x00815ccc                alt_icache_flush_all
 .text          0x00815ce8      0x1d4 D:/WorK/Synesthesia/wxp/synesthesia/sw_wxp/de1_limbus_bsp/\libchibios_v240_bsp.a(alt_iic.o)
                0x00815ce8                alt_ic_isr_register
                0x00815d38                alt_ic_irq_enable
                0x00815dd4                alt_ic_irq_disable
                0x00815e74                alt_ic_irq_enabled
 .text          0x00815ebc       0xf8 D:/WorK/Synesthesia/wxp/synesthesia/sw_wxp/de1_limbus_bsp/\libchibios_v240_bsp.a(alt_iic_isr_register.o)
                0x00815ebc                alt_iic_isr_register
 .text          0x00815fb4      0x150 D:/WorK/Synesthesia/wxp/synesthesia/sw_wxp/de1_limbus_bsp/\libchibios_v240_bsp.a(alt_io_redirect.o)
                0x0081608c                alt_io_redirect
 .text          0x00816104        0x0 D:/WorK/Synesthesia/wxp/synesthesia/sw_wxp/de1_limbus_bsp/\libchibios_v240_bsp.a(alt_irq_entry.o)
 .text          0x00816104        0x0 D:/WorK/Synesthesia/wxp/synesthesia/sw_wxp/de1_limbus_bsp/\libchibios_v240_bsp.a(alt_irq_handler.o)
 .text          0x00816104        0x0 D:/WorK/Synesthesia/wxp/synesthesia/sw_wxp/de1_limbus_bsp/\libchibios_v240_bsp.a(alt_irq_vars.o)
 .text          0x00816104      0x2e4 D:/WorK/Synesthesia/wxp/synesthesia/sw_wxp/de1_limbus_bsp/\libchibios_v240_bsp.a(alt_open.o)
                0x008161fc                open
 .text          0x008163e8      0x1a8 D:/WorK/Synesthesia/wxp/synesthesia/sw_wxp/de1_limbus_bsp/\libchibios_v240_bsp.a(alt_tick.o)
                0x008163e8                alt_alarm_stop
                0x00816480                alt_tick
 .text          0x00816590       0x20 D:/WorK/Synesthesia/wxp/synesthesia/sw_wxp/de1_limbus_bsp/\libchibios_v240_bsp.a(altera_nios2_qsys_irq.o)
                0x00816590                altera_nios2_qsys_irq_init
 .text          0x008165b0       0x50 D:/WorK/Synesthesia/wxp/synesthesia/sw_wxp/de1_limbus_bsp/\libchibios_v240_bsp.a(chcore.o)
                0x008165b0                port_halt
                0x008165d8                port_time_tick
 .text          0x00816600        0x0 D:/WorK/Synesthesia/wxp/synesthesia/sw_wxp/de1_limbus_bsp/\libchibios_v240_bsp.a(alt_exception_entry.o)
 .text          0x00816600       0x94 D:/WorK/Synesthesia/wxp/synesthesia/sw_wxp/de1_limbus_bsp/\libchibios_v240_bsp.a(alt_find_dev.o)
                0x00816600                alt_find_dev
 .text          0x00816694      0x120 D:/WorK/Synesthesia/wxp/synesthesia/sw_wxp/de1_limbus_bsp/\libchibios_v240_bsp.a(alt_find_file.o)
                0x00816694                alt_find_file
 .text          0x008167b4       0xd0 D:/WorK/Synesthesia/wxp/synesthesia/sw_wxp/de1_limbus_bsp/\libchibios_v240_bsp.a(alt_get_fd.o)
                0x008167b4                alt_get_fd
 .text          0x00816884       0x14 c:/altera/11.1sp2/nios2eds/bin/gnu/h-i686-mingw32/bin/../lib/gcc/nios2-elf/4.1.2/../../../../nios2-elf/lib/mno-hw-mul\libc.a(lib_a-atexit.o)
                0x00816884                atexit
 .text          0x00816898       0x38 c:/altera/11.1sp2/nios2eds/bin/gnu/h-i686-mingw32/bin/../lib/gcc/nios2-elf/4.1.2/../../../../nios2-elf/lib/mno-hw-mul\libc.a(lib_a-exit.o)
                0x00816898                exit
 .text          0x008168d0      0x128 c:/altera/11.1sp2/nios2eds/bin/gnu/h-i686-mingw32/bin/../lib/gcc/nios2-elf/4.1.2/../../../../nios2-elf/lib/mno-hw-mul\libc.a(lib_a-getc.o)
                0x008168d0                getc
                0x00816968                _getc_r
 .text          0x008169f8       0x74 c:/altera/11.1sp2/nios2eds/bin/gnu/h-i686-mingw32/bin/../lib/gcc/nios2-elf/4.1.2/../../../../nios2-elf/lib/mno-hw-mul\libc.a(lib_a-memcmp.o)
                0x008169f8                memcmp
 .text          0x00816a6c      0x1ec c:/altera/11.1sp2/nios2eds/bin/gnu/h-i686-mingw32/bin/../lib/gcc/nios2-elf/4.1.2/../../../../nios2-elf/lib/mno-hw-mul\libc.a(lib_a-putc.o)
                0x00816a6c                putc
                0x00816b70                _putc_r
 .text          0x00816c58       0x60 c:/altera/11.1sp2/nios2eds/bin/gnu/h-i686-mingw32/bin/../lib/gcc/nios2-elf/4.1.2/../../../../nios2-elf/lib/mno-hw-mul\libc.a(lib_a-rget.o)
                0x00816c58                __srget_r
                0x00816ca4                __srget
 .text          0x00816cb8      0x14c c:/altera/11.1sp2/nios2eds/bin/gnu/h-i686-mingw32/bin/../lib/gcc/nios2-elf/4.1.2/../../../../nios2-elf/lib/mno-hw-mul\libc.a(lib_a-wbuf.o)
                0x00816cb8                __swbuf_r
                0x00816de8                __swbuf
 .text          0x00816e04      0x134 c:/altera/11.1sp2/nios2eds/bin/gnu/h-i686-mingw32/bin/../lib/gcc/nios2-elf/4.1.2/../../../../nios2-elf/lib/mno-hw-mul\libc.a(lib_a-__atexit.o)
                0x00816e04                __register_exitproc
 .text          0x00816f38      0x1b4 c:/altera/11.1sp2/nios2eds/bin/gnu/h-i686-mingw32/bin/../lib/gcc/nios2-elf/4.1.2/../../../../nios2-elf/lib/mno-hw-mul\libc.a(lib_a-__call_atexit.o)
                0x00816f3c                __call_exitprocs
 .text          0x008170ec      0x1e0 c:/altera/11.1sp2/nios2eds/bin/gnu/h-i686-mingw32/bin/../lib/gcc/nios2-elf/4.1.2/../../../../nios2-elf/lib/mno-hw-mul\libc.a(lib_a-refill.o)
                0x008170ec                __srefill_r
 .text          0x008172cc       0x88 c:/altera/11.1sp2/nios2eds/bin/gnu/h-i686-mingw32/bin/../lib/gcc/nios2-elf/4.1.2/mno-hw-mul\libgcc.a(_floatundidf.o)
                0x008172cc                __floatundidf
 .text          0x00817354       0x64 D:/WorK/Synesthesia/wxp/synesthesia/sw_wxp/de1_limbus_bsp/\libchibios_v240_bsp.a(alt_exit.o)
                0x00817394                _exit
 *(.gnu.warning.*)
 *(.fini)
                0x008173b8                PROVIDE (__etext, ABSOLUTE (.))
                0x008173b8                PROVIDE (_etext, ABSOLUTE (.))
                0x008173b8                PROVIDE (etext, ABSOLUTE (.))
 *(.eh_frame_hdr)
                0x008173b8                . = ALIGN (0x4)
                0x008173b8                PROVIDE (__preinit_array_start, ABSOLUTE (.))
 *(.preinit_array)
                0x008173b8                PROVIDE (__preinit_array_end, ABSOLUTE (.))
                0x008173b8                PROVIDE (__init_array_start, ABSOLUTE (.))
 *(.init_array)
                0x008173b8                PROVIDE (__init_array_end, ABSOLUTE (.))
                0x008173b8                PROVIDE (__fini_array_start, ABSOLUTE (.))
 *(.fini_array)
                0x008173b8                PROVIDE (__fini_array_end, ABSOLUTE (.))
 *(.eh_frame)
 .eh_frame      0x008173b8       0x40 c:/altera/11.1sp2/nios2eds/bin/gnu/h-i686-mingw32/bin/../lib/gcc/nios2-elf/4.1.2/mno-hw-mul\libgcc.a(_udivdi3.o)
 .eh_frame      0x008173f8       0x2c c:/altera/11.1sp2/nios2eds/bin/gnu/h-i686-mingw32/bin/../lib/gcc/nios2-elf/4.1.2/mno-hw-mul\libgcc.a(_umoddi3.o)
                                 0x40 (size before relaxing)
 *(.gcc_except_table)
 *(.dynamic)
                0x00817424                PROVIDE (__CTOR_LIST__, ABSOLUTE (.))
 *(.ctors)
 *(SORT(.ctors.*))
 .ctors.65535   0x00817424        0x4 c:/altera/11.1sp2/nios2eds/bin/gnu/h-i686-mingw32/bin/../lib/gcc/nios2-elf/4.1.2/../../../../nios2-elf/lib/mno-hw-mul\libc.a(lib_a-__call_atexit.o)
                0x00817428                PROVIDE (__CTOR_END__, ABSOLUTE (.))
                0x00817428                PROVIDE (__DTOR_LIST__, ABSOLUTE (.))
 *(.dtors)
 *(SORT(.dtors.*))
                0x00817428                PROVIDE (__DTOR_END__, ABSOLUTE (.))
 *(.jcr)
                0x00817428                . = ALIGN (0x4)

.rodata         0x00817428     0x1590
                0x00817428                PROVIDE (__ram_rodata_start, ABSOLUTE (.))
                0x00817428                . = ALIGN (0x4)
 *(.rodata .rodata.* .gnu.linkonce.r.*)
 .rodata.str1.4
                0x00817428       0x3b obj/default/ledos/codec/codec.o
                                 0x3c (size before relaxing)
 *fill*         0x00817463        0x1 00
 .rodata        0x00817464       0x18 obj/default/ledos/codec/codec.o
 .rodata.str1.4
                0x0081747c       0x49 obj/default/ledos/cortex/acortex/acortex.o
                                 0x4c (size before relaxing)
 *fill*         0x008174c5        0x3 00
 .rodata        0x008174c8       0x30 obj/default/ledos/cortex/acortex/dac/dac_drvr.o
 .rodata.str1.4
                0x008174f8       0x13 obj/default/ledos/cortex/cortex.o
                                 0x14 (size before relaxing)
 *fill*         0x0081750b        0x1 00
 .rodata.str1.4
                0x0081750c      0x307 obj/default/ledos/fatfs/ff.o
                                0x30c (size before relaxing)
 *fill*         0x00817813        0x1 00
 .rodata.str1.4
                0x00817814      0x489 obj/default/ledos/ledos.o
                                0x490 (size before relaxing)
 .rodata.str1.4
                0x00000000        0xc obj/default/ledos/lsd/lsd.o
 *fill*         0x00817c9d        0x3 00
 .rodata        0x00817ca0       0x10 obj/default/ledos/lsd/lsd.o
 .rodata.str1.4
                0x00817cb0      0x3f2 obj/default/ledos/shell/bash.o
                                0x400 (size before relaxing)
 *fill*         0x008180a2        0x2 00
 .rodata        0x008180a4       0x58 obj/default/ledos/shell/bash.o
 .rodata.str1.4
                0x008180fc      0x1bf obj/default/ledos/shell/shell.o
                                0x1d0 (size before relaxing)
 *fill*         0x008182bb        0x1 00
 .rodata        0x008182bc        0x4 obj/default/ledos/shell/shell.o
 .rodata.str1.4
                0x008182c0       0x19 obj/default/main.o
                                 0x1c (size before relaxing)
 *fill*         0x008182d9        0x3 00
 .rodata.str1.4
                0x008182dc       0x5a c:/altera/11.1sp2/nios2eds/bin/gnu/h-i686-mingw32/bin/../lib/gcc/nios2-elf/4.1.2/../../../../nios2-elf/lib/mno-hw-mul\libc.a(lib_a-vfprintf.o)
                                 0x60 (size before relaxing)
 .rodata        0x00818336       0x20 c:/altera/11.1sp2/nios2eds/bin/gnu/h-i686-mingw32/bin/../lib/gcc/nios2-elf/4.1.2/../../../../nios2-elf/lib/mno-hw-mul\libc.a(lib_a-vfprintf.o)
 .rodata        0x00818356      0x281 c:/altera/11.1sp2/nios2eds/bin/gnu/h-i686-mingw32/bin/../lib/gcc/nios2-elf/4.1.2/../../../../nios2-elf/lib/mno-hw-mul\libc.a(lib_a-ctype_.o)
                0x00818356                _ctype_
 *fill*         0x008185d7        0x1 00
 .rodata.str1.4
                0x008185d8       0x10 c:/altera/11.1sp2/nios2eds/bin/gnu/h-i686-mingw32/bin/../lib/gcc/nios2-elf/4.1.2/../../../../nios2-elf/lib/mno-hw-mul\libc.a(lib_a-dtoa.o)
                                 0x14 (size before relaxing)
 .rodata.str1.4
                0x008185e8        0x2 c:/altera/11.1sp2/nios2eds/bin/gnu/h-i686-mingw32/bin/../lib/gcc/nios2-elf/4.1.2/../../../../nios2-elf/lib/mno-hw-mul\libc.a(lib_a-impure.o)
                                  0x4 (size before relaxing)
 *fill*         0x008185ea        0x2 00
 .rodata.str1.4
                0x008185ec       0x10 c:/altera/11.1sp2/nios2eds/bin/gnu/h-i686-mingw32/bin/../lib/gcc/nios2-elf/4.1.2/../../../../nios2-elf/lib/mno-hw-mul\libc.a(lib_a-locale.o)
                                 0x18 (size before relaxing)
 .rodata        0x008185fc       0x30 c:/altera/11.1sp2/nios2eds/bin/gnu/h-i686-mingw32/bin/../lib/gcc/nios2-elf/4.1.2/../../../../nios2-elf/lib/mno-hw-mul\libc.a(lib_a-locale.o)
 .rodata        0x0081862c      0x124 c:/altera/11.1sp2/nios2eds/bin/gnu/h-i686-mingw32/bin/../lib/gcc/nios2-elf/4.1.2/../../../../nios2-elf/lib/mno-hw-mul\libc.a(lib_a-mprec.o)
                0x0081862c                __mprec_tens
                0x008186f4                __mprec_bigtens
                0x0081871c                __mprec_tinytens
 .rodata        0x00818750       0x14 c:/altera/11.1sp2/nios2eds/bin/gnu/h-i686-mingw32/bin/../lib/gcc/nios2-elf/4.1.2/mno-hw-mul\libgcc.a(_thenan_df.o)
                0x00818750                __thenan_df
 .rodata        0x00818764      0x100 c:/altera/11.1sp2/nios2eds/bin/gnu/h-i686-mingw32/bin/../lib/gcc/nios2-elf/4.1.2/mno-hw-mul\libgcc.a(_clz.o)
                0x00818764                __clz_tab
 .rodata        0x00818864        0xc D:/WorK/Synesthesia/wxp/synesthesia/sw_wxp/de1_limbus_bsp/\libchibios_v240_bsp.a(alt_dev.o)
 .rodata        0x00818870       0x1c D:/WorK/Synesthesia/wxp/synesthesia/sw_wxp/de1_limbus_bsp/\libchibios_v240_bsp.a(alt_main.o)
 .rodata        0x0081888c       0x1c D:/WorK/Synesthesia/wxp/synesthesia/sw_wxp/de1_limbus_bsp/\libchibios_v240_bsp.a(alt_sys_init.o)
 .rodata        0x008188a8      0x100 D:/WorK/Synesthesia/wxp/synesthesia/sw_wxp/de1_limbus_bsp/\libchibios_v240_bsp.a(perf_print_formatted_report.o)
 .rodata        0x008189a8       0x10 D:/WorK/Synesthesia/wxp/synesthesia/sw_wxp/de1_limbus_bsp/\libchibios_v240_bsp.a(chsys.o)
 *(.rodata1)
                0x008189b8                . = ALIGN (0x4)
                0x008189b8                PROVIDE (__ram_rodata_end, ABSOLUTE (.))
                0x00817428                PROVIDE (__flash_rodata_start, LOADADDR (.rodata))

.rwdata         0x008189b8     0x1b4c load address 0x0081a504
                0x008189b8                PROVIDE (__ram_rwdata_start, ABSOLUTE (.))
                0x008189b8                . = ALIGN (0x4)
 *(.got.plt)
 *(.got)
 *(.data1)
 *(.data .data.* .gnu.linkonce.d.*)
 .data          0x008189b8        0x0 D:/WorK/Synesthesia/wxp/synesthesia/sw_wxp/de1_limbus_bsp//obj/HAL/src/crt0.o
 .data          0x008189b8        0x0 obj/default/ledos/codec/codec.o
 .data          0x008189b8        0x0 obj/default/ledos/cortex/acortex/acortex.o
 .data          0x008189b8        0x0 obj/default/ledos/cortex/acortex/dac/dac_drvr.o
 .data          0x008189b8        0x0 obj/default/ledos/cortex/acortex/i2c/i2c_drvr.o
 .data          0x008189b8        0x0 obj/default/ledos/cortex/acortex/prsr/prsr.o
 .data          0x008189b8        0x0 obj/default/ledos/cortex/acortex/sram/sram.o
 .data          0x008189b8        0x0 obj/default/ledos/cortex/cortex.o
 .data          0x008189b8        0x0 obj/default/ledos/cortex/fgyrus/fgyrus.o
 .data          0x008189b8        0x0 obj/default/ledos/cortex/vcortex/vcortex.o
 .data          0x008189b8        0x0 obj/default/ledos/fatfs/diskio.o
 .data          0x008189b8        0x0 obj/default/ledos/fatfs/ff.o
 .data          0x008189b8        0x0 obj/default/ledos/fft_cache/fft_cache.o
 .data          0x008189b8        0x0 obj/default/ledos/ledos.o
 .data          0x008189b8        0x0 obj/default/ledos/lsd/lsd.o
 .data          0x008189b8        0x0 obj/default/ledos/shell/bash.o
 .data          0x008189b8       0x18 obj/default/ledos/shell/shell.o
 .data          0x008189d0        0x0 obj/default/main.o
 .data          0x008189d0        0x0 c:/altera/11.1sp2/nios2eds/bin/gnu/h-i686-mingw32/bin/../lib/gcc/nios2-elf/4.1.2/mno-hw-mul\libgcc.a(lib2-divmod.o)
 .data          0x008189d0        0x0 c:/altera/11.1sp2/nios2eds/bin/gnu/h-i686-mingw32/bin/../lib/gcc/nios2-elf/4.1.2/mno-hw-mul\libgcc.a(lib2-mul.o)
 .data          0x008189d0        0x0 c:/altera/11.1sp2/nios2eds/bin/gnu/h-i686-mingw32/bin/../lib/gcc/nios2-elf/4.1.2/../../../../nios2-elf/lib/mno-hw-mul\libc.a(lib_a-printf.o)
 .data          0x008189d0        0x0 c:/altera/11.1sp2/nios2eds/bin/gnu/h-i686-mingw32/bin/../lib/gcc/nios2-elf/4.1.2/../../../../nios2-elf/lib/mno-hw-mul\libc.a(lib_a-strcasecmp.o)
 .data          0x008189d0        0x0 c:/altera/11.1sp2/nios2eds/bin/gnu/h-i686-mingw32/bin/../lib/gcc/nios2-elf/4.1.2/../../../../nios2-elf/lib/mno-hw-mul\libc.a(lib_a-strpbrk.o)
 .data          0x008189d0        0x0 c:/altera/11.1sp2/nios2eds/bin/gnu/h-i686-mingw32/bin/../lib/gcc/nios2-elf/4.1.2/../../../../nios2-elf/lib/mno-hw-mul\libc.a(lib_a-strspn.o)
 .data          0x008189d0        0x0 c:/altera/11.1sp2/nios2eds/bin/gnu/h-i686-mingw32/bin/../lib/gcc/nios2-elf/4.1.2/../../../../nios2-elf/lib/mno-hw-mul\libc.a(lib_a-vfprintf.o)
 .data          0x008189d0        0x0 c:/altera/11.1sp2/nios2eds/bin/gnu/h-i686-mingw32/bin/../lib/gcc/nios2-elf/4.1.2/../../../../nios2-elf/lib/mno-hw-mul\libc.a(lib_a-wsetup.o)
 .data          0x008189d0        0x0 c:/altera/11.1sp2/nios2eds/bin/gnu/h-i686-mingw32/bin/../lib/gcc/nios2-elf/4.1.2/../../../../nios2-elf/lib/mno-hw-mul\libc.a(lib_a-ctype_.o)
 .data          0x008189d0        0x0 c:/altera/11.1sp2/nios2eds/bin/gnu/h-i686-mingw32/bin/../lib/gcc/nios2-elf/4.1.2/../../../../nios2-elf/lib/mno-hw-mul\libc.a(lib_a-dtoa.o)
 .data          0x008189d0        0x0 c:/altera/11.1sp2/nios2eds/bin/gnu/h-i686-mingw32/bin/../lib/gcc/nios2-elf/4.1.2/../../../../nios2-elf/lib/mno-hw-mul\libc.a(lib_a-fflush.o)
 .data          0x008189d0        0x0 c:/altera/11.1sp2/nios2eds/bin/gnu/h-i686-mingw32/bin/../lib/gcc/nios2-elf/4.1.2/../../../../nios2-elf/lib/mno-hw-mul\libc.a(lib_a-findfp.o)
 .data          0x008189d0        0x0 c:/altera/11.1sp2/nios2eds/bin/gnu/h-i686-mingw32/bin/../lib/gcc/nios2-elf/4.1.2/../../../../nios2-elf/lib/mno-hw-mul\libc.a(lib_a-freer.o)
 .data          0x008189d0        0x0 c:/altera/11.1sp2/nios2eds/bin/gnu/h-i686-mingw32/bin/../lib/gcc/nios2-elf/4.1.2/../../../../nios2-elf/lib/mno-hw-mul\libc.a(lib_a-fvwrite.o)
 .data          0x008189d0        0x0 c:/altera/11.1sp2/nios2eds/bin/gnu/h-i686-mingw32/bin/../lib/gcc/nios2-elf/4.1.2/../../../../nios2-elf/lib/mno-hw-mul\libc.a(lib_a-fwalk.o)
 .data          0x008189d0      0x400 c:/altera/11.1sp2/nios2eds/bin/gnu/h-i686-mingw32/bin/../lib/gcc/nios2-elf/4.1.2/../../../../nios2-elf/lib/mno-hw-mul\libc.a(lib_a-impure.o)
 .data          0x00818dd0        0xc c:/altera/11.1sp2/nios2eds/bin/gnu/h-i686-mingw32/bin/../lib/gcc/nios2-elf/4.1.2/../../../../nios2-elf/lib/mno-hw-mul\libc.a(lib_a-locale.o)
                0x00818dd0                __lc_ctype
 .data          0x00818ddc        0x0 c:/altera/11.1sp2/nios2eds/bin/gnu/h-i686-mingw32/bin/../lib/gcc/nios2-elf/4.1.2/../../../../nios2-elf/lib/mno-hw-mul\libc.a(lib_a-makebuf.o)
 .data          0x00818ddc      0x408 c:/altera/11.1sp2/nios2eds/bin/gnu/h-i686-mingw32/bin/../lib/gcc/nios2-elf/4.1.2/../../../../nios2-elf/lib/mno-hw-mul\libc.a(lib_a-mallocr.o)
                0x00818ddc                __malloc_av_
 .data          0x008191e4        0x0 c:/altera/11.1sp2/nios2eds/bin/gnu/h-i686-mingw32/bin/../lib/gcc/nios2-elf/4.1.2/../../../../nios2-elf/lib/mno-hw-mul\libc.a(lib_a-memchr.o)
 .data          0x008191e4        0x0 c:/altera/11.1sp2/nios2eds/bin/gnu/h-i686-mingw32/bin/../lib/gcc/nios2-elf/4.1.2/../../../../nios2-elf/lib/mno-hw-mul\libc.a(lib_a-memcpy.o)
 .data          0x008191e4        0x0 c:/altera/11.1sp2/nios2eds/bin/gnu/h-i686-mingw32/bin/../lib/gcc/nios2-elf/4.1.2/../../../../nios2-elf/lib/mno-hw-mul\libc.a(lib_a-memmove.o)
 .data          0x008191e4        0x0 c:/altera/11.1sp2/nios2eds/bin/gnu/h-i686-mingw32/bin/../lib/gcc/nios2-elf/4.1.2/../../../../nios2-elf/lib/mno-hw-mul\libc.a(lib_a-memset.o)
 .data          0x008191e4        0x0 c:/altera/11.1sp2/nios2eds/bin/gnu/h-i686-mingw32/bin/../lib/gcc/nios2-elf/4.1.2/../../../../nios2-elf/lib/mno-hw-mul\libc.a(lib_a-mprec.o)
 .data          0x008191e4        0x0 c:/altera/11.1sp2/nios2eds/bin/gnu/h-i686-mingw32/bin/../lib/gcc/nios2-elf/4.1.2/../../../../nios2-elf/lib/mno-hw-mul\libc.a(lib_a-reallocr.o)
 .data          0x008191e4        0x0 c:/altera/11.1sp2/nios2eds/bin/gnu/h-i686-mingw32/bin/../lib/gcc/nios2-elf/4.1.2/../../../../nios2-elf/lib/mno-hw-mul\libc.a(lib_a-s_isinfd.o)
 .data          0x008191e4        0x0 c:/altera/11.1sp2/nios2eds/bin/gnu/h-i686-mingw32/bin/../lib/gcc/nios2-elf/4.1.2/../../../../nios2-elf/lib/mno-hw-mul\libc.a(lib_a-s_isnand.o)
 .data          0x008191e4        0x0 c:/altera/11.1sp2/nios2eds/bin/gnu/h-i686-mingw32/bin/../lib/gcc/nios2-elf/4.1.2/../../../../nios2-elf/lib/mno-hw-mul\libc.a(lib_a-sbrkr.o)
 .data          0x008191e4        0x0 c:/altera/11.1sp2/nios2eds/bin/gnu/h-i686-mingw32/bin/../lib/gcc/nios2-elf/4.1.2/../../../../nios2-elf/lib/mno-hw-mul\libc.a(lib_a-stdio.o)
 .data          0x008191e4        0x0 c:/altera/11.1sp2/nios2eds/bin/gnu/h-i686-mingw32/bin/../lib/gcc/nios2-elf/4.1.2/../../../../nios2-elf/lib/mno-hw-mul\libc.a(lib_a-strcmp.o)
 .data          0x008191e4        0x0 c:/altera/11.1sp2/nios2eds/bin/gnu/h-i686-mingw32/bin/../lib/gcc/nios2-elf/4.1.2/../../../../nios2-elf/lib/mno-hw-mul\libc.a(lib_a-strlen.o)
 .data          0x008191e4        0x0 c:/altera/11.1sp2/nios2eds/bin/gnu/h-i686-mingw32/bin/../lib/gcc/nios2-elf/4.1.2/../../../../nios2-elf/lib/mno-hw-mul\libc.a(lib_a-writer.o)
 .data          0x008191e4        0x0 c:/altera/11.1sp2/nios2eds/bin/gnu/h-i686-mingw32/bin/../lib/gcc/nios2-elf/4.1.2/../../../../nios2-elf/lib/mno-hw-mul\libc.a(lib_a-callocr.o)
 .data          0x008191e4        0x0 c:/altera/11.1sp2/nios2eds/bin/gnu/h-i686-mingw32/bin/../lib/gcc/nios2-elf/4.1.2/../../../../nios2-elf/lib/mno-hw-mul\libc.a(lib_a-closer.o)
 .data          0x008191e4        0x0 c:/altera/11.1sp2/nios2eds/bin/gnu/h-i686-mingw32/bin/../lib/gcc/nios2-elf/4.1.2/../../../../nios2-elf/lib/mno-hw-mul\libc.a(lib_a-fclose.o)
 .data          0x008191e4        0x0 c:/altera/11.1sp2/nios2eds/bin/gnu/h-i686-mingw32/bin/../lib/gcc/nios2-elf/4.1.2/../../../../nios2-elf/lib/mno-hw-mul\libc.a(lib_a-fstatr.o)
 .data          0x008191e4        0x0 c:/altera/11.1sp2/nios2eds/bin/gnu/h-i686-mingw32/bin/../lib/gcc/nios2-elf/4.1.2/../../../../nios2-elf/lib/mno-hw-mul\libc.a(lib_a-int_errno.o)
 .data          0x008191e4        0x0 c:/altera/11.1sp2/nios2eds/bin/gnu/h-i686-mingw32/bin/../lib/gcc/nios2-elf/4.1.2/../../../../nios2-elf/lib/mno-hw-mul\libc.a(lib_a-isattyr.o)
 .data          0x008191e4        0x0 c:/altera/11.1sp2/nios2eds/bin/gnu/h-i686-mingw32/bin/../lib/gcc/nios2-elf/4.1.2/../../../../nios2-elf/lib/mno-hw-mul\libc.a(lib_a-lseekr.o)
 .data          0x008191e4        0x0 c:/altera/11.1sp2/nios2eds/bin/gnu/h-i686-mingw32/bin/../lib/gcc/nios2-elf/4.1.2/../../../../nios2-elf/lib/mno-hw-mul\libc.a(lib_a-readr.o)
 .data          0x008191e4        0x0 c:/altera/11.1sp2/nios2eds/bin/gnu/h-i686-mingw32/bin/../lib/gcc/nios2-elf/4.1.2/mno-hw-mul\libgcc.a(_udivdi3.o)
 .data          0x008191e4        0x0 c:/altera/11.1sp2/nios2eds/bin/gnu/h-i686-mingw32/bin/../lib/gcc/nios2-elf/4.1.2/mno-hw-mul\libgcc.a(_umoddi3.o)
 .data          0x008191e4        0x0 c:/altera/11.1sp2/nios2eds/bin/gnu/h-i686-mingw32/bin/../lib/gcc/nios2-elf/4.1.2/mno-hw-mul\libgcc.a(_addsub_df.o)
 .data          0x008191e4        0x0 c:/altera/11.1sp2/nios2eds/bin/gnu/h-i686-mingw32/bin/../lib/gcc/nios2-elf/4.1.2/mno-hw-mul\libgcc.a(_mul_df.o)
 .data          0x008191e4        0x0 c:/altera/11.1sp2/nios2eds/bin/gnu/h-i686-mingw32/bin/../lib/gcc/nios2-elf/4.1.2/mno-hw-mul\libgcc.a(_div_df.o)
 .data          0x008191e4        0x0 c:/altera/11.1sp2/nios2eds/bin/gnu/h-i686-mingw32/bin/../lib/gcc/nios2-elf/4.1.2/mno-hw-mul\libgcc.a(_eq_df.o)
 .data          0x008191e4        0x0 c:/altera/11.1sp2/nios2eds/bin/gnu/h-i686-mingw32/bin/../lib/gcc/nios2-elf/4.1.2/mno-hw-mul\libgcc.a(_ne_df.o)
 .data          0x008191e4        0x0 c:/altera/11.1sp2/nios2eds/bin/gnu/h-i686-mingw32/bin/../lib/gcc/nios2-elf/4.1.2/mno-hw-mul\libgcc.a(_gt_df.o)
 .data          0x008191e4        0x0 c:/altera/11.1sp2/nios2eds/bin/gnu/h-i686-mingw32/bin/../lib/gcc/nios2-elf/4.1.2/mno-hw-mul\libgcc.a(_ge_df.o)
 .data          0x008191e4        0x0 c:/altera/11.1sp2/nios2eds/bin/gnu/h-i686-mingw32/bin/../lib/gcc/nios2-elf/4.1.2/mno-hw-mul\libgcc.a(_lt_df.o)
 .data          0x008191e4        0x0 c:/altera/11.1sp2/nios2eds/bin/gnu/h-i686-mingw32/bin/../lib/gcc/nios2-elf/4.1.2/mno-hw-mul\libgcc.a(_si_to_df.o)
 .data          0x008191e4        0x0 c:/altera/11.1sp2/nios2eds/bin/gnu/h-i686-mingw32/bin/../lib/gcc/nios2-elf/4.1.2/mno-hw-mul\libgcc.a(_df_to_si.o)
 .data          0x008191e4        0x0 c:/altera/11.1sp2/nios2eds/bin/gnu/h-i686-mingw32/bin/../lib/gcc/nios2-elf/4.1.2/mno-hw-mul\libgcc.a(_thenan_df.o)
 .data          0x008191e4        0x0 c:/altera/11.1sp2/nios2eds/bin/gnu/h-i686-mingw32/bin/../lib/gcc/nios2-elf/4.1.2/mno-hw-mul\libgcc.a(_usi_to_df.o)
 .data          0x008191e4        0x0 c:/altera/11.1sp2/nios2eds/bin/gnu/h-i686-mingw32/bin/../lib/gcc/nios2-elf/4.1.2/mno-hw-mul\libgcc.a(_muldi3.o)
 .data          0x008191e4        0x0 c:/altera/11.1sp2/nios2eds/bin/gnu/h-i686-mingw32/bin/../lib/gcc/nios2-elf/4.1.2/mno-hw-mul\libgcc.a(_clz.o)
 .data          0x008191e4        0x0 c:/altera/11.1sp2/nios2eds/bin/gnu/h-i686-mingw32/bin/../lib/gcc/nios2-elf/4.1.2/mno-hw-mul\libgcc.a(_clzsi2.o)
 .data          0x008191e4        0x0 c:/altera/11.1sp2/nios2eds/bin/gnu/h-i686-mingw32/bin/../lib/gcc/nios2-elf/4.1.2/mno-hw-mul\libgcc.a(_pack_df.o)
 .data          0x008191e4        0x0 c:/altera/11.1sp2/nios2eds/bin/gnu/h-i686-mingw32/bin/../lib/gcc/nios2-elf/4.1.2/mno-hw-mul\libgcc.a(_unpack_df.o)
 .data          0x008191e4        0x0 c:/altera/11.1sp2/nios2eds/bin/gnu/h-i686-mingw32/bin/../lib/gcc/nios2-elf/4.1.2/mno-hw-mul\libgcc.a(_fpcmp_parts_df.o)
 .data          0x008191e4        0x0 D:/WorK/Synesthesia/wxp/synesthesia/sw_wxp/de1_limbus_bsp/\libchibios_v240_bsp.a(chdynamic.o)
 .data          0x008191e4        0x0 D:/WorK/Synesthesia/wxp/synesthesia/sw_wxp/de1_limbus_bsp/\libchibios_v240_bsp.a(chevents.o)
 .data          0x008191e4        0x0 D:/WorK/Synesthesia/wxp/synesthesia/sw_wxp/de1_limbus_bsp/\libchibios_v240_bsp.a(chheap.o)
 .data          0x008191e4        0x0 D:/WorK/Synesthesia/wxp/synesthesia/sw_wxp/de1_limbus_bsp/\libchibios_v240_bsp.a(chmemcore.o)
 .data          0x008191e4        0x0 D:/WorK/Synesthesia/wxp/synesthesia/sw_wxp/de1_limbus_bsp/\libchibios_v240_bsp.a(chmempools.o)
 .data          0x008191e4        0x0 D:/WorK/Synesthesia/wxp/synesthesia/sw_wxp/de1_limbus_bsp/\libchibios_v240_bsp.a(chmsg.o)
 .data          0x008191e4        0x0 D:/WorK/Synesthesia/wxp/synesthesia/sw_wxp/de1_limbus_bsp/\libchibios_v240_bsp.a(chmtx.o)
 .data          0x008191e4        0x0 D:/WorK/Synesthesia/wxp/synesthesia/sw_wxp/de1_limbus_bsp/\libchibios_v240_bsp.a(chschd.o)
 .data          0x008191e4        0x0 D:/WorK/Synesthesia/wxp/synesthesia/sw_wxp/de1_limbus_bsp/\libchibios_v240_bsp.a(chthreads.o)
 .data          0x008191e4        0x0 D:/WorK/Synesthesia/wxp/synesthesia/sw_wxp/de1_limbus_bsp/\libchibios_v240_bsp.a(chvt.o)
 .data          0x008191e4        0x0 D:/WorK/Synesthesia/wxp/synesthesia/sw_wxp/de1_limbus_bsp/\libchibios_v240_bsp.a(chcoreasm.o)
 .data          0x008191e4        0x0 D:/WorK/Synesthesia/wxp/synesthesia/sw_wxp/de1_limbus_bsp/\libchibios_v240_bsp.a(alt_close.o)
 .data          0x008191e4      0x1a8 D:/WorK/Synesthesia/wxp/synesthesia/sw_wxp/de1_limbus_bsp/\libchibios_v240_bsp.a(alt_dev.o)
                0x008191e4                alt_dev_null
                0x0081920c                alt_fd_list
 .data          0x0081938c        0x0 D:/WorK/Synesthesia/wxp/synesthesia/sw_wxp/de1_limbus_bsp/\libchibios_v240_bsp.a(alt_errno.o)
 .data          0x0081938c        0x0 D:/WorK/Synesthesia/wxp/synesthesia/sw_wxp/de1_limbus_bsp/\libchibios_v240_bsp.a(alt_fstat.o)
 .data          0x0081938c        0x0 D:/WorK/Synesthesia/wxp/synesthesia/sw_wxp/de1_limbus_bsp/\libchibios_v240_bsp.a(alt_getchar.o)
 .data          0x0081938c        0x0 D:/WorK/Synesthesia/wxp/synesthesia/sw_wxp/de1_limbus_bsp/\libchibios_v240_bsp.a(alt_isatty.o)
 .data          0x0081938c        0x0 D:/WorK/Synesthesia/wxp/synesthesia/sw_wxp/de1_limbus_bsp/\libchibios_v240_bsp.a(alt_load.o)
 .data          0x0081938c        0x0 D:/WorK/Synesthesia/wxp/synesthesia/sw_wxp/de1_limbus_bsp/\libchibios_v240_bsp.a(alt_lseek.o)
 .data          0x0081938c        0x0 D:/WorK/Synesthesia/wxp/synesthesia/sw_wxp/de1_limbus_bsp/\libchibios_v240_bsp.a(alt_main.o)
 .data          0x0081938c        0x0 D:/WorK/Synesthesia/wxp/synesthesia/sw_wxp/de1_limbus_bsp/\libchibios_v240_bsp.a(alt_malloc_lock.o)
 .data          0x0081938c        0x0 D:/WorK/Synesthesia/wxp/synesthesia/sw_wxp/de1_limbus_bsp/\libchibios_v240_bsp.a(alt_printf.o)
 .data          0x0081938c        0x0 D:/WorK/Synesthesia/wxp/synesthesia/sw_wxp/de1_limbus_bsp/\libchibios_v240_bsp.a(alt_putchar.o)
 .data          0x0081938c        0x0 D:/WorK/Synesthesia/wxp/synesthesia/sw_wxp/de1_limbus_bsp/\libchibios_v240_bsp.a(alt_read.o)
 .data          0x0081938c        0x0 D:/WorK/Synesthesia/wxp/synesthesia/sw_wxp/de1_limbus_bsp/\libchibios_v240_bsp.a(alt_release_fd.o)
 .data          0x0081938c        0x0 D:/WorK/Synesthesia/wxp/synesthesia/sw_wxp/de1_limbus_bsp/\libchibios_v240_bsp.a(alt_sbrk.o)
 .data          0x0081938c        0x0 D:/WorK/Synesthesia/wxp/synesthesia/sw_wxp/de1_limbus_bsp/\libchibios_v240_bsp.a(alt_write.o)
 .data          0x0081938c     0x1124 D:/WorK/Synesthesia/wxp/synesthesia/sw_wxp/de1_limbus_bsp/\libchibios_v240_bsp.a(alt_sys_init.o)
 .data          0x0081a4b0        0x0 D:/WorK/Synesthesia/wxp/synesthesia/sw_wxp/de1_limbus_bsp/\libchibios_v240_bsp.a(altera_avalon_jtag_uart_fd.o)
 .data          0x0081a4b0        0x0 D:/WorK/Synesthesia/wxp/synesthesia/sw_wxp/de1_limbus_bsp/\libchibios_v240_bsp.a(altera_avalon_jtag_uart_init.o)
 .data          0x0081a4b0        0x0 D:/WorK/Synesthesia/wxp/synesthesia/sw_wxp/de1_limbus_bsp/\libchibios_v240_bsp.a(altera_avalon_jtag_uart_ioctl.o)
 .data          0x0081a4b0        0x0 D:/WorK/Synesthesia/wxp/synesthesia/sw_wxp/de1_limbus_bsp/\libchibios_v240_bsp.a(altera_avalon_jtag_uart_read.o)
 .data          0x0081a4b0        0x0 D:/WorK/Synesthesia/wxp/synesthesia/sw_wxp/de1_limbus_bsp/\libchibios_v240_bsp.a(altera_avalon_jtag_uart_write.o)
 .data          0x0081a4b0        0x0 D:/WorK/Synesthesia/wxp/synesthesia/sw_wxp/de1_limbus_bsp/\libchibios_v240_bsp.a(altera_avalon_performance_counter.o)
 .data          0x0081a4b0        0x0 D:/WorK/Synesthesia/wxp/synesthesia/sw_wxp/de1_limbus_bsp/\libchibios_v240_bsp.a(altera_avalon_timer_sc.o)
 .data          0x0081a4b0        0x0 D:/WorK/Synesthesia/wxp/synesthesia/sw_wxp/de1_limbus_bsp/\libchibios_v240_bsp.a(altera_avalon_uart_fd.o)
 .data          0x0081a4b0        0x0 D:/WorK/Synesthesia/wxp/synesthesia/sw_wxp/de1_limbus_bsp/\libchibios_v240_bsp.a(altera_avalon_uart_init.o)
 .data          0x0081a4b0        0x0 D:/WorK/Synesthesia/wxp/synesthesia/sw_wxp/de1_limbus_bsp/\libchibios_v240_bsp.a(altera_avalon_uart_read.o)
 .data          0x0081a4b0        0x0 D:/WorK/Synesthesia/wxp/synesthesia/sw_wxp/de1_limbus_bsp/\libchibios_v240_bsp.a(altera_avalon_uart_write.o)
 .data          0x0081a4b0        0x0 D:/WorK/Synesthesia/wxp/synesthesia/sw_wxp/de1_limbus_bsp/\libchibios_v240_bsp.a(perf_print_formatted_report.o)
 .data          0x0081a4b0        0x0 D:/WorK/Synesthesia/wxp/synesthesia/sw_wxp/de1_limbus_bsp/\libchibios_v240_bsp.a(chsys.o)
 .data          0x0081a4b0        0x0 D:/WorK/Synesthesia/wxp/synesthesia/sw_wxp/de1_limbus_bsp/\libchibios_v240_bsp.a(alt_alarm_start.o)
 .data          0x0081a4b0        0x0 D:/WorK/Synesthesia/wxp/synesthesia/sw_wxp/de1_limbus_bsp/\libchibios_v240_bsp.a(alt_dcache_flush_all.o)
 .data          0x0081a4b0        0x0 D:/WorK/Synesthesia/wxp/synesthesia/sw_wxp/de1_limbus_bsp/\libchibios_v240_bsp.a(alt_dev_llist_insert.o)
 .data          0x0081a4b0        0x0 D:/WorK/Synesthesia/wxp/synesthesia/sw_wxp/de1_limbus_bsp/\libchibios_v240_bsp.a(alt_do_ctors.o)
 .data          0x0081a4b0        0x0 D:/WorK/Synesthesia/wxp/synesthesia/sw_wxp/de1_limbus_bsp/\libchibios_v240_bsp.a(alt_do_dtors.o)
 .data          0x0081a4b0        0x0 D:/WorK/Synesthesia/wxp/synesthesia/sw_wxp/de1_limbus_bsp/\libchibios_v240_bsp.a(alt_icache_flush_all.o)
 .data          0x0081a4b0        0x0 D:/WorK/Synesthesia/wxp/synesthesia/sw_wxp/de1_limbus_bsp/\libchibios_v240_bsp.a(alt_iic.o)
 .data          0x0081a4b0        0x0 D:/WorK/Synesthesia/wxp/synesthesia/sw_wxp/de1_limbus_bsp/\libchibios_v240_bsp.a(alt_iic_isr_register.o)
 .data          0x0081a4b0        0x0 D:/WorK/Synesthesia/wxp/synesthesia/sw_wxp/de1_limbus_bsp/\libchibios_v240_bsp.a(alt_io_redirect.o)
 .data          0x0081a4b0        0x0 D:/WorK/Synesthesia/wxp/synesthesia/sw_wxp/de1_limbus_bsp/\libchibios_v240_bsp.a(alt_irq_entry.o)
 .data          0x0081a4b0        0x0 D:/WorK/Synesthesia/wxp/synesthesia/sw_wxp/de1_limbus_bsp/\libchibios_v240_bsp.a(alt_irq_handler.o)
 .data          0x0081a4b0        0x0 D:/WorK/Synesthesia/wxp/synesthesia/sw_wxp/de1_limbus_bsp/\libchibios_v240_bsp.a(alt_irq_vars.o)
 .data          0x0081a4b0        0x0 D:/WorK/Synesthesia/wxp/synesthesia/sw_wxp/de1_limbus_bsp/\libchibios_v240_bsp.a(alt_open.o)
 .data          0x0081a4b0        0x0 D:/WorK/Synesthesia/wxp/synesthesia/sw_wxp/de1_limbus_bsp/\libchibios_v240_bsp.a(alt_tick.o)
 .data          0x0081a4b0        0x0 D:/WorK/Synesthesia/wxp/synesthesia/sw_wxp/de1_limbus_bsp/\libchibios_v240_bsp.a(altera_nios2_qsys_irq.o)
 .data          0x0081a4b0        0x0 D:/WorK/Synesthesia/wxp/synesthesia/sw_wxp/de1_limbus_bsp/\libchibios_v240_bsp.a(chcore.o)
 .data          0x0081a4b0        0x0 D:/WorK/Synesthesia/wxp/synesthesia/sw_wxp/de1_limbus_bsp/\libchibios_v240_bsp.a(alt_exception_entry.o)
 .data          0x0081a4b0        0x0 D:/WorK/Synesthesia/wxp/synesthesia/sw_wxp/de1_limbus_bsp/\libchibios_v240_bsp.a(alt_find_dev.o)
 .data          0x0081a4b0        0x0 D:/WorK/Synesthesia/wxp/synesthesia/sw_wxp/de1_limbus_bsp/\libchibios_v240_bsp.a(alt_find_file.o)
 .data          0x0081a4b0        0x0 D:/WorK/Synesthesia/wxp/synesthesia/sw_wxp/de1_limbus_bsp/\libchibios_v240_bsp.a(alt_get_fd.o)
 .data          0x0081a4b0        0x0 c:/altera/11.1sp2/nios2eds/bin/gnu/h-i686-mingw32/bin/../lib/gcc/nios2-elf/4.1.2/../../../../nios2-elf/lib/mno-hw-mul\libc.a(lib_a-atexit.o)
 .data          0x0081a4b0        0x0 c:/altera/11.1sp2/nios2eds/bin/gnu/h-i686-mingw32/bin/../lib/gcc/nios2-elf/4.1.2/../../../../nios2-elf/lib/mno-hw-mul\libc.a(lib_a-exit.o)
 .data          0x0081a4b0        0x0 c:/altera/11.1sp2/nios2eds/bin/gnu/h-i686-mingw32/bin/../lib/gcc/nios2-elf/4.1.2/../../../../nios2-elf/lib/mno-hw-mul\libc.a(lib_a-getc.o)
 .data          0x0081a4b0        0x0 c:/altera/11.1sp2/nios2eds/bin/gnu/h-i686-mingw32/bin/../lib/gcc/nios2-elf/4.1.2/../../../../nios2-elf/lib/mno-hw-mul\libc.a(lib_a-memcmp.o)
 .data          0x0081a4b0        0x0 c:/altera/11.1sp2/nios2eds/bin/gnu/h-i686-mingw32/bin/../lib/gcc/nios2-elf/4.1.2/../../../../nios2-elf/lib/mno-hw-mul\libc.a(lib_a-putc.o)
 .data          0x0081a4b0        0x0 c:/altera/11.1sp2/nios2eds/bin/gnu/h-i686-mingw32/bin/../lib/gcc/nios2-elf/4.1.2/../../../../nios2-elf/lib/mno-hw-mul\libc.a(lib_a-rget.o)
 .data          0x0081a4b0        0x0 c:/altera/11.1sp2/nios2eds/bin/gnu/h-i686-mingw32/bin/../lib/gcc/nios2-elf/4.1.2/../../../../nios2-elf/lib/mno-hw-mul\libc.a(lib_a-wbuf.o)
 .data          0x0081a4b0        0x0 c:/altera/11.1sp2/nios2eds/bin/gnu/h-i686-mingw32/bin/../lib/gcc/nios2-elf/4.1.2/../../../../nios2-elf/lib/mno-hw-mul\libc.a(lib_a-__atexit.o)
 .data          0x0081a4b0        0x0 c:/altera/11.1sp2/nios2eds/bin/gnu/h-i686-mingw32/bin/../lib/gcc/nios2-elf/4.1.2/../../../../nios2-elf/lib/mno-hw-mul\libc.a(lib_a-__call_atexit.o)
 .data          0x0081a4b0        0x0 c:/altera/11.1sp2/nios2eds/bin/gnu/h-i686-mingw32/bin/../lib/gcc/nios2-elf/4.1.2/../../../../nios2-elf/lib/mno-hw-mul\libc.a(lib_a-refill.o)
 .data          0x0081a4b0        0x0 c:/altera/11.1sp2/nios2eds/bin/gnu/h-i686-mingw32/bin/../lib/gcc/nios2-elf/4.1.2/mno-hw-mul\libgcc.a(_floatundidf.o)
 .data          0x0081a4b0        0x0 D:/WorK/Synesthesia/wxp/synesthesia/sw_wxp/de1_limbus_bsp/\libchibios_v240_bsp.a(alt_exit.o)
                0x008224b0                _gp = ABSOLUTE ((. + 0x8000))
                0x008224b0                PROVIDE (gp, _gp)
 *(.rwdata .rwdata.*)
 *(.sdata .sdata.* .gnu.linkonce.s.*)
 .sdata         0x0081a4b0        0x8 obj/default/ledos/codec/codec.o
 .sdata         0x0081a4b8        0x1 obj/default/ledos/fatfs/diskio.o
 *fill*         0x0081a4b9        0x3 00
 .sdata         0x0081a4bc        0x4 obj/default/ledos/shell/bash.o
 .sdata         0x0081a4c0        0x4 c:/altera/11.1sp2/nios2eds/bin/gnu/h-i686-mingw32/bin/../lib/gcc/nios2-elf/4.1.2/../../../../nios2-elf/lib/mno-hw-mul\libc.a(lib_a-ctype_.o)
                0x0081a4c0                __ctype_ptr
 .sdata         0x0081a4c4        0x8 c:/altera/11.1sp2/nios2eds/bin/gnu/h-i686-mingw32/bin/../lib/gcc/nios2-elf/4.1.2/../../../../nios2-elf/lib/mno-hw-mul\libc.a(lib_a-impure.o)
                0x0081a4c4                _impure_ptr
                0x0081a4c8                _global_impure_ptr
 .sdata         0x0081a4cc        0x8 c:/altera/11.1sp2/nios2eds/bin/gnu/h-i686-mingw32/bin/../lib/gcc/nios2-elf/4.1.2/../../../../nios2-elf/lib/mno-hw-mul\libc.a(lib_a-locale.o)
                0x0081a4cc                __mb_cur_max
 .sdata         0x0081a4d4        0x8 c:/altera/11.1sp2/nios2eds/bin/gnu/h-i686-mingw32/bin/../lib/gcc/nios2-elf/4.1.2/../../../../nios2-elf/lib/mno-hw-mul\libc.a(lib_a-mallocr.o)
                0x0081a4d4                __malloc_trim_threshold
                0x0081a4d8                __malloc_sbrk_base
 .sdata         0x0081a4dc       0x14 D:/WorK/Synesthesia/wxp/synesthesia/sw_wxp/de1_limbus_bsp/\libchibios_v240_bsp.a(alt_dev.o)
                0x0081a4dc                alt_fs_list
                0x0081a4e4                alt_dev_list
                0x0081a4ec                alt_max_fd
 .sdata         0x0081a4f0        0x4 D:/WorK/Synesthesia/wxp/synesthesia/sw_wxp/de1_limbus_bsp/\libchibios_v240_bsp.a(alt_errno.o)
                0x0081a4f0                alt_errno
 .sdata         0x0081a4f4        0x4 D:/WorK/Synesthesia/wxp/synesthesia/sw_wxp/de1_limbus_bsp/\libchibios_v240_bsp.a(alt_sbrk.o)
 .sdata         0x0081a4f8        0x4 D:/WorK/Synesthesia/wxp/synesthesia/sw_wxp/de1_limbus_bsp/\libchibios_v240_bsp.a(alt_irq_vars.o)
                0x0081a4f8                alt_priority_mask
 .sdata         0x0081a4fc        0x8 D:/WorK/Synesthesia/wxp/synesthesia/sw_wxp/de1_limbus_bsp/\libchibios_v240_bsp.a(alt_tick.o)
                0x0081a4fc                alt_alarm_list
 *(.sdata2 .sdata2.* .gnu.linkonce.s2.*)
                0x0081a504                . = ALIGN (0x4)
                0x0081a504                _edata = ABSOLUTE (.)
                0x0081a504                PROVIDE (edata, ABSOLUTE (.))
                0x0081a504                PROVIDE (__ram_rwdata_end, ABSOLUTE (.))
                0x0081a504                PROVIDE (__flash_rwdata_start, LOADADDR (.rwdata))

.bss            0x0081c050    0x22ea0
                0x0081c050                __bss_start = ABSOLUTE (.)
                0x0081c050                PROVIDE (__sbss_start, ABSOLUTE (.))
                0x0081c050                PROVIDE (___sbss_start, ABSOLUTE (.))
 *(.dynsbss)
 *(.sbss .sbss.* .gnu.linkonce.sb.*)
 .sbss          0x0081c050        0x1 obj/default/ledos/fatfs/diskio.o
 *fill*         0x0081c051        0x3 00
 .sbss          0x0081c054        0x8 obj/default/ledos/fatfs/ff.o
 .sbss          0x0081c05c        0x4 obj/default/ledos/ledos.o
 .sbss          0x0081c060       0x10 obj/default/ledos/shell/bash.o
 .sbss          0x0081c070        0x4 obj/default/ledos/shell/bash.o
                0x0081c070                bash_rc
 .sbss          0x0081c074        0x4 obj/default/ledos/shell/shell.o
                0x0081c074                shell_terminated
 .sbss          0x0081c078        0xc c:/altera/11.1sp2/nios2eds/bin/gnu/h-i686-mingw32/bin/../lib/gcc/nios2-elf/4.1.2/../../../../nios2-elf/lib/mno-hw-mul\libc.a(lib_a-locale.o)
                0x0081c078                __nlocale_changed
                0x0081c07c                __mlocale_changed
                0x0081c080                _PathLocale
 .sbss          0x0081c084        0xc c:/altera/11.1sp2/nios2eds/bin/gnu/h-i686-mingw32/bin/../lib/gcc/nios2-elf/4.1.2/../../../../nios2-elf/lib/mno-hw-mul\libc.a(lib_a-mallocr.o)
                0x0081c084                __malloc_top_pad
                0x0081c088                __malloc_max_sbrked_mem
                0x0081c08c                __malloc_max_total_mem
 .sbss          0x0081c090        0x4 c:/altera/11.1sp2/nios2eds/bin/gnu/h-i686-mingw32/bin/../lib/gcc/nios2-elf/4.1.2/../../../../nios2-elf/lib/mno-hw-mul\libc.a(lib_a-int_errno.o)
                0x0081c090                errno
 .sbss          0x0081c094        0x8 D:/WorK/Synesthesia/wxp/synesthesia/sw_wxp/de1_limbus_bsp/\libchibios_v240_bsp.a(chmemcore.o)
 .sbss          0x0081c09c        0xc D:/WorK/Synesthesia/wxp/synesthesia/sw_wxp/de1_limbus_bsp/\libchibios_v240_bsp.a(alt_main.o)
                0x0081c09c                alt_argc
                0x0081c0a0                alt_argv
                0x0081c0a4                alt_envp
 .sbss          0x0081c0a8        0x4 D:/WorK/Synesthesia/wxp/synesthesia/sw_wxp/de1_limbus_bsp/\libchibios_v240_bsp.a(alt_irq_vars.o)
                0x0081c0a8                alt_irq_active
 .sbss          0x0081c0ac        0x8 D:/WorK/Synesthesia/wxp/synesthesia/sw_wxp/de1_limbus_bsp/\libchibios_v240_bsp.a(alt_tick.o)
                0x0081c0ac                _alt_tick_rate
                0x0081c0b0                _alt_nticks
 *(.sbss2 .sbss2.* .gnu.linkonce.sb2.*)
 *(.scommon)
                0x0081c0b4                PROVIDE (__sbss_end, ABSOLUTE (.))
                0x0081c0b4                PROVIDE (___sbss_end, ABSOLUTE (.))
 *(.dynbss)
 *(.bss .bss.* .gnu.linkonce.b.*)
 .bss           0x0081c0b4        0x0 D:/WorK/Synesthesia/wxp/synesthesia/sw_wxp/de1_limbus_bsp//obj/HAL/src/crt0.o
 .bss           0x0081c0b4       0x16 obj/default/ledos/codec/codec.o
 .bss           0x0081c0ca        0x0 obj/default/ledos/cortex/acortex/acortex.o
 .bss           0x0081c0ca        0x0 obj/default/ledos/cortex/acortex/dac/dac_drvr.o
 .bss           0x0081c0ca        0x0 obj/default/ledos/cortex/acortex/i2c/i2c_drvr.o
 .bss           0x0081c0ca        0x0 obj/default/ledos/cortex/acortex/prsr/prsr.o
 .bss           0x0081c0ca        0x0 obj/default/ledos/cortex/acortex/sram/sram.o
 .bss           0x0081c0ca        0x0 obj/default/ledos/cortex/cortex.o
 .bss           0x0081c0ca        0x0 obj/default/ledos/cortex/fgyrus/fgyrus.o
 .bss           0x0081c0ca        0x0 obj/default/ledos/cortex/vcortex/vcortex.o
 .bss           0x0081c0ca        0x0 obj/default/ledos/fatfs/diskio.o
 .bss           0x0081c0ca        0x0 obj/default/ledos/fatfs/ff.o
 .bss           0x0081c0ca        0x0 obj/default/ledos/fft_cache/fft_cache.o
 *fill*         0x0081c0ca        0x2 00
 .bss           0x0081c0cc    0x12680 obj/default/ledos/ledos.o
 .bss           0x0082e74c        0x0 obj/default/ledos/lsd/lsd.o
 .bss           0x0082e74c        0x0 obj/default/ledos/shell/bash.o
 .bss           0x0082e74c        0x0 obj/default/ledos/shell/shell.o
 .bss           0x0082e74c        0x0 obj/default/main.o
 .bss           0x0082e74c        0x0 c:/altera/11.1sp2/nios2eds/bin/gnu/h-i686-mingw32/bin/../lib/gcc/nios2-elf/4.1.2/mno-hw-mul\libgcc.a(lib2-divmod.o)
 .bss           0x0082e74c        0x0 c:/altera/11.1sp2/nios2eds/bin/gnu/h-i686-mingw32/bin/../lib/gcc/nios2-elf/4.1.2/mno-hw-mul\libgcc.a(lib2-mul.o)
 .bss           0x0082e74c        0x0 c:/altera/11.1sp2/nios2eds/bin/gnu/h-i686-mingw32/bin/../lib/gcc/nios2-elf/4.1.2/../../../../nios2-elf/lib/mno-hw-mul\libc.a(lib_a-printf.o)
 .bss           0x0082e74c        0x0 c:/altera/11.1sp2/nios2eds/bin/gnu/h-i686-mingw32/bin/../lib/gcc/nios2-elf/4.1.2/../../../../nios2-elf/lib/mno-hw-mul\libc.a(lib_a-strcasecmp.o)
 .bss           0x0082e74c        0x0 c:/altera/11.1sp2/nios2eds/bin/gnu/h-i686-mingw32/bin/../lib/gcc/nios2-elf/4.1.2/../../../../nios2-elf/lib/mno-hw-mul\libc.a(lib_a-strpbrk.o)
 .bss           0x0082e74c        0x0 c:/altera/11.1sp2/nios2eds/bin/gnu/h-i686-mingw32/bin/../lib/gcc/nios2-elf/4.1.2/../../../../nios2-elf/lib/mno-hw-mul\libc.a(lib_a-strspn.o)
 .bss           0x0082e74c        0x0 c:/altera/11.1sp2/nios2eds/bin/gnu/h-i686-mingw32/bin/../lib/gcc/nios2-elf/4.1.2/../../../../nios2-elf/lib/mno-hw-mul\libc.a(lib_a-vfprintf.o)
 .bss           0x0082e74c        0x0 c:/altera/11.1sp2/nios2eds/bin/gnu/h-i686-mingw32/bin/../lib/gcc/nios2-elf/4.1.2/../../../../nios2-elf/lib/mno-hw-mul\libc.a(lib_a-wsetup.o)
 .bss           0x0082e74c        0x0 c:/altera/11.1sp2/nios2eds/bin/gnu/h-i686-mingw32/bin/../lib/gcc/nios2-elf/4.1.2/../../../../nios2-elf/lib/mno-hw-mul\libc.a(lib_a-ctype_.o)
 .bss           0x0082e74c        0x0 c:/altera/11.1sp2/nios2eds/bin/gnu/h-i686-mingw32/bin/../lib/gcc/nios2-elf/4.1.2/../../../../nios2-elf/lib/mno-hw-mul\libc.a(lib_a-dtoa.o)
 .bss           0x0082e74c        0x0 c:/altera/11.1sp2/nios2eds/bin/gnu/h-i686-mingw32/bin/../lib/gcc/nios2-elf/4.1.2/../../../../nios2-elf/lib/mno-hw-mul\libc.a(lib_a-fflush.o)
 .bss           0x0082e74c        0x0 c:/altera/11.1sp2/nios2eds/bin/gnu/h-i686-mingw32/bin/../lib/gcc/nios2-elf/4.1.2/../../../../nios2-elf/lib/mno-hw-mul\libc.a(lib_a-findfp.o)
 .bss           0x0082e74c        0x0 c:/altera/11.1sp2/nios2eds/bin/gnu/h-i686-mingw32/bin/../lib/gcc/nios2-elf/4.1.2/../../../../nios2-elf/lib/mno-hw-mul\libc.a(lib_a-freer.o)
 .bss           0x0082e74c        0x0 c:/altera/11.1sp2/nios2eds/bin/gnu/h-i686-mingw32/bin/../lib/gcc/nios2-elf/4.1.2/../../../../nios2-elf/lib/mno-hw-mul\libc.a(lib_a-fvwrite.o)
 .bss           0x0082e74c        0x0 c:/altera/11.1sp2/nios2eds/bin/gnu/h-i686-mingw32/bin/../lib/gcc/nios2-elf/4.1.2/../../../../nios2-elf/lib/mno-hw-mul\libc.a(lib_a-fwalk.o)
 .bss           0x0082e74c        0x0 c:/altera/11.1sp2/nios2eds/bin/gnu/h-i686-mingw32/bin/../lib/gcc/nios2-elf/4.1.2/../../../../nios2-elf/lib/mno-hw-mul\libc.a(lib_a-impure.o)
 .bss           0x0082e74c        0x0 c:/altera/11.1sp2/nios2eds/bin/gnu/h-i686-mingw32/bin/../lib/gcc/nios2-elf/4.1.2/../../../../nios2-elf/lib/mno-hw-mul\libc.a(lib_a-locale.o)
 .bss           0x0082e74c        0x0 c:/altera/11.1sp2/nios2eds/bin/gnu/h-i686-mingw32/bin/../lib/gcc/nios2-elf/4.1.2/../../../../nios2-elf/lib/mno-hw-mul\libc.a(lib_a-makebuf.o)
 .bss           0x0082e74c       0x28 c:/altera/11.1sp2/nios2eds/bin/gnu/h-i686-mingw32/bin/../lib/gcc/nios2-elf/4.1.2/../../../../nios2-elf/lib/mno-hw-mul\libc.a(lib_a-mallocr.o)
                0x0082e74c                __malloc_current_mallinfo
 .bss           0x0082e774        0x0 c:/altera/11.1sp2/nios2eds/bin/gnu/h-i686-mingw32/bin/../lib/gcc/nios2-elf/4.1.2/../../../../nios2-elf/lib/mno-hw-mul\libc.a(lib_a-memchr.o)
 .bss           0x0082e774        0x0 c:/altera/11.1sp2/nios2eds/bin/gnu/h-i686-mingw32/bin/../lib/gcc/nios2-elf/4.1.2/../../../../nios2-elf/lib/mno-hw-mul\libc.a(lib_a-memcpy.o)
 .bss           0x0082e774        0x0 c:/altera/11.1sp2/nios2eds/bin/gnu/h-i686-mingw32/bin/../lib/gcc/nios2-elf/4.1.2/../../../../nios2-elf/lib/mno-hw-mul\libc.a(lib_a-memmove.o)
 .bss           0x0082e774        0x0 c:/altera/11.1sp2/nios2eds/bin/gnu/h-i686-mingw32/bin/../lib/gcc/nios2-elf/4.1.2/../../../../nios2-elf/lib/mno-hw-mul\libc.a(lib_a-memset.o)
 .bss           0x0082e774        0x0 c:/altera/11.1sp2/nios2eds/bin/gnu/h-i686-mingw32/bin/../lib/gcc/nios2-elf/4.1.2/../../../../nios2-elf/lib/mno-hw-mul\libc.a(lib_a-mprec.o)
 .bss           0x0082e774        0x0 c:/altera/11.1sp2/nios2eds/bin/gnu/h-i686-mingw32/bin/../lib/gcc/nios2-elf/4.1.2/../../../../nios2-elf/lib/mno-hw-mul\libc.a(lib_a-reallocr.o)
 .bss           0x0082e774        0x0 c:/altera/11.1sp2/nios2eds/bin/gnu/h-i686-mingw32/bin/../lib/gcc/nios2-elf/4.1.2/../../../../nios2-elf/lib/mno-hw-mul\libc.a(lib_a-s_isinfd.o)
 .bss           0x0082e774        0x0 c:/altera/11.1sp2/nios2eds/bin/gnu/h-i686-mingw32/bin/../lib/gcc/nios2-elf/4.1.2/../../../../nios2-elf/lib/mno-hw-mul\libc.a(lib_a-s_isnand.o)
 .bss           0x0082e774        0x0 c:/altera/11.1sp2/nios2eds/bin/gnu/h-i686-mingw32/bin/../lib/gcc/nios2-elf/4.1.2/../../../../nios2-elf/lib/mno-hw-mul\libc.a(lib_a-sbrkr.o)
 .bss           0x0082e774        0x0 c:/altera/11.1sp2/nios2eds/bin/gnu/h-i686-mingw32/bin/../lib/gcc/nios2-elf/4.1.2/../../../../nios2-elf/lib/mno-hw-mul\libc.a(lib_a-stdio.o)
 .bss           0x0082e774        0x0 c:/altera/11.1sp2/nios2eds/bin/gnu/h-i686-mingw32/bin/../lib/gcc/nios2-elf/4.1.2/../../../../nios2-elf/lib/mno-hw-mul\libc.a(lib_a-strcmp.o)
 .bss           0x0082e774        0x0 c:/altera/11.1sp2/nios2eds/bin/gnu/h-i686-mingw32/bin/../lib/gcc/nios2-elf/4.1.2/../../../../nios2-elf/lib/mno-hw-mul\libc.a(lib_a-strlen.o)
 .bss           0x0082e774        0x0 c:/altera/11.1sp2/nios2eds/bin/gnu/h-i686-mingw32/bin/../lib/gcc/nios2-elf/4.1.2/../../../../nios2-elf/lib/mno-hw-mul\libc.a(lib_a-writer.o)
 .bss           0x0082e774        0x0 c:/altera/11.1sp2/nios2eds/bin/gnu/h-i686-mingw32/bin/../lib/gcc/nios2-elf/4.1.2/../../../../nios2-elf/lib/mno-hw-mul\libc.a(lib_a-callocr.o)
 .bss           0x0082e774        0x0 c:/altera/11.1sp2/nios2eds/bin/gnu/h-i686-mingw32/bin/../lib/gcc/nios2-elf/4.1.2/../../../../nios2-elf/lib/mno-hw-mul\libc.a(lib_a-closer.o)
 .bss           0x0082e774        0x0 c:/altera/11.1sp2/nios2eds/bin/gnu/h-i686-mingw32/bin/../lib/gcc/nios2-elf/4.1.2/../../../../nios2-elf/lib/mno-hw-mul\libc.a(lib_a-fclose.o)
 .bss           0x0082e774        0x0 c:/altera/11.1sp2/nios2eds/bin/gnu/h-i686-mingw32/bin/../lib/gcc/nios2-elf/4.1.2/../../../../nios2-elf/lib/mno-hw-mul\libc.a(lib_a-fstatr.o)
 .bss           0x0082e774        0x0 c:/altera/11.1sp2/nios2eds/bin/gnu/h-i686-mingw32/bin/../lib/gcc/nios2-elf/4.1.2/../../../../nios2-elf/lib/mno-hw-mul\libc.a(lib_a-int_errno.o)
 .bss           0x0082e774        0x0 c:/altera/11.1sp2/nios2eds/bin/gnu/h-i686-mingw32/bin/../lib/gcc/nios2-elf/4.1.2/../../../../nios2-elf/lib/mno-hw-mul\libc.a(lib_a-isattyr.o)
 .bss           0x0082e774        0x0 c:/altera/11.1sp2/nios2eds/bin/gnu/h-i686-mingw32/bin/../lib/gcc/nios2-elf/4.1.2/../../../../nios2-elf/lib/mno-hw-mul\libc.a(lib_a-lseekr.o)
 .bss           0x0082e774        0x0 c:/altera/11.1sp2/nios2eds/bin/gnu/h-i686-mingw32/bin/../lib/gcc/nios2-elf/4.1.2/../../../../nios2-elf/lib/mno-hw-mul\libc.a(lib_a-readr.o)
 .bss           0x0082e774        0x0 c:/altera/11.1sp2/nios2eds/bin/gnu/h-i686-mingw32/bin/../lib/gcc/nios2-elf/4.1.2/mno-hw-mul\libgcc.a(_udivdi3.o)
 .bss           0x0082e774        0x0 c:/altera/11.1sp2/nios2eds/bin/gnu/h-i686-mingw32/bin/../lib/gcc/nios2-elf/4.1.2/mno-hw-mul\libgcc.a(_umoddi3.o)
 .bss           0x0082e774        0x0 c:/altera/11.1sp2/nios2eds/bin/gnu/h-i686-mingw32/bin/../lib/gcc/nios2-elf/4.1.2/mno-hw-mul\libgcc.a(_addsub_df.o)
 .bss           0x0082e774        0x0 c:/altera/11.1sp2/nios2eds/bin/gnu/h-i686-mingw32/bin/../lib/gcc/nios2-elf/4.1.2/mno-hw-mul\libgcc.a(_mul_df.o)
 .bss           0x0082e774        0x0 c:/altera/11.1sp2/nios2eds/bin/gnu/h-i686-mingw32/bin/../lib/gcc/nios2-elf/4.1.2/mno-hw-mul\libgcc.a(_div_df.o)
 .bss           0x0082e774        0x0 c:/altera/11.1sp2/nios2eds/bin/gnu/h-i686-mingw32/bin/../lib/gcc/nios2-elf/4.1.2/mno-hw-mul\libgcc.a(_eq_df.o)
 .bss           0x0082e774        0x0 c:/altera/11.1sp2/nios2eds/bin/gnu/h-i686-mingw32/bin/../lib/gcc/nios2-elf/4.1.2/mno-hw-mul\libgcc.a(_ne_df.o)
 .bss           0x0082e774        0x0 c:/altera/11.1sp2/nios2eds/bin/gnu/h-i686-mingw32/bin/../lib/gcc/nios2-elf/4.1.2/mno-hw-mul\libgcc.a(_gt_df.o)
 .bss           0x0082e774        0x0 c:/altera/11.1sp2/nios2eds/bin/gnu/h-i686-mingw32/bin/../lib/gcc/nios2-elf/4.1.2/mno-hw-mul\libgcc.a(_ge_df.o)
 .bss           0x0082e774        0x0 c:/altera/11.1sp2/nios2eds/bin/gnu/h-i686-mingw32/bin/../lib/gcc/nios2-elf/4.1.2/mno-hw-mul\libgcc.a(_lt_df.o)
 .bss           0x0082e774        0x0 c:/altera/11.1sp2/nios2eds/bin/gnu/h-i686-mingw32/bin/../lib/gcc/nios2-elf/4.1.2/mno-hw-mul\libgcc.a(_si_to_df.o)
 .bss           0x0082e774        0x0 c:/altera/11.1sp2/nios2eds/bin/gnu/h-i686-mingw32/bin/../lib/gcc/nios2-elf/4.1.2/mno-hw-mul\libgcc.a(_df_to_si.o)
 .bss           0x0082e774        0x0 c:/altera/11.1sp2/nios2eds/bin/gnu/h-i686-mingw32/bin/../lib/gcc/nios2-elf/4.1.2/mno-hw-mul\libgcc.a(_thenan_df.o)
 .bss           0x0082e774        0x0 c:/altera/11.1sp2/nios2eds/bin/gnu/h-i686-mingw32/bin/../lib/gcc/nios2-elf/4.1.2/mno-hw-mul\libgcc.a(_usi_to_df.o)
 .bss           0x0082e774        0x0 c:/altera/11.1sp2/nios2eds/bin/gnu/h-i686-mingw32/bin/../lib/gcc/nios2-elf/4.1.2/mno-hw-mul\libgcc.a(_muldi3.o)
 .bss           0x0082e774        0x0 c:/altera/11.1sp2/nios2eds/bin/gnu/h-i686-mingw32/bin/../lib/gcc/nios2-elf/4.1.2/mno-hw-mul\libgcc.a(_clz.o)
 .bss           0x0082e774        0x0 c:/altera/11.1sp2/nios2eds/bin/gnu/h-i686-mingw32/bin/../lib/gcc/nios2-elf/4.1.2/mno-hw-mul\libgcc.a(_clzsi2.o)
 .bss           0x0082e774        0x0 c:/altera/11.1sp2/nios2eds/bin/gnu/h-i686-mingw32/bin/../lib/gcc/nios2-elf/4.1.2/mno-hw-mul\libgcc.a(_pack_df.o)
 .bss           0x0082e774        0x0 c:/altera/11.1sp2/nios2eds/bin/gnu/h-i686-mingw32/bin/../lib/gcc/nios2-elf/4.1.2/mno-hw-mul\libgcc.a(_unpack_df.o)
 .bss           0x0082e774        0x0 c:/altera/11.1sp2/nios2eds/bin/gnu/h-i686-mingw32/bin/../lib/gcc/nios2-elf/4.1.2/mno-hw-mul\libgcc.a(_fpcmp_parts_df.o)
 .bss           0x0082e774        0x0 D:/WorK/Synesthesia/wxp/synesthesia/sw_wxp/de1_limbus_bsp/\libchibios_v240_bsp.a(chdynamic.o)
 .bss           0x0082e774        0x0 D:/WorK/Synesthesia/wxp/synesthesia/sw_wxp/de1_limbus_bsp/\libchibios_v240_bsp.a(chevents.o)
 .bss           0x0082e774       0x1c D:/WorK/Synesthesia/wxp/synesthesia/sw_wxp/de1_limbus_bsp/\libchibios_v240_bsp.a(chheap.o)
 .bss           0x0082e790        0x0 D:/WorK/Synesthesia/wxp/synesthesia/sw_wxp/de1_limbus_bsp/\libchibios_v240_bsp.a(chmemcore.o)
 .bss           0x0082e790        0x0 D:/WorK/Synesthesia/wxp/synesthesia/sw_wxp/de1_limbus_bsp/\libchibios_v240_bsp.a(chmempools.o)
 .bss           0x0082e790        0x0 D:/WorK/Synesthesia/wxp/synesthesia/sw_wxp/de1_limbus_bsp/\libchibios_v240_bsp.a(chmsg.o)
 .bss           0x0082e790        0x0 D:/WorK/Synesthesia/wxp/synesthesia/sw_wxp/de1_limbus_bsp/\libchibios_v240_bsp.a(chmtx.o)
 .bss           0x0082e790        0x0 D:/WorK/Synesthesia/wxp/synesthesia/sw_wxp/de1_limbus_bsp/\libchibios_v240_bsp.a(chschd.o)
 .bss           0x0082e790        0x0 D:/WorK/Synesthesia/wxp/synesthesia/sw_wxp/de1_limbus_bsp/\libchibios_v240_bsp.a(chthreads.o)
 .bss           0x0082e790        0x0 D:/WorK/Synesthesia/wxp/synesthesia/sw_wxp/de1_limbus_bsp/\libchibios_v240_bsp.a(chvt.o)
 .bss           0x0082e790        0x0 D:/WorK/Synesthesia/wxp/synesthesia/sw_wxp/de1_limbus_bsp/\libchibios_v240_bsp.a(chcoreasm.o)
 .bss           0x0082e790        0x0 D:/WorK/Synesthesia/wxp/synesthesia/sw_wxp/de1_limbus_bsp/\libchibios_v240_bsp.a(alt_close.o)
 .bss           0x0082e790        0x0 D:/WorK/Synesthesia/wxp/synesthesia/sw_wxp/de1_limbus_bsp/\libchibios_v240_bsp.a(alt_dev.o)
 .bss           0x0082e790        0x0 D:/WorK/Synesthesia/wxp/synesthesia/sw_wxp/de1_limbus_bsp/\libchibios_v240_bsp.a(alt_errno.o)
 .bss           0x0082e790        0x0 D:/WorK/Synesthesia/wxp/synesthesia/sw_wxp/de1_limbus_bsp/\libchibios_v240_bsp.a(alt_fstat.o)
 .bss           0x0082e790        0x0 D:/WorK/Synesthesia/wxp/synesthesia/sw_wxp/de1_limbus_bsp/\libchibios_v240_bsp.a(alt_getchar.o)
 .bss           0x0082e790        0x0 D:/WorK/Synesthesia/wxp/synesthesia/sw_wxp/de1_limbus_bsp/\libchibios_v240_bsp.a(alt_isatty.o)
 .bss           0x0082e790        0x0 D:/WorK/Synesthesia/wxp/synesthesia/sw_wxp/de1_limbus_bsp/\libchibios_v240_bsp.a(alt_load.o)
 .bss           0x0082e790        0x0 D:/WorK/Synesthesia/wxp/synesthesia/sw_wxp/de1_limbus_bsp/\libchibios_v240_bsp.a(alt_lseek.o)
 .bss           0x0082e790        0x0 D:/WorK/Synesthesia/wxp/synesthesia/sw_wxp/de1_limbus_bsp/\libchibios_v240_bsp.a(alt_main.o)
 .bss           0x0082e790        0x0 D:/WorK/Synesthesia/wxp/synesthesia/sw_wxp/de1_limbus_bsp/\libchibios_v240_bsp.a(alt_malloc_lock.o)
 .bss           0x0082e790        0x0 D:/WorK/Synesthesia/wxp/synesthesia/sw_wxp/de1_limbus_bsp/\libchibios_v240_bsp.a(alt_printf.o)
 .bss           0x0082e790        0x0 D:/WorK/Synesthesia/wxp/synesthesia/sw_wxp/de1_limbus_bsp/\libchibios_v240_bsp.a(alt_putchar.o)
 .bss           0x0082e790        0x0 D:/WorK/Synesthesia/wxp/synesthesia/sw_wxp/de1_limbus_bsp/\libchibios_v240_bsp.a(alt_read.o)
 .bss           0x0082e790        0x0 D:/WorK/Synesthesia/wxp/synesthesia/sw_wxp/de1_limbus_bsp/\libchibios_v240_bsp.a(alt_release_fd.o)
 .bss           0x0082e790        0x0 D:/WorK/Synesthesia/wxp/synesthesia/sw_wxp/de1_limbus_bsp/\libchibios_v240_bsp.a(alt_sbrk.o)
 .bss           0x0082e790        0x0 D:/WorK/Synesthesia/wxp/synesthesia/sw_wxp/de1_limbus_bsp/\libchibios_v240_bsp.a(alt_write.o)
 .bss           0x0082e790        0x0 D:/WorK/Synesthesia/wxp/synesthesia/sw_wxp/de1_limbus_bsp/\libchibios_v240_bsp.a(alt_sys_init.o)
 .bss           0x0082e790        0x0 D:/WorK/Synesthesia/wxp/synesthesia/sw_wxp/de1_limbus_bsp/\libchibios_v240_bsp.a(altera_avalon_jtag_uart_fd.o)
 .bss           0x0082e790        0x0 D:/WorK/Synesthesia/wxp/synesthesia/sw_wxp/de1_limbus_bsp/\libchibios_v240_bsp.a(altera_avalon_jtag_uart_init.o)
 .bss           0x0082e790        0x0 D:/WorK/Synesthesia/wxp/synesthesia/sw_wxp/de1_limbus_bsp/\libchibios_v240_bsp.a(altera_avalon_jtag_uart_ioctl.o)
 .bss           0x0082e790        0x0 D:/WorK/Synesthesia/wxp/synesthesia/sw_wxp/de1_limbus_bsp/\libchibios_v240_bsp.a(altera_avalon_jtag_uart_read.o)
 .bss           0x0082e790        0x0 D:/WorK/Synesthesia/wxp/synesthesia/sw_wxp/de1_limbus_bsp/\libchibios_v240_bsp.a(altera_avalon_jtag_uart_write.o)
 .bss           0x0082e790        0x0 D:/WorK/Synesthesia/wxp/synesthesia/sw_wxp/de1_limbus_bsp/\libchibios_v240_bsp.a(altera_avalon_performance_counter.o)
 .bss           0x0082e790        0x0 D:/WorK/Synesthesia/wxp/synesthesia/sw_wxp/de1_limbus_bsp/\libchibios_v240_bsp.a(altera_avalon_timer_sc.o)
 .bss           0x0082e790        0x0 D:/WorK/Synesthesia/wxp/synesthesia/sw_wxp/de1_limbus_bsp/\libchibios_v240_bsp.a(altera_avalon_uart_fd.o)
 .bss           0x0082e790        0x0 D:/WorK/Synesthesia/wxp/synesthesia/sw_wxp/de1_limbus_bsp/\libchibios_v240_bsp.a(altera_avalon_uart_init.o)
 .bss           0x0082e790        0x0 D:/WorK/Synesthesia/wxp/synesthesia/sw_wxp/de1_limbus_bsp/\libchibios_v240_bsp.a(altera_avalon_uart_read.o)
 .bss           0x0082e790        0x0 D:/WorK/Synesthesia/wxp/synesthesia/sw_wxp/de1_limbus_bsp/\libchibios_v240_bsp.a(altera_avalon_uart_write.o)
 .bss           0x0082e790        0x0 D:/WorK/Synesthesia/wxp/synesthesia/sw_wxp/de1_limbus_bsp/\libchibios_v240_bsp.a(perf_print_formatted_report.o)
 .bss           0x0082e790       0x48 D:/WorK/Synesthesia/wxp/synesthesia/sw_wxp/de1_limbus_bsp/\libchibios_v240_bsp.a(chsys.o)
 .bss           0x0082e7d8        0x0 D:/WorK/Synesthesia/wxp/synesthesia/sw_wxp/de1_limbus_bsp/\libchibios_v240_bsp.a(alt_alarm_start.o)
 .bss           0x0082e7d8        0x0 D:/WorK/Synesthesia/wxp/synesthesia/sw_wxp/de1_limbus_bsp/\libchibios_v240_bsp.a(alt_dcache_flush_all.o)
 .bss           0x0082e7d8        0x0 D:/WorK/Synesthesia/wxp/synesthesia/sw_wxp/de1_limbus_bsp/\libchibios_v240_bsp.a(alt_dev_llist_insert.o)
 .bss           0x0082e7d8        0x0 D:/WorK/Synesthesia/wxp/synesthesia/sw_wxp/de1_limbus_bsp/\libchibios_v240_bsp.a(alt_do_ctors.o)
 .bss           0x0082e7d8        0x0 D:/WorK/Synesthesia/wxp/synesthesia/sw_wxp/de1_limbus_bsp/\libchibios_v240_bsp.a(alt_do_dtors.o)
 .bss           0x0082e7d8        0x0 D:/WorK/Synesthesia/wxp/synesthesia/sw_wxp/de1_limbus_bsp/\libchibios_v240_bsp.a(alt_icache_flush_all.o)
 .bss           0x0082e7d8        0x0 D:/WorK/Synesthesia/wxp/synesthesia/sw_wxp/de1_limbus_bsp/\libchibios_v240_bsp.a(alt_iic.o)
 .bss           0x0082e7d8        0x0 D:/WorK/Synesthesia/wxp/synesthesia/sw_wxp/de1_limbus_bsp/\libchibios_v240_bsp.a(alt_iic_isr_register.o)
 .bss           0x0082e7d8        0x0 D:/WorK/Synesthesia/wxp/synesthesia/sw_wxp/de1_limbus_bsp/\libchibios_v240_bsp.a(alt_io_redirect.o)
 .bss           0x0082e7d8        0x0 D:/WorK/Synesthesia/wxp/synesthesia/sw_wxp/de1_limbus_bsp/\libchibios_v240_bsp.a(alt_irq_entry.o)
 .bss           0x0082e7d8        0x0 D:/WorK/Synesthesia/wxp/synesthesia/sw_wxp/de1_limbus_bsp/\libchibios_v240_bsp.a(alt_irq_handler.o)
 .bss           0x0082e7d8        0x0 D:/WorK/Synesthesia/wxp/synesthesia/sw_wxp/de1_limbus_bsp/\libchibios_v240_bsp.a(alt_irq_vars.o)
 .bss           0x0082e7d8        0x0 D:/WorK/Synesthesia/wxp/synesthesia/sw_wxp/de1_limbus_bsp/\libchibios_v240_bsp.a(alt_open.o)
 .bss           0x0082e7d8        0x0 D:/WorK/Synesthesia/wxp/synesthesia/sw_wxp/de1_limbus_bsp/\libchibios_v240_bsp.a(alt_tick.o)
 .bss           0x0082e7d8        0x0 D:/WorK/Synesthesia/wxp/synesthesia/sw_wxp/de1_limbus_bsp/\libchibios_v240_bsp.a(altera_nios2_qsys_irq.o)
 .bss           0x0082e7d8        0x0 D:/WorK/Synesthesia/wxp/synesthesia/sw_wxp/de1_limbus_bsp/\libchibios_v240_bsp.a(chcore.o)
 .bss           0x0082e7d8        0x0 D:/WorK/Synesthesia/wxp/synesthesia/sw_wxp/de1_limbus_bsp/\libchibios_v240_bsp.a(alt_exception_entry.o)
 .bss           0x0082e7d8        0x0 D:/WorK/Synesthesia/wxp/synesthesia/sw_wxp/de1_limbus_bsp/\libchibios_v240_bsp.a(alt_find_dev.o)
 .bss           0x0082e7d8        0x0 D:/WorK/Synesthesia/wxp/synesthesia/sw_wxp/de1_limbus_bsp/\libchibios_v240_bsp.a(alt_find_file.o)
 .bss           0x0082e7d8        0x0 D:/WorK/Synesthesia/wxp/synesthesia/sw_wxp/de1_limbus_bsp/\libchibios_v240_bsp.a(alt_get_fd.o)
 .bss           0x0082e7d8        0x0 c:/altera/11.1sp2/nios2eds/bin/gnu/h-i686-mingw32/bin/../lib/gcc/nios2-elf/4.1.2/../../../../nios2-elf/lib/mno-hw-mul\libc.a(lib_a-atexit.o)
 .bss           0x0082e7d8        0x0 c:/altera/11.1sp2/nios2eds/bin/gnu/h-i686-mingw32/bin/../lib/gcc/nios2-elf/4.1.2/../../../../nios2-elf/lib/mno-hw-mul\libc.a(lib_a-exit.o)
 .bss           0x0082e7d8        0x0 c:/altera/11.1sp2/nios2eds/bin/gnu/h-i686-mingw32/bin/../lib/gcc/nios2-elf/4.1.2/../../../../nios2-elf/lib/mno-hw-mul\libc.a(lib_a-getc.o)
 .bss           0x0082e7d8        0x0 c:/altera/11.1sp2/nios2eds/bin/gnu/h-i686-mingw32/bin/../lib/gcc/nios2-elf/4.1.2/../../../../nios2-elf/lib/mno-hw-mul\libc.a(lib_a-memcmp.o)
 .bss           0x0082e7d8        0x0 c:/altera/11.1sp2/nios2eds/bin/gnu/h-i686-mingw32/bin/../lib/gcc/nios2-elf/4.1.2/../../../../nios2-elf/lib/mno-hw-mul\libc.a(lib_a-putc.o)
 .bss           0x0082e7d8        0x0 c:/altera/11.1sp2/nios2eds/bin/gnu/h-i686-mingw32/bin/../lib/gcc/nios2-elf/4.1.2/../../../../nios2-elf/lib/mno-hw-mul\libc.a(lib_a-rget.o)
 .bss           0x0082e7d8        0x0 c:/altera/11.1sp2/nios2eds/bin/gnu/h-i686-mingw32/bin/../lib/gcc/nios2-elf/4.1.2/../../../../nios2-elf/lib/mno-hw-mul\libc.a(lib_a-wbuf.o)
 .bss           0x0082e7d8        0x0 c:/altera/11.1sp2/nios2eds/bin/gnu/h-i686-mingw32/bin/../lib/gcc/nios2-elf/4.1.2/../../../../nios2-elf/lib/mno-hw-mul\libc.a(lib_a-__atexit.o)
 .bss           0x0082e7d8        0x0 c:/altera/11.1sp2/nios2eds/bin/gnu/h-i686-mingw32/bin/../lib/gcc/nios2-elf/4.1.2/../../../../nios2-elf/lib/mno-hw-mul\libc.a(lib_a-__call_atexit.o)
 .bss           0x0082e7d8        0x0 c:/altera/11.1sp2/nios2eds/bin/gnu/h-i686-mingw32/bin/../lib/gcc/nios2-elf/4.1.2/../../../../nios2-elf/lib/mno-hw-mul\libc.a(lib_a-refill.o)
 .bss           0x0082e7d8        0x0 c:/altera/11.1sp2/nios2eds/bin/gnu/h-i686-mingw32/bin/../lib/gcc/nios2-elf/4.1.2/mno-hw-mul\libgcc.a(_floatundidf.o)
 .bss           0x0082e7d8        0x0 D:/WorK/Synesthesia/wxp/synesthesia/sw_wxp/de1_limbus_bsp/\libchibios_v240_bsp.a(alt_exit.o)
 *(COMMON)
 COMMON         0x0082e7d8        0xc obj/default/ledos/ledos.o
                0x0082e7d8                shell_tel
 COMMON         0x0082e7e4    0x1028c obj/default/ledos/shell/bash.o
                0x0082e7e4                bash_Buff
                0x0083e7e4                bash_dir
                0x0083e800                bash_fno
                0x0083e818                bash_Fil
                0x0083e83c                bash_Fatfs
 COMMON         0x0083ea70       0x20 D:/WorK/Synesthesia/wxp/synesthesia/sw_wxp/de1_limbus_bsp/\libchibios_v240_bsp.a(chschd.o)
                0x0083ea70                rlist
 COMMON         0x0083ea90       0x10 D:/WorK/Synesthesia/wxp/synesthesia/sw_wxp/de1_limbus_bsp/\libchibios_v240_bsp.a(chvt.o)
                0x0083ea90                vtlist
 COMMON         0x0083eaa0      0x1c0 D:/WorK/Synesthesia/wxp/synesthesia/sw_wxp/de1_limbus_bsp/\libchibios_v240_bsp.a(chsys.o)
                0x0083eaa0                _idle_thread_wa
 COMMON         0x0083ec60      0x100 D:/WorK/Synesthesia/wxp/synesthesia/sw_wxp/de1_limbus_bsp/\libchibios_v240_bsp.a(alt_irq_handler.o)
                0x0083ec60                alt_irq
 COMMON         0x0083ed60      0x190 c:/altera/11.1sp2/nios2eds/bin/gnu/h-i686-mingw32/bin/../lib/gcc/nios2-elf/4.1.2/../../../../nios2-elf/lib/mno-hw-mul\libc.a(lib_a-atexit.o)
                0x0083ed60                _atexit0
                0x0083eef0                . = ALIGN (0x4)
                0x0083eef0                __bss_end = ABSOLUTE (.)

.sdram          0x0083eef0        0x0
                0x0083eef0                PROVIDE (_alt_partition_sdram_start, ABSOLUTE (.))
 *(.sdram. sdram.*)
                0x0083eef0                . = ALIGN (0x4)
                0x0083eef0                PROVIDE (_alt_partition_sdram_end, ABSOLUTE (.))
                0x0083eef0                _end = ABSOLUTE (.)
                0x0083eef0                end = ABSOLUTE (.)
                0x0083eef0                __alt_stack_base = ABSOLUTE (.)
                0x0083eef0                PROVIDE (_alt_partition_sdram_load_addr, LOADADDR (.sdram))

.stab
 *(.stab)

.stabstr
 *(.stabstr)

.stab.excl
 *(.stab.excl)

.stab.exclstr
 *(.stab.exclstr)

.stab.index
 *(.stab.index)

.stab.indexstr
 *(.stab.indexstr)

.comment        0x00000000       0x26
 *(.comment)
 .comment       0x00000000       0x26 obj/default/ledos/codec/codec.o
                                 0x27 (size before relaxing)
 .comment       0x00000000       0x27 obj/default/ledos/cortex/acortex/acortex.o
 .comment       0x00000000       0x27 obj/default/ledos/cortex/acortex/dac/dac_drvr.o
 .comment       0x00000000       0x27 obj/default/ledos/cortex/acortex/i2c/i2c_drvr.o
 .comment       0x00000000       0x27 obj/default/ledos/cortex/acortex/prsr/prsr.o
 .comment       0x00000000       0x27 obj/default/ledos/cortex/acortex/sram/sram.o
 .comment       0x00000000       0x27 obj/default/ledos/cortex/cortex.o
 .comment       0x00000000       0x27 obj/default/ledos/cortex/fgyrus/fgyrus.o
 .comment       0x00000000       0x27 obj/default/ledos/cortex/vcortex/vcortex.o
 .comment       0x00000000       0x27 obj/default/ledos/fatfs/diskio.o
 .comment       0x00000000       0x27 obj/default/ledos/fatfs/ff.o
 .comment       0x00000000       0x27 obj/default/ledos/fft_cache/fft_cache.o
 .comment       0x00000000       0x27 obj/default/ledos/ledos.o
 .comment       0x00000000       0x27 obj/default/ledos/lsd/lsd.o
 .comment       0x00000000       0x27 obj/default/ledos/shell/bash.o
 .comment       0x00000000       0x27 obj/default/ledos/shell/shell.o
 .comment       0x00000000       0x27 obj/default/main.o
 .comment       0x00000000       0x27 c:/altera/11.1sp2/nios2eds/bin/gnu/h-i686-mingw32/bin/../lib/gcc/nios2-elf/4.1.2/mno-hw-mul\libgcc.a(lib2-divmod.o)
 .comment       0x00000000       0x27 c:/altera/11.1sp2/nios2eds/bin/gnu/h-i686-mingw32/bin/../lib/gcc/nios2-elf/4.1.2/mno-hw-mul\libgcc.a(lib2-mul.o)
 .comment       0x00000000       0x27 c:/altera/11.1sp2/nios2eds/bin/gnu/h-i686-mingw32/bin/../lib/gcc/nios2-elf/4.1.2/../../../../nios2-elf/lib/mno-hw-mul\libc.a(lib_a-printf.o)
 .comment       0x00000000       0x27 c:/altera/11.1sp2/nios2eds/bin/gnu/h-i686-mingw32/bin/../lib/gcc/nios2-elf/4.1.2/../../../../nios2-elf/lib/mno-hw-mul\libc.a(lib_a-strcasecmp.o)
 .comment       0x00000000       0x27 c:/altera/11.1sp2/nios2eds/bin/gnu/h-i686-mingw32/bin/../lib/gcc/nios2-elf/4.1.2/../../../../nios2-elf/lib/mno-hw-mul\libc.a(lib_a-strpbrk.o)
 .comment       0x00000000       0x27 c:/altera/11.1sp2/nios2eds/bin/gnu/h-i686-mingw32/bin/../lib/gcc/nios2-elf/4.1.2/../../../../nios2-elf/lib/mno-hw-mul\libc.a(lib_a-strspn.o)
 .comment       0x00000000       0x27 c:/altera/11.1sp2/nios2eds/bin/gnu/h-i686-mingw32/bin/../lib/gcc/nios2-elf/4.1.2/../../../../nios2-elf/lib/mno-hw-mul\libc.a(lib_a-vfprintf.o)
 .comment       0x00000000       0x27 c:/altera/11.1sp2/nios2eds/bin/gnu/h-i686-mingw32/bin/../lib/gcc/nios2-elf/4.1.2/../../../../nios2-elf/lib/mno-hw-mul\libc.a(lib_a-wsetup.o)
 .comment       0x00000000       0x27 c:/altera/11.1sp2/nios2eds/bin/gnu/h-i686-mingw32/bin/../lib/gcc/nios2-elf/4.1.2/../../../../nios2-elf/lib/mno-hw-mul\libc.a(lib_a-ctype_.o)
 .comment       0x00000000       0x27 c:/altera/11.1sp2/nios2eds/bin/gnu/h-i686-mingw32/bin/../lib/gcc/nios2-elf/4.1.2/../../../../nios2-elf/lib/mno-hw-mul\libc.a(lib_a-dtoa.o)
 .comment       0x00000000       0x27 c:/altera/11.1sp2/nios2eds/bin/gnu/h-i686-mingw32/bin/../lib/gcc/nios2-elf/4.1.2/../../../../nios2-elf/lib/mno-hw-mul\libc.a(lib_a-fflush.o)
 .comment       0x00000000       0x27 c:/altera/11.1sp2/nios2eds/bin/gnu/h-i686-mingw32/bin/../lib/gcc/nios2-elf/4.1.2/../../../../nios2-elf/lib/mno-hw-mul\libc.a(lib_a-findfp.o)
 .comment       0x00000000       0x27 c:/altera/11.1sp2/nios2eds/bin/gnu/h-i686-mingw32/bin/../lib/gcc/nios2-elf/4.1.2/../../../../nios2-elf/lib/mno-hw-mul\libc.a(lib_a-freer.o)
 .comment       0x00000000       0x27 c:/altera/11.1sp2/nios2eds/bin/gnu/h-i686-mingw32/bin/../lib/gcc/nios2-elf/4.1.2/../../../../nios2-elf/lib/mno-hw-mul\libc.a(lib_a-fvwrite.o)
 .comment       0x00000000       0x27 c:/altera/11.1sp2/nios2eds/bin/gnu/h-i686-mingw32/bin/../lib/gcc/nios2-elf/4.1.2/../../../../nios2-elf/lib/mno-hw-mul\libc.a(lib_a-fwalk.o)
 .comment       0x00000000       0x27 c:/altera/11.1sp2/nios2eds/bin/gnu/h-i686-mingw32/bin/../lib/gcc/nios2-elf/4.1.2/../../../../nios2-elf/lib/mno-hw-mul\libc.a(lib_a-impure.o)
 .comment       0x00000000       0x27 c:/altera/11.1sp2/nios2eds/bin/gnu/h-i686-mingw32/bin/../lib/gcc/nios2-elf/4.1.2/../../../../nios2-elf/lib/mno-hw-mul\libc.a(lib_a-locale.o)
 .comment       0x00000000       0x27 c:/altera/11.1sp2/nios2eds/bin/gnu/h-i686-mingw32/bin/../lib/gcc/nios2-elf/4.1.2/../../../../nios2-elf/lib/mno-hw-mul\libc.a(lib_a-makebuf.o)
 .comment       0x00000000       0x27 c:/altera/11.1sp2/nios2eds/bin/gnu/h-i686-mingw32/bin/../lib/gcc/nios2-elf/4.1.2/../../../../nios2-elf/lib/mno-hw-mul\libc.a(lib_a-mallocr.o)
 .comment       0x00000000       0x27 c:/altera/11.1sp2/nios2eds/bin/gnu/h-i686-mingw32/bin/../lib/gcc/nios2-elf/4.1.2/../../../../nios2-elf/lib/mno-hw-mul\libc.a(lib_a-memchr.o)
 .comment       0x00000000       0x27 c:/altera/11.1sp2/nios2eds/bin/gnu/h-i686-mingw32/bin/../lib/gcc/nios2-elf/4.1.2/../../../../nios2-elf/lib/mno-hw-mul\libc.a(lib_a-memcpy.o)
 .comment       0x00000000       0x27 c:/altera/11.1sp2/nios2eds/bin/gnu/h-i686-mingw32/bin/../lib/gcc/nios2-elf/4.1.2/../../../../nios2-elf/lib/mno-hw-mul\libc.a(lib_a-memmove.o)
 .comment       0x00000000       0x27 c:/altera/11.1sp2/nios2eds/bin/gnu/h-i686-mingw32/bin/../lib/gcc/nios2-elf/4.1.2/../../../../nios2-elf/lib/mno-hw-mul\libc.a(lib_a-memset.o)
 .comment       0x00000000       0x27 c:/altera/11.1sp2/nios2eds/bin/gnu/h-i686-mingw32/bin/../lib/gcc/nios2-elf/4.1.2/../../../../nios2-elf/lib/mno-hw-mul\libc.a(lib_a-mprec.o)
 .comment       0x00000000       0x27 c:/altera/11.1sp2/nios2eds/bin/gnu/h-i686-mingw32/bin/../lib/gcc/nios2-elf/4.1.2/../../../../nios2-elf/lib/mno-hw-mul\libc.a(lib_a-reallocr.o)
 .comment       0x00000000       0x27 c:/altera/11.1sp2/nios2eds/bin/gnu/h-i686-mingw32/bin/../lib/gcc/nios2-elf/4.1.2/../../../../nios2-elf/lib/mno-hw-mul\libc.a(lib_a-s_isinfd.o)
 .comment       0x00000000       0x27 c:/altera/11.1sp2/nios2eds/bin/gnu/h-i686-mingw32/bin/../lib/gcc/nios2-elf/4.1.2/../../../../nios2-elf/lib/mno-hw-mul\libc.a(lib_a-s_isnand.o)
 .comment       0x00000000       0x27 c:/altera/11.1sp2/nios2eds/bin/gnu/h-i686-mingw32/bin/../lib/gcc/nios2-elf/4.1.2/../../../../nios2-elf/lib/mno-hw-mul\libc.a(lib_a-sbrkr.o)
 .comment       0x00000000       0x27 c:/altera/11.1sp2/nios2eds/bin/gnu/h-i686-mingw32/bin/../lib/gcc/nios2-elf/4.1.2/../../../../nios2-elf/lib/mno-hw-mul\libc.a(lib_a-stdio.o)
 .comment       0x00000000       0x27 c:/altera/11.1sp2/nios2eds/bin/gnu/h-i686-mingw32/bin/../lib/gcc/nios2-elf/4.1.2/../../../../nios2-elf/lib/mno-hw-mul\libc.a(lib_a-strcmp.o)
 .comment       0x00000000       0x27 c:/altera/11.1sp2/nios2eds/bin/gnu/h-i686-mingw32/bin/../lib/gcc/nios2-elf/4.1.2/../../../../nios2-elf/lib/mno-hw-mul\libc.a(lib_a-strlen.o)
 .comment       0x00000000       0x27 c:/altera/11.1sp2/nios2eds/bin/gnu/h-i686-mingw32/bin/../lib/gcc/nios2-elf/4.1.2/../../../../nios2-elf/lib/mno-hw-mul\libc.a(lib_a-writer.o)
 .comment       0x00000000       0x27 c:/altera/11.1sp2/nios2eds/bin/gnu/h-i686-mingw32/bin/../lib/gcc/nios2-elf/4.1.2/../../../../nios2-elf/lib/mno-hw-mul\libc.a(lib_a-callocr.o)
 .comment       0x00000000       0x27 c:/altera/11.1sp2/nios2eds/bin/gnu/h-i686-mingw32/bin/../lib/gcc/nios2-elf/4.1.2/../../../../nios2-elf/lib/mno-hw-mul\libc.a(lib_a-closer.o)
 .comment       0x00000000       0x27 c:/altera/11.1sp2/nios2eds/bin/gnu/h-i686-mingw32/bin/../lib/gcc/nios2-elf/4.1.2/../../../../nios2-elf/lib/mno-hw-mul\libc.a(lib_a-fclose.o)
 .comment       0x00000000       0x27 c:/altera/11.1sp2/nios2eds/bin/gnu/h-i686-mingw32/bin/../lib/gcc/nios2-elf/4.1.2/../../../../nios2-elf/lib/mno-hw-mul\libc.a(lib_a-fstatr.o)
 .comment       0x00000000       0x27 c:/altera/11.1sp2/nios2eds/bin/gnu/h-i686-mingw32/bin/../lib/gcc/nios2-elf/4.1.2/../../../../nios2-elf/lib/mno-hw-mul\libc.a(lib_a-int_errno.o)
 .comment       0x00000000       0x27 c:/altera/11.1sp2/nios2eds/bin/gnu/h-i686-mingw32/bin/../lib/gcc/nios2-elf/4.1.2/../../../../nios2-elf/lib/mno-hw-mul\libc.a(lib_a-isattyr.o)
 .comment       0x00000000       0x27 c:/altera/11.1sp2/nios2eds/bin/gnu/h-i686-mingw32/bin/../lib/gcc/nios2-elf/4.1.2/../../../../nios2-elf/lib/mno-hw-mul\libc.a(lib_a-lseekr.o)
 .comment       0x00000000       0x27 c:/altera/11.1sp2/nios2eds/bin/gnu/h-i686-mingw32/bin/../lib/gcc/nios2-elf/4.1.2/../../../../nios2-elf/lib/mno-hw-mul\libc.a(lib_a-readr.o)
 .comment       0x00000000       0x27 c:/altera/11.1sp2/nios2eds/bin/gnu/h-i686-mingw32/bin/../lib/gcc/nios2-elf/4.1.2/mno-hw-mul\libgcc.a(_udivdi3.o)
 .comment       0x00000000       0x27 c:/altera/11.1sp2/nios2eds/bin/gnu/h-i686-mingw32/bin/../lib/gcc/nios2-elf/4.1.2/mno-hw-mul\libgcc.a(_umoddi3.o)
 .comment       0x00000000       0x27 c:/altera/11.1sp2/nios2eds/bin/gnu/h-i686-mingw32/bin/../lib/gcc/nios2-elf/4.1.2/mno-hw-mul\libgcc.a(_addsub_df.o)
 .comment       0x00000000       0x27 c:/altera/11.1sp2/nios2eds/bin/gnu/h-i686-mingw32/bin/../lib/gcc/nios2-elf/4.1.2/mno-hw-mul\libgcc.a(_mul_df.o)
 .comment       0x00000000       0x27 c:/altera/11.1sp2/nios2eds/bin/gnu/h-i686-mingw32/bin/../lib/gcc/nios2-elf/4.1.2/mno-hw-mul\libgcc.a(_div_df.o)
 .comment       0x00000000       0x27 c:/altera/11.1sp2/nios2eds/bin/gnu/h-i686-mingw32/bin/../lib/gcc/nios2-elf/4.1.2/mno-hw-mul\libgcc.a(_eq_df.o)
 .comment       0x00000000       0x27 c:/altera/11.1sp2/nios2eds/bin/gnu/h-i686-mingw32/bin/../lib/gcc/nios2-elf/4.1.2/mno-hw-mul\libgcc.a(_ne_df.o)
 .comment       0x00000000       0x27 c:/altera/11.1sp2/nios2eds/bin/gnu/h-i686-mingw32/bin/../lib/gcc/nios2-elf/4.1.2/mno-hw-mul\libgcc.a(_gt_df.o)
 .comment       0x00000000       0x27 c:/altera/11.1sp2/nios2eds/bin/gnu/h-i686-mingw32/bin/../lib/gcc/nios2-elf/4.1.2/mno-hw-mul\libgcc.a(_ge_df.o)
 .comment       0x00000000       0x27 c:/altera/11.1sp2/nios2eds/bin/gnu/h-i686-mingw32/bin/../lib/gcc/nios2-elf/4.1.2/mno-hw-mul\libgcc.a(_lt_df.o)
 .comment       0x00000000       0x27 c:/altera/11.1sp2/nios2eds/bin/gnu/h-i686-mingw32/bin/../lib/gcc/nios2-elf/4.1.2/mno-hw-mul\libgcc.a(_si_to_df.o)
 .comment       0x00000000       0x27 c:/altera/11.1sp2/nios2eds/bin/gnu/h-i686-mingw32/bin/../lib/gcc/nios2-elf/4.1.2/mno-hw-mul\libgcc.a(_df_to_si.o)
 .comment       0x00000000       0x27 c:/altera/11.1sp2/nios2eds/bin/gnu/h-i686-mingw32/bin/../lib/gcc/nios2-elf/4.1.2/mno-hw-mul\libgcc.a(_thenan_df.o)
 .comment       0x00000000       0x27 c:/altera/11.1sp2/nios2eds/bin/gnu/h-i686-mingw32/bin/../lib/gcc/nios2-elf/4.1.2/mno-hw-mul\libgcc.a(_usi_to_df.o)
 .comment       0x00000000       0x27 c:/altera/11.1sp2/nios2eds/bin/gnu/h-i686-mingw32/bin/../lib/gcc/nios2-elf/4.1.2/mno-hw-mul\libgcc.a(_muldi3.o)
 .comment       0x00000000       0x27 c:/altera/11.1sp2/nios2eds/bin/gnu/h-i686-mingw32/bin/../lib/gcc/nios2-elf/4.1.2/mno-hw-mul\libgcc.a(_clz.o)
 .comment       0x00000000       0x27 c:/altera/11.1sp2/nios2eds/bin/gnu/h-i686-mingw32/bin/../lib/gcc/nios2-elf/4.1.2/mno-hw-mul\libgcc.a(_clzsi2.o)
 .comment       0x00000000       0x27 c:/altera/11.1sp2/nios2eds/bin/gnu/h-i686-mingw32/bin/../lib/gcc/nios2-elf/4.1.2/mno-hw-mul\libgcc.a(_pack_df.o)
 .comment       0x00000000       0x27 c:/altera/11.1sp2/nios2eds/bin/gnu/h-i686-mingw32/bin/../lib/gcc/nios2-elf/4.1.2/mno-hw-mul\libgcc.a(_unpack_df.o)
 .comment       0x00000000       0x27 c:/altera/11.1sp2/nios2eds/bin/gnu/h-i686-mingw32/bin/../lib/gcc/nios2-elf/4.1.2/mno-hw-mul\libgcc.a(_fpcmp_parts_df.o)
 .comment       0x00000000       0x27 D:/WorK/Synesthesia/wxp/synesthesia/sw_wxp/de1_limbus_bsp/\libchibios_v240_bsp.a(chdynamic.o)
 .comment       0x00000000       0x27 D:/WorK/Synesthesia/wxp/synesthesia/sw_wxp/de1_limbus_bsp/\libchibios_v240_bsp.a(chevents.o)
 .comment       0x00000000       0x27 D:/WorK/Synesthesia/wxp/synesthesia/sw_wxp/de1_limbus_bsp/\libchibios_v240_bsp.a(chheap.o)
 .comment       0x00000000       0x27 D:/WorK/Synesthesia/wxp/synesthesia/sw_wxp/de1_limbus_bsp/\libchibios_v240_bsp.a(chmemcore.o)
 .comment       0x00000000       0x27 D:/WorK/Synesthesia/wxp/synesthesia/sw_wxp/de1_limbus_bsp/\libchibios_v240_bsp.a(chmempools.o)
 .comment       0x00000000       0x27 D:/WorK/Synesthesia/wxp/synesthesia/sw_wxp/de1_limbus_bsp/\libchibios_v240_bsp.a(chmsg.o)
 .comment       0x00000000       0x27 D:/WorK/Synesthesia/wxp/synesthesia/sw_wxp/de1_limbus_bsp/\libchibios_v240_bsp.a(chmtx.o)
 .comment       0x00000000       0x27 D:/WorK/Synesthesia/wxp/synesthesia/sw_wxp/de1_limbus_bsp/\libchibios_v240_bsp.a(chschd.o)
 .comment       0x00000000       0x27 D:/WorK/Synesthesia/wxp/synesthesia/sw_wxp/de1_limbus_bsp/\libchibios_v240_bsp.a(chthreads.o)
 .comment       0x00000000       0x27 D:/WorK/Synesthesia/wxp/synesthesia/sw_wxp/de1_limbus_bsp/\libchibios_v240_bsp.a(chvt.o)
 .comment       0x00000000       0x27 D:/WorK/Synesthesia/wxp/synesthesia/sw_wxp/de1_limbus_bsp/\libchibios_v240_bsp.a(alt_close.o)
 .comment       0x00000000       0x27 D:/WorK/Synesthesia/wxp/synesthesia/sw_wxp/de1_limbus_bsp/\libchibios_v240_bsp.a(alt_dev.o)
 .comment       0x00000000       0x27 D:/WorK/Synesthesia/wxp/synesthesia/sw_wxp/de1_limbus_bsp/\libchibios_v240_bsp.a(alt_errno.o)
 .comment       0x00000000       0x27 D:/WorK/Synesthesia/wxp/synesthesia/sw_wxp/de1_limbus_bsp/\libchibios_v240_bsp.a(alt_fstat.o)
 .comment       0x00000000       0x27 D:/WorK/Synesthesia/wxp/synesthesia/sw_wxp/de1_limbus_bsp/\libchibios_v240_bsp.a(alt_getchar.o)
 .comment       0x00000000       0x27 D:/WorK/Synesthesia/wxp/synesthesia/sw_wxp/de1_limbus_bsp/\libchibios_v240_bsp.a(alt_isatty.o)
 .comment       0x00000000       0x27 D:/WorK/Synesthesia/wxp/synesthesia/sw_wxp/de1_limbus_bsp/\libchibios_v240_bsp.a(alt_load.o)
 .comment       0x00000000       0x27 D:/WorK/Synesthesia/wxp/synesthesia/sw_wxp/de1_limbus_bsp/\libchibios_v240_bsp.a(alt_lseek.o)
 .comment       0x00000000       0x27 D:/WorK/Synesthesia/wxp/synesthesia/sw_wxp/de1_limbus_bsp/\libchibios_v240_bsp.a(alt_main.o)
 .comment       0x00000000       0x27 D:/WorK/Synesthesia/wxp/synesthesia/sw_wxp/de1_limbus_bsp/\libchibios_v240_bsp.a(alt_malloc_lock.o)
 .comment       0x00000000       0x27 D:/WorK/Synesthesia/wxp/synesthesia/sw_wxp/de1_limbus_bsp/\libchibios_v240_bsp.a(alt_printf.o)
 .comment       0x00000000       0x27 D:/WorK/Synesthesia/wxp/synesthesia/sw_wxp/de1_limbus_bsp/\libchibios_v240_bsp.a(alt_putchar.o)
 .comment       0x00000000       0x27 D:/WorK/Synesthesia/wxp/synesthesia/sw_wxp/de1_limbus_bsp/\libchibios_v240_bsp.a(alt_read.o)
 .comment       0x00000000       0x27 D:/WorK/Synesthesia/wxp/synesthesia/sw_wxp/de1_limbus_bsp/\libchibios_v240_bsp.a(alt_release_fd.o)
 .comment       0x00000000       0x27 D:/WorK/Synesthesia/wxp/synesthesia/sw_wxp/de1_limbus_bsp/\libchibios_v240_bsp.a(alt_sbrk.o)
 .comment       0x00000000       0x27 D:/WorK/Synesthesia/wxp/synesthesia/sw_wxp/de1_limbus_bsp/\libchibios_v240_bsp.a(alt_write.o)
 .comment       0x00000000       0x27 D:/WorK/Synesthesia/wxp/synesthesia/sw_wxp/de1_limbus_bsp/\libchibios_v240_bsp.a(alt_sys_init.o)
 .comment       0x00000000       0x27 D:/WorK/Synesthesia/wxp/synesthesia/sw_wxp/de1_limbus_bsp/\libchibios_v240_bsp.a(altera_avalon_jtag_uart_fd.o)
 .comment       0x00000000       0x27 D:/WorK/Synesthesia/wxp/synesthesia/sw_wxp/de1_limbus_bsp/\libchibios_v240_bsp.a(altera_avalon_jtag_uart_init.o)
 .comment       0x00000000       0x27 D:/WorK/Synesthesia/wxp/synesthesia/sw_wxp/de1_limbus_bsp/\libchibios_v240_bsp.a(altera_avalon_jtag_uart_ioctl.o)
 .comment       0x00000000       0x27 D:/WorK/Synesthesia/wxp/synesthesia/sw_wxp/de1_limbus_bsp/\libchibios_v240_bsp.a(altera_avalon_jtag_uart_read.o)
 .comment       0x00000000       0x27 D:/WorK/Synesthesia/wxp/synesthesia/sw_wxp/de1_limbus_bsp/\libchibios_v240_bsp.a(altera_avalon_jtag_uart_write.o)
 .comment       0x00000000       0x27 D:/WorK/Synesthesia/wxp/synesthesia/sw_wxp/de1_limbus_bsp/\libchibios_v240_bsp.a(altera_avalon_performance_counter.o)
 .comment       0x00000000       0x27 D:/WorK/Synesthesia/wxp/synesthesia/sw_wxp/de1_limbus_bsp/\libchibios_v240_bsp.a(altera_avalon_timer_sc.o)
 .comment       0x00000000       0x27 D:/WorK/Synesthesia/wxp/synesthesia/sw_wxp/de1_limbus_bsp/\libchibios_v240_bsp.a(altera_avalon_uart_fd.o)
 .comment       0x00000000       0x27 D:/WorK/Synesthesia/wxp/synesthesia/sw_wxp/de1_limbus_bsp/\libchibios_v240_bsp.a(altera_avalon_uart_init.o)
 .comment       0x00000000       0x27 D:/WorK/Synesthesia/wxp/synesthesia/sw_wxp/de1_limbus_bsp/\libchibios_v240_bsp.a(altera_avalon_uart_read.o)
 .comment       0x00000000       0x27 D:/WorK/Synesthesia/wxp/synesthesia/sw_wxp/de1_limbus_bsp/\libchibios_v240_bsp.a(altera_avalon_uart_write.o)
 .comment       0x00000000       0x27 D:/WorK/Synesthesia/wxp/synesthesia/sw_wxp/de1_limbus_bsp/\libchibios_v240_bsp.a(perf_print_formatted_report.o)
 .comment       0x00000000       0x27 D:/WorK/Synesthesia/wxp/synesthesia/sw_wxp/de1_limbus_bsp/\libchibios_v240_bsp.a(chsys.o)
 .comment       0x00000000       0x27 D:/WorK/Synesthesia/wxp/synesthesia/sw_wxp/de1_limbus_bsp/\libchibios_v240_bsp.a(alt_alarm_start.o)
 .comment       0x00000000       0x27 D:/WorK/Synesthesia/wxp/synesthesia/sw_wxp/de1_limbus_bsp/\libchibios_v240_bsp.a(alt_dcache_flush_all.o)
 .comment       0x00000000       0x27 D:/WorK/Synesthesia/wxp/synesthesia/sw_wxp/de1_limbus_bsp/\libchibios_v240_bsp.a(alt_dev_llist_insert.o)
 .comment       0x00000000       0x27 D:/WorK/Synesthesia/wxp/synesthesia/sw_wxp/de1_limbus_bsp/\libchibios_v240_bsp.a(alt_do_ctors.o)
 .comment       0x00000000       0x27 D:/WorK/Synesthesia/wxp/synesthesia/sw_wxp/de1_limbus_bsp/\libchibios_v240_bsp.a(alt_do_dtors.o)
 .comment       0x00000000       0x27 D:/WorK/Synesthesia/wxp/synesthesia/sw_wxp/de1_limbus_bsp/\libchibios_v240_bsp.a(alt_icache_flush_all.o)
 .comment       0x00000000       0x27 D:/WorK/Synesthesia/wxp/synesthesia/sw_wxp/de1_limbus_bsp/\libchibios_v240_bsp.a(alt_iic.o)
 .comment       0x00000000       0x27 D:/WorK/Synesthesia/wxp/synesthesia/sw_wxp/de1_limbus_bsp/\libchibios_v240_bsp.a(alt_iic_isr_register.o)
 .comment       0x00000000       0x27 D:/WorK/Synesthesia/wxp/synesthesia/sw_wxp/de1_limbus_bsp/\libchibios_v240_bsp.a(alt_io_redirect.o)
 .comment       0x00000000       0x27 D:/WorK/Synesthesia/wxp/synesthesia/sw_wxp/de1_limbus_bsp/\libchibios_v240_bsp.a(alt_irq_handler.o)
 .comment       0x00000000       0x27 D:/WorK/Synesthesia/wxp/synesthesia/sw_wxp/de1_limbus_bsp/\libchibios_v240_bsp.a(alt_irq_vars.o)
 .comment       0x00000000       0x27 D:/WorK/Synesthesia/wxp/synesthesia/sw_wxp/de1_limbus_bsp/\libchibios_v240_bsp.a(alt_open.o)
 .comment       0x00000000       0x27 D:/WorK/Synesthesia/wxp/synesthesia/sw_wxp/de1_limbus_bsp/\libchibios_v240_bsp.a(alt_tick.o)
 .comment       0x00000000       0x27 D:/WorK/Synesthesia/wxp/synesthesia/sw_wxp/de1_limbus_bsp/\libchibios_v240_bsp.a(altera_nios2_qsys_irq.o)
 .comment       0x00000000       0x27 D:/WorK/Synesthesia/wxp/synesthesia/sw_wxp/de1_limbus_bsp/\libchibios_v240_bsp.a(chcore.o)
 .comment       0x00000000       0x27 D:/WorK/Synesthesia/wxp/synesthesia/sw_wxp/de1_limbus_bsp/\libchibios_v240_bsp.a(alt_find_dev.o)
 .comment       0x00000000       0x27 D:/WorK/Synesthesia/wxp/synesthesia/sw_wxp/de1_limbus_bsp/\libchibios_v240_bsp.a(alt_find_file.o)
 .comment       0x00000000       0x27 D:/WorK/Synesthesia/wxp/synesthesia/sw_wxp/de1_limbus_bsp/\libchibios_v240_bsp.a(alt_get_fd.o)
 .comment       0x00000000       0x27 c:/altera/11.1sp2/nios2eds/bin/gnu/h-i686-mingw32/bin/../lib/gcc/nios2-elf/4.1.2/../../../../nios2-elf/lib/mno-hw-mul\libc.a(lib_a-atexit.o)
 .comment       0x00000000       0x27 c:/altera/11.1sp2/nios2eds/bin/gnu/h-i686-mingw32/bin/../lib/gcc/nios2-elf/4.1.2/../../../../nios2-elf/lib/mno-hw-mul\libc.a(lib_a-exit.o)
 .comment       0x00000000       0x27 c:/altera/11.1sp2/nios2eds/bin/gnu/h-i686-mingw32/bin/../lib/gcc/nios2-elf/4.1.2/../../../../nios2-elf/lib/mno-hw-mul\libc.a(lib_a-getc.o)
 .comment       0x00000000       0x27 c:/altera/11.1sp2/nios2eds/bin/gnu/h-i686-mingw32/bin/../lib/gcc/nios2-elf/4.1.2/../../../../nios2-elf/lib/mno-hw-mul\libc.a(lib_a-memcmp.o)
 .comment       0x00000000       0x27 c:/altera/11.1sp2/nios2eds/bin/gnu/h-i686-mingw32/bin/../lib/gcc/nios2-elf/4.1.2/../../../../nios2-elf/lib/mno-hw-mul\libc.a(lib_a-putc.o)
 .comment       0x00000000       0x27 c:/altera/11.1sp2/nios2eds/bin/gnu/h-i686-mingw32/bin/../lib/gcc/nios2-elf/4.1.2/../../../../nios2-elf/lib/mno-hw-mul\libc.a(lib_a-rget.o)
 .comment       0x00000000       0x27 c:/altera/11.1sp2/nios2eds/bin/gnu/h-i686-mingw32/bin/../lib/gcc/nios2-elf/4.1.2/../../../../nios2-elf/lib/mno-hw-mul\libc.a(lib_a-wbuf.o)
 .comment       0x00000000       0x27 c:/altera/11.1sp2/nios2eds/bin/gnu/h-i686-mingw32/bin/../lib/gcc/nios2-elf/4.1.2/../../../../nios2-elf/lib/mno-hw-mul\libc.a(lib_a-__atexit.o)
 .comment       0x00000000       0x27 c:/altera/11.1sp2/nios2eds/bin/gnu/h-i686-mingw32/bin/../lib/gcc/nios2-elf/4.1.2/../../../../nios2-elf/lib/mno-hw-mul\libc.a(lib_a-__call_atexit.o)
 .comment       0x00000000       0x27 c:/altera/11.1sp2/nios2eds/bin/gnu/h-i686-mingw32/bin/../lib/gcc/nios2-elf/4.1.2/../../../../nios2-elf/lib/mno-hw-mul\libc.a(lib_a-refill.o)
 .comment       0x00000000       0x27 c:/altera/11.1sp2/nios2eds/bin/gnu/h-i686-mingw32/bin/../lib/gcc/nios2-elf/4.1.2/mno-hw-mul\libgcc.a(_floatundidf.o)
 .comment       0x00000000       0x27 D:/WorK/Synesthesia/wxp/synesthesia/sw_wxp/de1_limbus_bsp/\libchibios_v240_bsp.a(alt_exit.o)

.debug
 *(.debug)

.line
 *(.line)

.debug_srcinfo
 *(.debug_srcinfo)

.debug_sfnames
 *(.debug_sfnames)

.debug_aranges  0x00000000     0x1238
 *(.debug_aranges)
 .debug_aranges
                0x00000000       0x28 D:/WorK/Synesthesia/wxp/synesthesia/sw_wxp/de1_limbus_bsp//obj/HAL/src/crt0.o
 .debug_aranges
                0x00000028       0x20 obj/default/ledos/codec/codec.o
 .debug_aranges
                0x00000048       0x20 obj/default/ledos/cortex/acortex/acortex.o
 .debug_aranges
                0x00000068       0x20 obj/default/ledos/cortex/acortex/dac/dac_drvr.o
 .debug_aranges
                0x00000088       0x20 obj/default/ledos/cortex/acortex/i2c/i2c_drvr.o
 .debug_aranges
                0x000000a8       0x20 obj/default/ledos/cortex/acortex/prsr/prsr.o
 .debug_aranges
                0x000000c8       0x20 obj/default/ledos/cortex/acortex/sram/sram.o
 .debug_aranges
                0x000000e8       0x20 obj/default/ledos/cortex/cortex.o
 .debug_aranges
                0x00000108       0x20 obj/default/ledos/cortex/fgyrus/fgyrus.o
 .debug_aranges
                0x00000128       0x20 obj/default/ledos/cortex/vcortex/vcortex.o
 .debug_aranges
                0x00000148       0x20 obj/default/ledos/fatfs/diskio.o
 .debug_aranges
                0x00000168       0x20 obj/default/ledos/fatfs/ff.o
 .debug_aranges
                0x00000188       0x20 obj/default/ledos/fft_cache/fft_cache.o
 .debug_aranges
                0x000001a8       0x20 obj/default/ledos/ledos.o
 .debug_aranges
                0x000001c8       0x20 obj/default/ledos/lsd/lsd.o
 .debug_aranges
                0x000001e8       0x20 obj/default/ledos/shell/bash.o
 .debug_aranges
                0x00000208       0x20 obj/default/ledos/shell/shell.o
 .debug_aranges
                0x00000228       0x20 obj/default/main.o
 .debug_aranges
                0x00000248       0x20 c:/altera/11.1sp2/nios2eds/bin/gnu/h-i686-mingw32/bin/../lib/gcc/nios2-elf/4.1.2/mno-hw-mul\libgcc.a(lib2-divmod.o)
 .debug_aranges
                0x00000268       0x20 c:/altera/11.1sp2/nios2eds/bin/gnu/h-i686-mingw32/bin/../lib/gcc/nios2-elf/4.1.2/mno-hw-mul\libgcc.a(lib2-mul.o)
 .debug_aranges
                0x00000288       0x20 c:/altera/11.1sp2/nios2eds/bin/gnu/h-i686-mingw32/bin/../lib/gcc/nios2-elf/4.1.2/../../../../nios2-elf/lib/mno-hw-mul\libc.a(lib_a-printf.o)
 .debug_aranges
                0x000002a8       0x20 c:/altera/11.1sp2/nios2eds/bin/gnu/h-i686-mingw32/bin/../lib/gcc/nios2-elf/4.1.2/../../../../nios2-elf/lib/mno-hw-mul\libc.a(lib_a-strcasecmp.o)
 .debug_aranges
                0x000002c8       0x20 c:/altera/11.1sp2/nios2eds/bin/gnu/h-i686-mingw32/bin/../lib/gcc/nios2-elf/4.1.2/../../../../nios2-elf/lib/mno-hw-mul\libc.a(lib_a-strpbrk.o)
 .debug_aranges
                0x000002e8       0x20 c:/altera/11.1sp2/nios2eds/bin/gnu/h-i686-mingw32/bin/../lib/gcc/nios2-elf/4.1.2/../../../../nios2-elf/lib/mno-hw-mul\libc.a(lib_a-strspn.o)
 .debug_aranges
                0x00000308       0x20 c:/altera/11.1sp2/nios2eds/bin/gnu/h-i686-mingw32/bin/../lib/gcc/nios2-elf/4.1.2/../../../../nios2-elf/lib/mno-hw-mul\libc.a(lib_a-vfprintf.o)
 .debug_aranges
                0x00000328       0x20 c:/altera/11.1sp2/nios2eds/bin/gnu/h-i686-mingw32/bin/../lib/gcc/nios2-elf/4.1.2/../../../../nios2-elf/lib/mno-hw-mul\libc.a(lib_a-wsetup.o)
 .debug_aranges
                0x00000348       0x20 c:/altera/11.1sp2/nios2eds/bin/gnu/h-i686-mingw32/bin/../lib/gcc/nios2-elf/4.1.2/../../../../nios2-elf/lib/mno-hw-mul\libc.a(lib_a-dtoa.o)
 .debug_aranges
                0x00000368       0x20 c:/altera/11.1sp2/nios2eds/bin/gnu/h-i686-mingw32/bin/../lib/gcc/nios2-elf/4.1.2/../../../../nios2-elf/lib/mno-hw-mul\libc.a(lib_a-fflush.o)
 .debug_aranges
                0x00000388       0x20 c:/altera/11.1sp2/nios2eds/bin/gnu/h-i686-mingw32/bin/../lib/gcc/nios2-elf/4.1.2/../../../../nios2-elf/lib/mno-hw-mul\libc.a(lib_a-findfp.o)
 .debug_aranges
                0x000003a8       0x20 c:/altera/11.1sp2/nios2eds/bin/gnu/h-i686-mingw32/bin/../lib/gcc/nios2-elf/4.1.2/../../../../nios2-elf/lib/mno-hw-mul\libc.a(lib_a-freer.o)
 .debug_aranges
                0x000003c8       0x20 c:/altera/11.1sp2/nios2eds/bin/gnu/h-i686-mingw32/bin/../lib/gcc/nios2-elf/4.1.2/../../../../nios2-elf/lib/mno-hw-mul\libc.a(lib_a-fvwrite.o)
 .debug_aranges
                0x000003e8       0x20 c:/altera/11.1sp2/nios2eds/bin/gnu/h-i686-mingw32/bin/../lib/gcc/nios2-elf/4.1.2/../../../../nios2-elf/lib/mno-hw-mul\libc.a(lib_a-fwalk.o)
 .debug_aranges
                0x00000408       0x20 c:/altera/11.1sp2/nios2eds/bin/gnu/h-i686-mingw32/bin/../lib/gcc/nios2-elf/4.1.2/../../../../nios2-elf/lib/mno-hw-mul\libc.a(lib_a-locale.o)
 .debug_aranges
                0x00000428       0x20 c:/altera/11.1sp2/nios2eds/bin/gnu/h-i686-mingw32/bin/../lib/gcc/nios2-elf/4.1.2/../../../../nios2-elf/lib/mno-hw-mul\libc.a(lib_a-makebuf.o)
 .debug_aranges
                0x00000448       0x20 c:/altera/11.1sp2/nios2eds/bin/gnu/h-i686-mingw32/bin/../lib/gcc/nios2-elf/4.1.2/../../../../nios2-elf/lib/mno-hw-mul\libc.a(lib_a-mallocr.o)
 .debug_aranges
                0x00000468       0x20 c:/altera/11.1sp2/nios2eds/bin/gnu/h-i686-mingw32/bin/../lib/gcc/nios2-elf/4.1.2/../../../../nios2-elf/lib/mno-hw-mul\libc.a(lib_a-memchr.o)
 .debug_aranges
                0x00000488       0x20 c:/altera/11.1sp2/nios2eds/bin/gnu/h-i686-mingw32/bin/../lib/gcc/nios2-elf/4.1.2/../../../../nios2-elf/lib/mno-hw-mul\libc.a(lib_a-memcpy.o)
 .debug_aranges
                0x000004a8       0x20 c:/altera/11.1sp2/nios2eds/bin/gnu/h-i686-mingw32/bin/../lib/gcc/nios2-elf/4.1.2/../../../../nios2-elf/lib/mno-hw-mul\libc.a(lib_a-memmove.o)
 .debug_aranges
                0x000004c8       0x20 c:/altera/11.1sp2/nios2eds/bin/gnu/h-i686-mingw32/bin/../lib/gcc/nios2-elf/4.1.2/../../../../nios2-elf/lib/mno-hw-mul\libc.a(lib_a-memset.o)
 .debug_aranges
                0x000004e8       0x20 c:/altera/11.1sp2/nios2eds/bin/gnu/h-i686-mingw32/bin/../lib/gcc/nios2-elf/4.1.2/../../../../nios2-elf/lib/mno-hw-mul\libc.a(lib_a-mprec.o)
 .debug_aranges
                0x00000508       0x20 c:/altera/11.1sp2/nios2eds/bin/gnu/h-i686-mingw32/bin/../lib/gcc/nios2-elf/4.1.2/../../../../nios2-elf/lib/mno-hw-mul\libc.a(lib_a-reallocr.o)
 .debug_aranges
                0x00000528       0x20 c:/altera/11.1sp2/nios2eds/bin/gnu/h-i686-mingw32/bin/../lib/gcc/nios2-elf/4.1.2/../../../../nios2-elf/lib/mno-hw-mul\libc.a(lib_a-s_isinfd.o)
 .debug_aranges
                0x00000548       0x20 c:/altera/11.1sp2/nios2eds/bin/gnu/h-i686-mingw32/bin/../lib/gcc/nios2-elf/4.1.2/../../../../nios2-elf/lib/mno-hw-mul\libc.a(lib_a-s_isnand.o)
 .debug_aranges
                0x00000568       0x20 c:/altera/11.1sp2/nios2eds/bin/gnu/h-i686-mingw32/bin/../lib/gcc/nios2-elf/4.1.2/../../../../nios2-elf/lib/mno-hw-mul\libc.a(lib_a-sbrkr.o)
 .debug_aranges
                0x00000588       0x20 c:/altera/11.1sp2/nios2eds/bin/gnu/h-i686-mingw32/bin/../lib/gcc/nios2-elf/4.1.2/../../../../nios2-elf/lib/mno-hw-mul\libc.a(lib_a-stdio.o)
 .debug_aranges
                0x000005a8       0x20 c:/altera/11.1sp2/nios2eds/bin/gnu/h-i686-mingw32/bin/../lib/gcc/nios2-elf/4.1.2/../../../../nios2-elf/lib/mno-hw-mul\libc.a(lib_a-strcmp.o)
 .debug_aranges
                0x000005c8       0x20 c:/altera/11.1sp2/nios2eds/bin/gnu/h-i686-mingw32/bin/../lib/gcc/nios2-elf/4.1.2/../../../../nios2-elf/lib/mno-hw-mul\libc.a(lib_a-strlen.o)
 .debug_aranges
                0x000005e8       0x20 c:/altera/11.1sp2/nios2eds/bin/gnu/h-i686-mingw32/bin/../lib/gcc/nios2-elf/4.1.2/../../../../nios2-elf/lib/mno-hw-mul\libc.a(lib_a-writer.o)
 .debug_aranges
                0x00000608       0x20 c:/altera/11.1sp2/nios2eds/bin/gnu/h-i686-mingw32/bin/../lib/gcc/nios2-elf/4.1.2/../../../../nios2-elf/lib/mno-hw-mul\libc.a(lib_a-callocr.o)
 .debug_aranges
                0x00000628       0x20 c:/altera/11.1sp2/nios2eds/bin/gnu/h-i686-mingw32/bin/../lib/gcc/nios2-elf/4.1.2/../../../../nios2-elf/lib/mno-hw-mul\libc.a(lib_a-closer.o)
 .debug_aranges
                0x00000648       0x20 c:/altera/11.1sp2/nios2eds/bin/gnu/h-i686-mingw32/bin/../lib/gcc/nios2-elf/4.1.2/../../../../nios2-elf/lib/mno-hw-mul\libc.a(lib_a-fclose.o)
 .debug_aranges
                0x00000668       0x20 c:/altera/11.1sp2/nios2eds/bin/gnu/h-i686-mingw32/bin/../lib/gcc/nios2-elf/4.1.2/../../../../nios2-elf/lib/mno-hw-mul\libc.a(lib_a-fstatr.o)
 .debug_aranges
                0x00000688       0x20 c:/altera/11.1sp2/nios2eds/bin/gnu/h-i686-mingw32/bin/../lib/gcc/nios2-elf/4.1.2/../../../../nios2-elf/lib/mno-hw-mul\libc.a(lib_a-isattyr.o)
 .debug_aranges
                0x000006a8       0x20 c:/altera/11.1sp2/nios2eds/bin/gnu/h-i686-mingw32/bin/../lib/gcc/nios2-elf/4.1.2/../../../../nios2-elf/lib/mno-hw-mul\libc.a(lib_a-lseekr.o)
 .debug_aranges
                0x000006c8       0x20 c:/altera/11.1sp2/nios2eds/bin/gnu/h-i686-mingw32/bin/../lib/gcc/nios2-elf/4.1.2/../../../../nios2-elf/lib/mno-hw-mul\libc.a(lib_a-readr.o)
 .debug_aranges
                0x000006e8       0x20 c:/altera/11.1sp2/nios2eds/bin/gnu/h-i686-mingw32/bin/../lib/gcc/nios2-elf/4.1.2/mno-hw-mul\libgcc.a(_udivdi3.o)
 .debug_aranges
                0x00000708       0x20 c:/altera/11.1sp2/nios2eds/bin/gnu/h-i686-mingw32/bin/../lib/gcc/nios2-elf/4.1.2/mno-hw-mul\libgcc.a(_umoddi3.o)
 .debug_aranges
                0x00000728       0x20 c:/altera/11.1sp2/nios2eds/bin/gnu/h-i686-mingw32/bin/../lib/gcc/nios2-elf/4.1.2/mno-hw-mul\libgcc.a(_addsub_df.o)
 .debug_aranges
                0x00000748       0x20 c:/altera/11.1sp2/nios2eds/bin/gnu/h-i686-mingw32/bin/../lib/gcc/nios2-elf/4.1.2/mno-hw-mul\libgcc.a(_mul_df.o)
 .debug_aranges
                0x00000768       0x20 c:/altera/11.1sp2/nios2eds/bin/gnu/h-i686-mingw32/bin/../lib/gcc/nios2-elf/4.1.2/mno-hw-mul\libgcc.a(_div_df.o)
 .debug_aranges
                0x00000788       0x20 c:/altera/11.1sp2/nios2eds/bin/gnu/h-i686-mingw32/bin/../lib/gcc/nios2-elf/4.1.2/mno-hw-mul\libgcc.a(_eq_df.o)
 .debug_aranges
                0x000007a8       0x20 c:/altera/11.1sp2/nios2eds/bin/gnu/h-i686-mingw32/bin/../lib/gcc/nios2-elf/4.1.2/mno-hw-mul\libgcc.a(_ne_df.o)
 .debug_aranges
                0x000007c8       0x20 c:/altera/11.1sp2/nios2eds/bin/gnu/h-i686-mingw32/bin/../lib/gcc/nios2-elf/4.1.2/mno-hw-mul\libgcc.a(_gt_df.o)
 .debug_aranges
                0x000007e8       0x20 c:/altera/11.1sp2/nios2eds/bin/gnu/h-i686-mingw32/bin/../lib/gcc/nios2-elf/4.1.2/mno-hw-mul\libgcc.a(_ge_df.o)
 .debug_aranges
                0x00000808       0x20 c:/altera/11.1sp2/nios2eds/bin/gnu/h-i686-mingw32/bin/../lib/gcc/nios2-elf/4.1.2/mno-hw-mul\libgcc.a(_lt_df.o)
 .debug_aranges
                0x00000828       0x20 c:/altera/11.1sp2/nios2eds/bin/gnu/h-i686-mingw32/bin/../lib/gcc/nios2-elf/4.1.2/mno-hw-mul\libgcc.a(_si_to_df.o)
 .debug_aranges
                0x00000848       0x20 c:/altera/11.1sp2/nios2eds/bin/gnu/h-i686-mingw32/bin/../lib/gcc/nios2-elf/4.1.2/mno-hw-mul\libgcc.a(_df_to_si.o)
 .debug_aranges
                0x00000868       0x20 c:/altera/11.1sp2/nios2eds/bin/gnu/h-i686-mingw32/bin/../lib/gcc/nios2-elf/4.1.2/mno-hw-mul\libgcc.a(_usi_to_df.o)
 .debug_aranges
                0x00000888       0x20 c:/altera/11.1sp2/nios2eds/bin/gnu/h-i686-mingw32/bin/../lib/gcc/nios2-elf/4.1.2/mno-hw-mul\libgcc.a(_muldi3.o)
 .debug_aranges
                0x000008a8       0x20 c:/altera/11.1sp2/nios2eds/bin/gnu/h-i686-mingw32/bin/../lib/gcc/nios2-elf/4.1.2/mno-hw-mul\libgcc.a(_clzsi2.o)
 .debug_aranges
                0x000008c8       0x20 c:/altera/11.1sp2/nios2eds/bin/gnu/h-i686-mingw32/bin/../lib/gcc/nios2-elf/4.1.2/mno-hw-mul\libgcc.a(_pack_df.o)
 .debug_aranges
                0x000008e8       0x20 c:/altera/11.1sp2/nios2eds/bin/gnu/h-i686-mingw32/bin/../lib/gcc/nios2-elf/4.1.2/mno-hw-mul\libgcc.a(_unpack_df.o)
 .debug_aranges
                0x00000908       0x20 c:/altera/11.1sp2/nios2eds/bin/gnu/h-i686-mingw32/bin/../lib/gcc/nios2-elf/4.1.2/mno-hw-mul\libgcc.a(_fpcmp_parts_df.o)
 .debug_aranges
                0x00000928       0x20 D:/WorK/Synesthesia/wxp/synesthesia/sw_wxp/de1_limbus_bsp/\libchibios_v240_bsp.a(chdynamic.o)
 .debug_aranges
                0x00000948       0x20 D:/WorK/Synesthesia/wxp/synesthesia/sw_wxp/de1_limbus_bsp/\libchibios_v240_bsp.a(chevents.o)
 .debug_aranges
                0x00000968       0x20 D:/WorK/Synesthesia/wxp/synesthesia/sw_wxp/de1_limbus_bsp/\libchibios_v240_bsp.a(chheap.o)
 .debug_aranges
                0x00000988       0x20 D:/WorK/Synesthesia/wxp/synesthesia/sw_wxp/de1_limbus_bsp/\libchibios_v240_bsp.a(chmemcore.o)
 .debug_aranges
                0x000009a8       0x20 D:/WorK/Synesthesia/wxp/synesthesia/sw_wxp/de1_limbus_bsp/\libchibios_v240_bsp.a(chmempools.o)
 .debug_aranges
                0x000009c8       0x20 D:/WorK/Synesthesia/wxp/synesthesia/sw_wxp/de1_limbus_bsp/\libchibios_v240_bsp.a(chmsg.o)
 .debug_aranges
                0x000009e8       0x20 D:/WorK/Synesthesia/wxp/synesthesia/sw_wxp/de1_limbus_bsp/\libchibios_v240_bsp.a(chmtx.o)
 .debug_aranges
                0x00000a08       0x20 D:/WorK/Synesthesia/wxp/synesthesia/sw_wxp/de1_limbus_bsp/\libchibios_v240_bsp.a(chschd.o)
 .debug_aranges
                0x00000a28       0x20 D:/WorK/Synesthesia/wxp/synesthesia/sw_wxp/de1_limbus_bsp/\libchibios_v240_bsp.a(chthreads.o)
 .debug_aranges
                0x00000a48       0x20 D:/WorK/Synesthesia/wxp/synesthesia/sw_wxp/de1_limbus_bsp/\libchibios_v240_bsp.a(chvt.o)
 .debug_aranges
                0x00000a68       0x20 D:/WorK/Synesthesia/wxp/synesthesia/sw_wxp/de1_limbus_bsp/\libchibios_v240_bsp.a(chcoreasm.o)
 .debug_aranges
                0x00000a88       0x20 D:/WorK/Synesthesia/wxp/synesthesia/sw_wxp/de1_limbus_bsp/\libchibios_v240_bsp.a(alt_close.o)
 .debug_aranges
                0x00000aa8       0x20 D:/WorK/Synesthesia/wxp/synesthesia/sw_wxp/de1_limbus_bsp/\libchibios_v240_bsp.a(alt_dev.o)
 .debug_aranges
                0x00000ac8       0x20 D:/WorK/Synesthesia/wxp/synesthesia/sw_wxp/de1_limbus_bsp/\libchibios_v240_bsp.a(alt_fstat.o)
 .debug_aranges
                0x00000ae8       0x20 D:/WorK/Synesthesia/wxp/synesthesia/sw_wxp/de1_limbus_bsp/\libchibios_v240_bsp.a(alt_getchar.o)
 .debug_aranges
                0x00000b08       0x20 D:/WorK/Synesthesia/wxp/synesthesia/sw_wxp/de1_limbus_bsp/\libchibios_v240_bsp.a(alt_isatty.o)
 .debug_aranges
                0x00000b28       0x20 D:/WorK/Synesthesia/wxp/synesthesia/sw_wxp/de1_limbus_bsp/\libchibios_v240_bsp.a(alt_load.o)
 .debug_aranges
                0x00000b48       0x20 D:/WorK/Synesthesia/wxp/synesthesia/sw_wxp/de1_limbus_bsp/\libchibios_v240_bsp.a(alt_lseek.o)
 .debug_aranges
                0x00000b68       0x20 D:/WorK/Synesthesia/wxp/synesthesia/sw_wxp/de1_limbus_bsp/\libchibios_v240_bsp.a(alt_main.o)
 .debug_aranges
                0x00000b88       0x20 D:/WorK/Synesthesia/wxp/synesthesia/sw_wxp/de1_limbus_bsp/\libchibios_v240_bsp.a(alt_malloc_lock.o)
 .debug_aranges
                0x00000ba8       0x20 D:/WorK/Synesthesia/wxp/synesthesia/sw_wxp/de1_limbus_bsp/\libchibios_v240_bsp.a(alt_printf.o)
 .debug_aranges
                0x00000bc8       0x20 D:/WorK/Synesthesia/wxp/synesthesia/sw_wxp/de1_limbus_bsp/\libchibios_v240_bsp.a(alt_putchar.o)
 .debug_aranges
                0x00000be8       0x20 D:/WorK/Synesthesia/wxp/synesthesia/sw_wxp/de1_limbus_bsp/\libchibios_v240_bsp.a(alt_read.o)
 .debug_aranges
                0x00000c08       0x20 D:/WorK/Synesthesia/wxp/synesthesia/sw_wxp/de1_limbus_bsp/\libchibios_v240_bsp.a(alt_release_fd.o)
 .debug_aranges
                0x00000c28       0x20 D:/WorK/Synesthesia/wxp/synesthesia/sw_wxp/de1_limbus_bsp/\libchibios_v240_bsp.a(alt_sbrk.o)
 .debug_aranges
                0x00000c48       0x20 D:/WorK/Synesthesia/wxp/synesthesia/sw_wxp/de1_limbus_bsp/\libchibios_v240_bsp.a(alt_write.o)
 .debug_aranges
                0x00000c68       0x20 D:/WorK/Synesthesia/wxp/synesthesia/sw_wxp/de1_limbus_bsp/\libchibios_v240_bsp.a(alt_sys_init.o)
 .debug_aranges
                0x00000c88       0x20 D:/WorK/Synesthesia/wxp/synesthesia/sw_wxp/de1_limbus_bsp/\libchibios_v240_bsp.a(altera_avalon_jtag_uart_fd.o)
 .debug_aranges
                0x00000ca8       0x20 D:/WorK/Synesthesia/wxp/synesthesia/sw_wxp/de1_limbus_bsp/\libchibios_v240_bsp.a(altera_avalon_jtag_uart_init.o)
 .debug_aranges
                0x00000cc8       0x20 D:/WorK/Synesthesia/wxp/synesthesia/sw_wxp/de1_limbus_bsp/\libchibios_v240_bsp.a(altera_avalon_jtag_uart_ioctl.o)
 .debug_aranges
                0x00000ce8       0x20 D:/WorK/Synesthesia/wxp/synesthesia/sw_wxp/de1_limbus_bsp/\libchibios_v240_bsp.a(altera_avalon_jtag_uart_read.o)
 .debug_aranges
                0x00000d08       0x20 D:/WorK/Synesthesia/wxp/synesthesia/sw_wxp/de1_limbus_bsp/\libchibios_v240_bsp.a(altera_avalon_jtag_uart_write.o)
 .debug_aranges
                0x00000d28       0x20 D:/WorK/Synesthesia/wxp/synesthesia/sw_wxp/de1_limbus_bsp/\libchibios_v240_bsp.a(altera_avalon_performance_counter.o)
 .debug_aranges
                0x00000d48       0x20 D:/WorK/Synesthesia/wxp/synesthesia/sw_wxp/de1_limbus_bsp/\libchibios_v240_bsp.a(altera_avalon_timer_sc.o)
 .debug_aranges
                0x00000d68       0x20 D:/WorK/Synesthesia/wxp/synesthesia/sw_wxp/de1_limbus_bsp/\libchibios_v240_bsp.a(altera_avalon_uart_fd.o)
 .debug_aranges
                0x00000d88       0x20 D:/WorK/Synesthesia/wxp/synesthesia/sw_wxp/de1_limbus_bsp/\libchibios_v240_bsp.a(altera_avalon_uart_init.o)
 .debug_aranges
                0x00000da8       0x20 D:/WorK/Synesthesia/wxp/synesthesia/sw_wxp/de1_limbus_bsp/\libchibios_v240_bsp.a(altera_avalon_uart_read.o)
 .debug_aranges
                0x00000dc8       0x20 D:/WorK/Synesthesia/wxp/synesthesia/sw_wxp/de1_limbus_bsp/\libchibios_v240_bsp.a(altera_avalon_uart_write.o)
 .debug_aranges
                0x00000de8       0x20 D:/WorK/Synesthesia/wxp/synesthesia/sw_wxp/de1_limbus_bsp/\libchibios_v240_bsp.a(perf_print_formatted_report.o)
 .debug_aranges
                0x00000e08       0x20 D:/WorK/Synesthesia/wxp/synesthesia/sw_wxp/de1_limbus_bsp/\libchibios_v240_bsp.a(chsys.o)
 .debug_aranges
                0x00000e28       0x20 D:/WorK/Synesthesia/wxp/synesthesia/sw_wxp/de1_limbus_bsp/\libchibios_v240_bsp.a(alt_alarm_start.o)
 .debug_aranges
                0x00000e48       0x20 D:/WorK/Synesthesia/wxp/synesthesia/sw_wxp/de1_limbus_bsp/\libchibios_v240_bsp.a(alt_dcache_flush_all.o)
 .debug_aranges
                0x00000e68       0x20 D:/WorK/Synesthesia/wxp/synesthesia/sw_wxp/de1_limbus_bsp/\libchibios_v240_bsp.a(alt_dev_llist_insert.o)
 .debug_aranges
                0x00000e88       0x20 D:/WorK/Synesthesia/wxp/synesthesia/sw_wxp/de1_limbus_bsp/\libchibios_v240_bsp.a(alt_do_ctors.o)
 .debug_aranges
                0x00000ea8       0x20 D:/WorK/Synesthesia/wxp/synesthesia/sw_wxp/de1_limbus_bsp/\libchibios_v240_bsp.a(alt_do_dtors.o)
 .debug_aranges
                0x00000ec8       0x20 D:/WorK/Synesthesia/wxp/synesthesia/sw_wxp/de1_limbus_bsp/\libchibios_v240_bsp.a(alt_icache_flush_all.o)
 .debug_aranges
                0x00000ee8       0x20 D:/WorK/Synesthesia/wxp/synesthesia/sw_wxp/de1_limbus_bsp/\libchibios_v240_bsp.a(alt_iic.o)
 .debug_aranges
                0x00000f08       0x20 D:/WorK/Synesthesia/wxp/synesthesia/sw_wxp/de1_limbus_bsp/\libchibios_v240_bsp.a(alt_iic_isr_register.o)
 .debug_aranges
                0x00000f28       0x20 D:/WorK/Synesthesia/wxp/synesthesia/sw_wxp/de1_limbus_bsp/\libchibios_v240_bsp.a(alt_io_redirect.o)
 .debug_aranges
                0x00000f48       0x30 D:/WorK/Synesthesia/wxp/synesthesia/sw_wxp/de1_limbus_bsp/\libchibios_v240_bsp.a(alt_irq_entry.o)
 .debug_aranges
                0x00000f78       0x28 D:/WorK/Synesthesia/wxp/synesthesia/sw_wxp/de1_limbus_bsp/\libchibios_v240_bsp.a(alt_irq_handler.o)
 .debug_aranges
                0x00000fa0       0x20 D:/WorK/Synesthesia/wxp/synesthesia/sw_wxp/de1_limbus_bsp/\libchibios_v240_bsp.a(alt_open.o)
 .debug_aranges
                0x00000fc0       0x20 D:/WorK/Synesthesia/wxp/synesthesia/sw_wxp/de1_limbus_bsp/\libchibios_v240_bsp.a(alt_tick.o)
 .debug_aranges
                0x00000fe0       0x20 D:/WorK/Synesthesia/wxp/synesthesia/sw_wxp/de1_limbus_bsp/\libchibios_v240_bsp.a(altera_nios2_qsys_irq.o)
 .debug_aranges
                0x00001000       0x20 D:/WorK/Synesthesia/wxp/synesthesia/sw_wxp/de1_limbus_bsp/\libchibios_v240_bsp.a(chcore.o)
 .debug_aranges
                0x00001020       0x38 D:/WorK/Synesthesia/wxp/synesthesia/sw_wxp/de1_limbus_bsp/\libchibios_v240_bsp.a(alt_exception_entry.o)
 .debug_aranges
                0x00001058       0x20 D:/WorK/Synesthesia/wxp/synesthesia/sw_wxp/de1_limbus_bsp/\libchibios_v240_bsp.a(alt_find_dev.o)
 .debug_aranges
                0x00001078       0x20 D:/WorK/Synesthesia/wxp/synesthesia/sw_wxp/de1_limbus_bsp/\libchibios_v240_bsp.a(alt_find_file.o)
 .debug_aranges
                0x00001098       0x20 D:/WorK/Synesthesia/wxp/synesthesia/sw_wxp/de1_limbus_bsp/\libchibios_v240_bsp.a(alt_get_fd.o)
 .debug_aranges
                0x000010b8       0x20 c:/altera/11.1sp2/nios2eds/bin/gnu/h-i686-mingw32/bin/../lib/gcc/nios2-elf/4.1.2/../../../../nios2-elf/lib/mno-hw-mul\libc.a(lib_a-atexit.o)
 .debug_aranges
                0x000010d8       0x20 c:/altera/11.1sp2/nios2eds/bin/gnu/h-i686-mingw32/bin/../lib/gcc/nios2-elf/4.1.2/../../../../nios2-elf/lib/mno-hw-mul\libc.a(lib_a-exit.o)
 .debug_aranges
                0x000010f8       0x20 c:/altera/11.1sp2/nios2eds/bin/gnu/h-i686-mingw32/bin/../lib/gcc/nios2-elf/4.1.2/../../../../nios2-elf/lib/mno-hw-mul\libc.a(lib_a-getc.o)
 .debug_aranges
                0x00001118       0x20 c:/altera/11.1sp2/nios2eds/bin/gnu/h-i686-mingw32/bin/../lib/gcc/nios2-elf/4.1.2/../../../../nios2-elf/lib/mno-hw-mul\libc.a(lib_a-memcmp.o)
 .debug_aranges
                0x00001138       0x20 c:/altera/11.1sp2/nios2eds/bin/gnu/h-i686-mingw32/bin/../lib/gcc/nios2-elf/4.1.2/../../../../nios2-elf/lib/mno-hw-mul\libc.a(lib_a-putc.o)
 .debug_aranges
                0x00001158       0x20 c:/altera/11.1sp2/nios2eds/bin/gnu/h-i686-mingw32/bin/../lib/gcc/nios2-elf/4.1.2/../../../../nios2-elf/lib/mno-hw-mul\libc.a(lib_a-rget.o)
 .debug_aranges
                0x00001178       0x20 c:/altera/11.1sp2/nios2eds/bin/gnu/h-i686-mingw32/bin/../lib/gcc/nios2-elf/4.1.2/../../../../nios2-elf/lib/mno-hw-mul\libc.a(lib_a-wbuf.o)
 .debug_aranges
                0x00001198       0x20 c:/altera/11.1sp2/nios2eds/bin/gnu/h-i686-mingw32/bin/../lib/gcc/nios2-elf/4.1.2/../../../../nios2-elf/lib/mno-hw-mul\libc.a(lib_a-__atexit.o)
 .debug_aranges
                0x000011b8       0x20 c:/altera/11.1sp2/nios2eds/bin/gnu/h-i686-mingw32/bin/../lib/gcc/nios2-elf/4.1.2/../../../../nios2-elf/lib/mno-hw-mul\libc.a(lib_a-__call_atexit.o)
 .debug_aranges
                0x000011d8       0x20 c:/altera/11.1sp2/nios2eds/bin/gnu/h-i686-mingw32/bin/../lib/gcc/nios2-elf/4.1.2/../../../../nios2-elf/lib/mno-hw-mul\libc.a(lib_a-refill.o)
 .debug_aranges
                0x000011f8       0x20 c:/altera/11.1sp2/nios2eds/bin/gnu/h-i686-mingw32/bin/../lib/gcc/nios2-elf/4.1.2/mno-hw-mul\libgcc.a(_floatundidf.o)
 .debug_aranges
                0x00001218       0x20 D:/WorK/Synesthesia/wxp/synesthesia/sw_wxp/de1_limbus_bsp/\libchibios_v240_bsp.a(alt_exit.o)

.debug_pubnames
                0x00000000     0x25ab
 *(.debug_pubnames)
 .debug_pubnames
                0x00000000      0x171 obj/default/ledos/codec/codec.o
 .debug_pubnames
                0x00000171       0x59 obj/default/ledos/cortex/acortex/acortex.o
 .debug_pubnames
                0x000001ca       0xc2 obj/default/ledos/cortex/acortex/dac/dac_drvr.o
 .debug_pubnames
                0x0000028c       0x6b obj/default/ledos/cortex/acortex/i2c/i2c_drvr.o
 .debug_pubnames
                0x000002f7       0x7c obj/default/ledos/cortex/acortex/prsr/prsr.o
 .debug_pubnames
                0x00000373       0x33 obj/default/ledos/cortex/acortex/sram/sram.o
 .debug_pubnames
                0x000003a6       0x22 obj/default/ledos/cortex/cortex.o
 .debug_pubnames
                0x000003c8       0x98 obj/default/ledos/cortex/fgyrus/fgyrus.o
 .debug_pubnames
                0x00000460       0x47 obj/default/ledos/cortex/vcortex/vcortex.o
 .debug_pubnames
                0x000004a7       0x9e obj/default/ledos/fatfs/diskio.o
 .debug_pubnames
                0x00000545      0x153 obj/default/ledos/fatfs/ff.o
 .debug_pubnames
                0x00000698       0x25 obj/default/ledos/fft_cache/fft_cache.o
 .debug_pubnames
                0x000006bd       0xbd obj/default/ledos/ledos.o
 .debug_pubnames
                0x0000077a       0x23 obj/default/ledos/lsd/lsd.o
 .debug_pubnames
                0x0000079d       0xc3 obj/default/ledos/shell/bash.o
 .debug_pubnames
                0x00000860       0x6c obj/default/ledos/shell/shell.o
 .debug_pubnames
                0x000008cc       0x1b obj/default/main.o
 .debug_pubnames
                0x000008e7       0x48 c:/altera/11.1sp2/nios2eds/bin/gnu/h-i686-mingw32/bin/../lib/gcc/nios2-elf/4.1.2/mno-hw-mul\libgcc.a(lib2-divmod.o)
 .debug_pubnames
                0x0000092f       0x1f c:/altera/11.1sp2/nios2eds/bin/gnu/h-i686-mingw32/bin/../lib/gcc/nios2-elf/4.1.2/mno-hw-mul\libgcc.a(lib2-mul.o)
 .debug_pubnames
                0x0000094e       0x2b c:/altera/11.1sp2/nios2eds/bin/gnu/h-i686-mingw32/bin/../lib/gcc/nios2-elf/4.1.2/../../../../nios2-elf/lib/mno-hw-mul\libc.a(lib_a-printf.o)
 .debug_pubnames
                0x00000979       0x21 c:/altera/11.1sp2/nios2eds/bin/gnu/h-i686-mingw32/bin/../lib/gcc/nios2-elf/4.1.2/../../../../nios2-elf/lib/mno-hw-mul\libc.a(lib_a-strcasecmp.o)
 .debug_pubnames
                0x0000099a       0x1e c:/altera/11.1sp2/nios2eds/bin/gnu/h-i686-mingw32/bin/../lib/gcc/nios2-elf/4.1.2/../../../../nios2-elf/lib/mno-hw-mul\libc.a(lib_a-strpbrk.o)
 .debug_pubnames
                0x000009b8       0x1d c:/altera/11.1sp2/nios2eds/bin/gnu/h-i686-mingw32/bin/../lib/gcc/nios2-elf/4.1.2/../../../../nios2-elf/lib/mno-hw-mul\libc.a(lib_a-strspn.o)
 .debug_pubnames
                0x000009d5       0x45 c:/altera/11.1sp2/nios2eds/bin/gnu/h-i686-mingw32/bin/../lib/gcc/nios2-elf/4.1.2/../../../../nios2-elf/lib/mno-hw-mul\libc.a(lib_a-vfprintf.o)
 .debug_pubnames
                0x00000a1a       0x22 c:/altera/11.1sp2/nios2eds/bin/gnu/h-i686-mingw32/bin/../lib/gcc/nios2-elf/4.1.2/../../../../nios2-elf/lib/mno-hw-mul\libc.a(lib_a-wsetup.o)
 .debug_pubnames
                0x00000a3c       0x2e c:/altera/11.1sp2/nios2eds/bin/gnu/h-i686-mingw32/bin/../lib/gcc/nios2-elf/4.1.2/../../../../nios2-elf/lib/mno-hw-mul\libc.a(lib_a-ctype_.o)
 .debug_pubnames
                0x00000a6a       0x1e c:/altera/11.1sp2/nios2eds/bin/gnu/h-i686-mingw32/bin/../lib/gcc/nios2-elf/4.1.2/../../../../nios2-elf/lib/mno-hw-mul\libc.a(lib_a-dtoa.o)
 .debug_pubnames
                0x00000a88       0x2b c:/altera/11.1sp2/nios2eds/bin/gnu/h-i686-mingw32/bin/../lib/gcc/nios2-elf/4.1.2/../../../../nios2-elf/lib/mno-hw-mul\libc.a(lib_a-fflush.o)
 .debug_pubnames
                0x00000ab3       0xdb c:/altera/11.1sp2/nios2eds/bin/gnu/h-i686-mingw32/bin/../lib/gcc/nios2-elf/4.1.2/../../../../nios2-elf/lib/mno-hw-mul\libc.a(lib_a-findfp.o)
 .debug_pubnames
                0x00000b8e       0x31 c:/altera/11.1sp2/nios2eds/bin/gnu/h-i686-mingw32/bin/../lib/gcc/nios2-elf/4.1.2/../../../../nios2-elf/lib/mno-hw-mul\libc.a(lib_a-freer.o)
 .debug_pubnames
                0x00000bbf       0x23 c:/altera/11.1sp2/nios2eds/bin/gnu/h-i686-mingw32/bin/../lib/gcc/nios2-elf/4.1.2/../../../../nios2-elf/lib/mno-hw-mul\libc.a(lib_a-fvwrite.o)
 .debug_pubnames
                0x00000be2       0x2e c:/altera/11.1sp2/nios2eds/bin/gnu/h-i686-mingw32/bin/../lib/gcc/nios2-elf/4.1.2/../../../../nios2-elf/lib/mno-hw-mul\libc.a(lib_a-fwalk.o)
 .debug_pubnames
                0x00000c10       0x39 c:/altera/11.1sp2/nios2eds/bin/gnu/h-i686-mingw32/bin/../lib/gcc/nios2-elf/4.1.2/../../../../nios2-elf/lib/mno-hw-mul\libc.a(lib_a-impure.o)
 .debug_pubnames
                0x00000c49       0xc3 c:/altera/11.1sp2/nios2eds/bin/gnu/h-i686-mingw32/bin/../lib/gcc/nios2-elf/4.1.2/../../../../nios2-elf/lib/mno-hw-mul\libc.a(lib_a-locale.o)
 .debug_pubnames
                0x00000d0c       0x23 c:/altera/11.1sp2/nios2eds/bin/gnu/h-i686-mingw32/bin/../lib/gcc/nios2-elf/4.1.2/../../../../nios2-elf/lib/mno-hw-mul\libc.a(lib_a-makebuf.o)
 .debug_pubnames
                0x00000d2f       0xce c:/altera/11.1sp2/nios2eds/bin/gnu/h-i686-mingw32/bin/../lib/gcc/nios2-elf/4.1.2/../../../../nios2-elf/lib/mno-hw-mul\libc.a(lib_a-mallocr.o)
 .debug_pubnames
                0x00000dfd       0x1d c:/altera/11.1sp2/nios2eds/bin/gnu/h-i686-mingw32/bin/../lib/gcc/nios2-elf/4.1.2/../../../../nios2-elf/lib/mno-hw-mul\libc.a(lib_a-memchr.o)
 .debug_pubnames
                0x00000e1a       0x1d c:/altera/11.1sp2/nios2eds/bin/gnu/h-i686-mingw32/bin/../lib/gcc/nios2-elf/4.1.2/../../../../nios2-elf/lib/mno-hw-mul\libc.a(lib_a-memcpy.o)
 .debug_pubnames
                0x00000e37       0x1e c:/altera/11.1sp2/nios2eds/bin/gnu/h-i686-mingw32/bin/../lib/gcc/nios2-elf/4.1.2/../../../../nios2-elf/lib/mno-hw-mul\libc.a(lib_a-memmove.o)
 .debug_pubnames
                0x00000e55       0x1d c:/altera/11.1sp2/nios2eds/bin/gnu/h-i686-mingw32/bin/../lib/gcc/nios2-elf/4.1.2/../../../../nios2-elf/lib/mno-hw-mul\libc.a(lib_a-memset.o)
 .debug_pubnames
                0x00000e72      0x13a c:/altera/11.1sp2/nios2eds/bin/gnu/h-i686-mingw32/bin/../lib/gcc/nios2-elf/4.1.2/../../../../nios2-elf/lib/mno-hw-mul\libc.a(lib_a-mprec.o)
 .debug_pubnames
                0x00000fac       0x21 c:/altera/11.1sp2/nios2eds/bin/gnu/h-i686-mingw32/bin/../lib/gcc/nios2-elf/4.1.2/../../../../nios2-elf/lib/mno-hw-mul\libc.a(lib_a-reallocr.o)
 .debug_pubnames
                0x00000fcd       0x1f c:/altera/11.1sp2/nios2eds/bin/gnu/h-i686-mingw32/bin/../lib/gcc/nios2-elf/4.1.2/../../../../nios2-elf/lib/mno-hw-mul\libc.a(lib_a-s_isinfd.o)
 .debug_pubnames
                0x00000fec       0x1f c:/altera/11.1sp2/nios2eds/bin/gnu/h-i686-mingw32/bin/../lib/gcc/nios2-elf/4.1.2/../../../../nios2-elf/lib/mno-hw-mul\libc.a(lib_a-s_isnand.o)
 .debug_pubnames
                0x0000100b       0x1e c:/altera/11.1sp2/nios2eds/bin/gnu/h-i686-mingw32/bin/../lib/gcc/nios2-elf/4.1.2/../../../../nios2-elf/lib/mno-hw-mul\libc.a(lib_a-sbrkr.o)
 .debug_pubnames
                0x00001029       0x44 c:/altera/11.1sp2/nios2eds/bin/gnu/h-i686-mingw32/bin/../lib/gcc/nios2-elf/4.1.2/../../../../nios2-elf/lib/mno-hw-mul\libc.a(lib_a-stdio.o)
 .debug_pubnames
                0x0000106d       0x1d c:/altera/11.1sp2/nios2eds/bin/gnu/h-i686-mingw32/bin/../lib/gcc/nios2-elf/4.1.2/../../../../nios2-elf/lib/mno-hw-mul\libc.a(lib_a-strcmp.o)
 .debug_pubnames
                0x0000108a       0x1d c:/altera/11.1sp2/nios2eds/bin/gnu/h-i686-mingw32/bin/../lib/gcc/nios2-elf/4.1.2/../../../../nios2-elf/lib/mno-hw-mul\libc.a(lib_a-strlen.o)
 .debug_pubnames
                0x000010a7       0x1f c:/altera/11.1sp2/nios2eds/bin/gnu/h-i686-mingw32/bin/../lib/gcc/nios2-elf/4.1.2/../../../../nios2-elf/lib/mno-hw-mul\libc.a(lib_a-writer.o)
 .debug_pubnames
                0x000010c6       0x20 c:/altera/11.1sp2/nios2eds/bin/gnu/h-i686-mingw32/bin/../lib/gcc/nios2-elf/4.1.2/../../../../nios2-elf/lib/mno-hw-mul\libc.a(lib_a-callocr.o)
 .debug_pubnames
                0x000010e6       0x1f c:/altera/11.1sp2/nios2eds/bin/gnu/h-i686-mingw32/bin/../lib/gcc/nios2-elf/4.1.2/../../../../nios2-elf/lib/mno-hw-mul\libc.a(lib_a-closer.o)
 .debug_pubnames
                0x00001105       0x2b c:/altera/11.1sp2/nios2eds/bin/gnu/h-i686-mingw32/bin/../lib/gcc/nios2-elf/4.1.2/../../../../nios2-elf/lib/mno-hw-mul\libc.a(lib_a-fclose.o)
 .debug_pubnames
                0x00001130       0x1f c:/altera/11.1sp2/nios2eds/bin/gnu/h-i686-mingw32/bin/../lib/gcc/nios2-elf/4.1.2/../../../../nios2-elf/lib/mno-hw-mul\libc.a(lib_a-fstatr.o)
 .debug_pubnames
                0x0000114f       0x1c c:/altera/11.1sp2/nios2eds/bin/gnu/h-i686-mingw32/bin/../lib/gcc/nios2-elf/4.1.2/../../../../nios2-elf/lib/mno-hw-mul\libc.a(lib_a-int_errno.o)
 .debug_pubnames
                0x0000116b       0x20 c:/altera/11.1sp2/nios2eds/bin/gnu/h-i686-mingw32/bin/../lib/gcc/nios2-elf/4.1.2/../../../../nios2-elf/lib/mno-hw-mul\libc.a(lib_a-isattyr.o)
 .debug_pubnames
                0x0000118b       0x1f c:/altera/11.1sp2/nios2eds/bin/gnu/h-i686-mingw32/bin/../lib/gcc/nios2-elf/4.1.2/../../../../nios2-elf/lib/mno-hw-mul\libc.a(lib_a-lseekr.o)
 .debug_pubnames
                0x000011aa       0x1e c:/altera/11.1sp2/nios2eds/bin/gnu/h-i686-mingw32/bin/../lib/gcc/nios2-elf/4.1.2/../../../../nios2-elf/lib/mno-hw-mul\libc.a(lib_a-readr.o)
 .debug_pubnames
                0x000011c8       0x20 c:/altera/11.1sp2/nios2eds/bin/gnu/h-i686-mingw32/bin/../lib/gcc/nios2-elf/4.1.2/mno-hw-mul\libgcc.a(_udivdi3.o)
 .debug_pubnames
                0x000011e8       0x20 c:/altera/11.1sp2/nios2eds/bin/gnu/h-i686-mingw32/bin/../lib/gcc/nios2-elf/4.1.2/mno-hw-mul\libgcc.a(_umoddi3.o)
 .debug_pubnames
                0x00001208       0x2c c:/altera/11.1sp2/nios2eds/bin/gnu/h-i686-mingw32/bin/../lib/gcc/nios2-elf/4.1.2/mno-hw-mul\libgcc.a(_addsub_df.o)
 .debug_pubnames
                0x00001234       0x1f c:/altera/11.1sp2/nios2eds/bin/gnu/h-i686-mingw32/bin/../lib/gcc/nios2-elf/4.1.2/mno-hw-mul\libgcc.a(_mul_df.o)
 .debug_pubnames
                0x00001253       0x1f c:/altera/11.1sp2/nios2eds/bin/gnu/h-i686-mingw32/bin/../lib/gcc/nios2-elf/4.1.2/mno-hw-mul\libgcc.a(_div_df.o)
 .debug_pubnames
                0x00001272       0x1e c:/altera/11.1sp2/nios2eds/bin/gnu/h-i686-mingw32/bin/../lib/gcc/nios2-elf/4.1.2/mno-hw-mul\libgcc.a(_eq_df.o)
 .debug_pubnames
                0x00001290       0x1e c:/altera/11.1sp2/nios2eds/bin/gnu/h-i686-mingw32/bin/../lib/gcc/nios2-elf/4.1.2/mno-hw-mul\libgcc.a(_ne_df.o)
 .debug_pubnames
                0x000012ae       0x1e c:/altera/11.1sp2/nios2eds/bin/gnu/h-i686-mingw32/bin/../lib/gcc/nios2-elf/4.1.2/mno-hw-mul\libgcc.a(_gt_df.o)
 .debug_pubnames
                0x000012cc       0x1e c:/altera/11.1sp2/nios2eds/bin/gnu/h-i686-mingw32/bin/../lib/gcc/nios2-elf/4.1.2/mno-hw-mul\libgcc.a(_ge_df.o)
 .debug_pubnames
                0x000012ea       0x1e c:/altera/11.1sp2/nios2eds/bin/gnu/h-i686-mingw32/bin/../lib/gcc/nios2-elf/4.1.2/mno-hw-mul\libgcc.a(_lt_df.o)
 .debug_pubnames
                0x00001308       0x22 c:/altera/11.1sp2/nios2eds/bin/gnu/h-i686-mingw32/bin/../lib/gcc/nios2-elf/4.1.2/mno-hw-mul\libgcc.a(_si_to_df.o)
 .debug_pubnames
                0x0000132a       0x20 c:/altera/11.1sp2/nios2eds/bin/gnu/h-i686-mingw32/bin/../lib/gcc/nios2-elf/4.1.2/mno-hw-mul\libgcc.a(_df_to_si.o)
 .debug_pubnames
                0x0000134a       0x22 c:/altera/11.1sp2/nios2eds/bin/gnu/h-i686-mingw32/bin/../lib/gcc/nios2-elf/4.1.2/mno-hw-mul\libgcc.a(_thenan_df.o)
 .debug_pubnames
                0x0000136c       0x24 c:/altera/11.1sp2/nios2eds/bin/gnu/h-i686-mingw32/bin/../lib/gcc/nios2-elf/4.1.2/mno-hw-mul\libgcc.a(_usi_to_df.o)
 .debug_pubnames
                0x00001390       0x1f c:/altera/11.1sp2/nios2eds/bin/gnu/h-i686-mingw32/bin/../lib/gcc/nios2-elf/4.1.2/mno-hw-mul\libgcc.a(_muldi3.o)
 .debug_pubnames
                0x000013af       0x20 c:/altera/11.1sp2/nios2eds/bin/gnu/h-i686-mingw32/bin/../lib/gcc/nios2-elf/4.1.2/mno-hw-mul\libgcc.a(_clz.o)
 .debug_pubnames
                0x000013cf       0x1f c:/altera/11.1sp2/nios2eds/bin/gnu/h-i686-mingw32/bin/../lib/gcc/nios2-elf/4.1.2/mno-hw-mul\libgcc.a(_clzsi2.o)
 .debug_pubnames
                0x000013ee       0x1f c:/altera/11.1sp2/nios2eds/bin/gnu/h-i686-mingw32/bin/../lib/gcc/nios2-elf/4.1.2/mno-hw-mul\libgcc.a(_pack_df.o)
 .debug_pubnames
                0x0000140d       0x21 c:/altera/11.1sp2/nios2eds/bin/gnu/h-i686-mingw32/bin/../lib/gcc/nios2-elf/4.1.2/mno-hw-mul\libgcc.a(_unpack_df.o)
 .debug_pubnames
                0x0000142e       0x26 c:/altera/11.1sp2/nios2eds/bin/gnu/h-i686-mingw32/bin/../lib/gcc/nios2-elf/4.1.2/mno-hw-mul\libgcc.a(_fpcmp_parts_df.o)
 .debug_pubnames
                0x00001454       0x69 D:/WorK/Synesthesia/wxp/synesthesia/sw_wxp/de1_limbus_bsp/\libchibios_v240_bsp.a(chdynamic.o)
 .debug_pubnames
                0x000014bd      0x14b D:/WorK/Synesthesia/wxp/synesthesia/sw_wxp/de1_limbus_bsp/\libchibios_v240_bsp.a(chevents.o)
 .debug_pubnames
                0x00001608       0x60 D:/WorK/Synesthesia/wxp/synesthesia/sw_wxp/de1_limbus_bsp/\libchibios_v240_bsp.a(chheap.o)
 .debug_pubnames
                0x00001668       0x53 D:/WorK/Synesthesia/wxp/synesthesia/sw_wxp/de1_limbus_bsp/\libchibios_v240_bsp.a(chmemcore.o)
 .debug_pubnames
                0x000016bb       0x61 D:/WorK/Synesthesia/wxp/synesthesia/sw_wxp/de1_limbus_bsp/\libchibios_v240_bsp.a(chmempools.o)
 .debug_pubnames
                0x0000171c       0x3f D:/WorK/Synesthesia/wxp/synesthesia/sw_wxp/de1_limbus_bsp/\libchibios_v240_bsp.a(chmsg.o)
 .debug_pubnames
                0x0000175b       0x94 D:/WorK/Synesthesia/wxp/synesthesia/sw_wxp/de1_limbus_bsp/\libchibios_v240_bsp.a(chmtx.o)
 .debug_pubnames
                0x000017ef       0xc5 D:/WorK/Synesthesia/wxp/synesthesia/sw_wxp/de1_limbus_bsp/\libchibios_v240_bsp.a(chschd.o)
 .debug_pubnames
                0x000018b4       0xdf D:/WorK/Synesthesia/wxp/synesthesia/sw_wxp/de1_limbus_bsp/\libchibios_v240_bsp.a(chthreads.o)
 .debug_pubnames
                0x00001993       0x59 D:/WorK/Synesthesia/wxp/synesthesia/sw_wxp/de1_limbus_bsp/\libchibios_v240_bsp.a(chvt.o)
 .debug_pubnames
                0x000019ec       0x1c D:/WorK/Synesthesia/wxp/synesthesia/sw_wxp/de1_limbus_bsp/\libchibios_v240_bsp.a(alt_close.o)
 .debug_pubnames
                0x00001a08       0x63 D:/WorK/Synesthesia/wxp/synesthesia/sw_wxp/de1_limbus_bsp/\libchibios_v240_bsp.a(alt_dev.o)
 .debug_pubnames
                0x00001a6b       0x20 D:/WorK/Synesthesia/wxp/synesthesia/sw_wxp/de1_limbus_bsp/\libchibios_v240_bsp.a(alt_errno.o)
 .debug_pubnames
                0x00001a8b       0x1c D:/WorK/Synesthesia/wxp/synesthesia/sw_wxp/de1_limbus_bsp/\libchibios_v240_bsp.a(alt_fstat.o)
 .debug_pubnames
                0x00001aa7       0x22 D:/WorK/Synesthesia/wxp/synesthesia/sw_wxp/de1_limbus_bsp/\libchibios_v240_bsp.a(alt_getchar.o)
 .debug_pubnames
                0x00001ac9       0x1d D:/WorK/Synesthesia/wxp/synesthesia/sw_wxp/de1_limbus_bsp/\libchibios_v240_bsp.a(alt_isatty.o)
 .debug_pubnames
                0x00001ae6       0x1f D:/WorK/Synesthesia/wxp/synesthesia/sw_wxp/de1_limbus_bsp/\libchibios_v240_bsp.a(alt_load.o)
 .debug_pubnames
                0x00001b05       0x1c D:/WorK/Synesthesia/wxp/synesthesia/sw_wxp/de1_limbus_bsp/\libchibios_v240_bsp.a(alt_lseek.o)
 .debug_pubnames
                0x00001b21       0x46 D:/WorK/Synesthesia/wxp/synesthesia/sw_wxp/de1_limbus_bsp/\libchibios_v240_bsp.a(alt_main.o)
 .debug_pubnames
                0x00001b67       0x38 D:/WorK/Synesthesia/wxp/synesthesia/sw_wxp/de1_limbus_bsp/\libchibios_v240_bsp.a(alt_malloc_lock.o)
 .debug_pubnames
                0x00001b9f       0x21 D:/WorK/Synesthesia/wxp/synesthesia/sw_wxp/de1_limbus_bsp/\libchibios_v240_bsp.a(alt_printf.o)
 .debug_pubnames
                0x00001bc0       0x22 D:/WorK/Synesthesia/wxp/synesthesia/sw_wxp/de1_limbus_bsp/\libchibios_v240_bsp.a(alt_putchar.o)
 .debug_pubnames
                0x00001be2       0x1b D:/WorK/Synesthesia/wxp/synesthesia/sw_wxp/de1_limbus_bsp/\libchibios_v240_bsp.a(alt_read.o)
 .debug_pubnames
                0x00001bfd       0x25 D:/WorK/Synesthesia/wxp/synesthesia/sw_wxp/de1_limbus_bsp/\libchibios_v240_bsp.a(alt_release_fd.o)
 .debug_pubnames
                0x00001c22       0x1b D:/WorK/Synesthesia/wxp/synesthesia/sw_wxp/de1_limbus_bsp/\libchibios_v240_bsp.a(alt_sbrk.o)
 .debug_pubnames
                0x00001c3d       0x1c D:/WorK/Synesthesia/wxp/synesthesia/sw_wxp/de1_limbus_bsp/\libchibios_v240_bsp.a(alt_write.o)
 .debug_pubnames
                0x00001c59       0x34 D:/WorK/Synesthesia/wxp/synesthesia/sw_wxp/de1_limbus_bsp/\libchibios_v240_bsp.a(alt_sys_init.o)
 .debug_pubnames
                0x00001c8d       0xa5 D:/WorK/Synesthesia/wxp/synesthesia/sw_wxp/de1_limbus_bsp/\libchibios_v240_bsp.a(altera_avalon_jtag_uart_fd.o)
 .debug_pubnames
                0x00001d32       0x55 D:/WorK/Synesthesia/wxp/synesthesia/sw_wxp/de1_limbus_bsp/\libchibios_v240_bsp.a(altera_avalon_jtag_uart_init.o)
 .debug_pubnames
                0x00001d87       0x34 D:/WorK/Synesthesia/wxp/synesthesia/sw_wxp/de1_limbus_bsp/\libchibios_v240_bsp.a(altera_avalon_jtag_uart_ioctl.o)
 .debug_pubnames
                0x00001dbb       0x33 D:/WorK/Synesthesia/wxp/synesthesia/sw_wxp/de1_limbus_bsp/\libchibios_v240_bsp.a(altera_avalon_jtag_uart_read.o)
 .debug_pubnames
                0x00001dee       0x34 D:/WorK/Synesthesia/wxp/synesthesia/sw_wxp/de1_limbus_bsp/\libchibios_v240_bsp.a(altera_avalon_jtag_uart_write.o)
 .debug_pubnames
                0x00001e22       0x96 D:/WorK/Synesthesia/wxp/synesthesia/sw_wxp/de1_limbus_bsp/\libchibios_v240_bsp.a(altera_avalon_performance_counter.o)
 .debug_pubnames
                0x00001eb8       0x2f D:/WorK/Synesthesia/wxp/synesthesia/sw_wxp/de1_limbus_bsp/\libchibios_v240_bsp.a(altera_avalon_timer_sc.o)
 .debug_pubnames
                0x00001ee7       0x71 D:/WorK/Synesthesia/wxp/synesthesia/sw_wxp/de1_limbus_bsp/\libchibios_v240_bsp.a(altera_avalon_uart_fd.o)
 .debug_pubnames
                0x00001f58       0x4b D:/WorK/Synesthesia/wxp/synesthesia/sw_wxp/de1_limbus_bsp/\libchibios_v240_bsp.a(altera_avalon_uart_init.o)
 .debug_pubnames
                0x00001fa3       0x2e D:/WorK/Synesthesia/wxp/synesthesia/sw_wxp/de1_limbus_bsp/\libchibios_v240_bsp.a(altera_avalon_uart_read.o)
 .debug_pubnames
                0x00001fd1       0x2f D:/WorK/Synesthesia/wxp/synesthesia/sw_wxp/de1_limbus_bsp/\libchibios_v240_bsp.a(altera_avalon_uart_write.o)
 .debug_pubnames
                0x00002000       0x32 D:/WorK/Synesthesia/wxp/synesthesia/sw_wxp/de1_limbus_bsp/\libchibios_v240_bsp.a(perf_print_formatted_report.o)
 .debug_pubnames
                0x00002032       0x5c D:/WorK/Synesthesia/wxp/synesthesia/sw_wxp/de1_limbus_bsp/\libchibios_v240_bsp.a(chsys.o)
 .debug_pubnames
                0x0000208e       0x26 D:/WorK/Synesthesia/wxp/synesthesia/sw_wxp/de1_limbus_bsp/\libchibios_v240_bsp.a(alt_alarm_start.o)
 .debug_pubnames
                0x000020b4       0x2b D:/WorK/Synesthesia/wxp/synesthesia/sw_wxp/de1_limbus_bsp/\libchibios_v240_bsp.a(alt_dcache_flush_all.o)
 .debug_pubnames
                0x000020df       0x2b D:/WorK/Synesthesia/wxp/synesthesia/sw_wxp/de1_limbus_bsp/\libchibios_v240_bsp.a(alt_dev_llist_insert.o)
 .debug_pubnames
                0x0000210a       0x20 D:/WorK/Synesthesia/wxp/synesthesia/sw_wxp/de1_limbus_bsp/\libchibios_v240_bsp.a(alt_do_ctors.o)
 .debug_pubnames
                0x0000212a       0x20 D:/WorK/Synesthesia/wxp/synesthesia/sw_wxp/de1_limbus_bsp/\libchibios_v240_bsp.a(alt_do_dtors.o)
 .debug_pubnames
                0x0000214a       0x2b D:/WorK/Synesthesia/wxp/synesthesia/sw_wxp/de1_limbus_bsp/\libchibios_v240_bsp.a(alt_icache_flush_all.o)
 .debug_pubnames
                0x00002175       0x6e D:/WorK/Synesthesia/wxp/synesthesia/sw_wxp/de1_limbus_bsp/\libchibios_v240_bsp.a(alt_iic.o)
 .debug_pubnames
                0x000021e3       0x2b D:/WorK/Synesthesia/wxp/synesthesia/sw_wxp/de1_limbus_bsp/\libchibios_v240_bsp.a(alt_iic_isr_register.o)
 .debug_pubnames
                0x0000220e       0x26 D:/WorK/Synesthesia/wxp/synesthesia/sw_wxp/de1_limbus_bsp/\libchibios_v240_bsp.a(alt_io_redirect.o)
 .debug_pubnames
                0x00002234       0x32 D:/WorK/Synesthesia/wxp/synesthesia/sw_wxp/de1_limbus_bsp/\libchibios_v240_bsp.a(alt_irq_handler.o)
 .debug_pubnames
                0x00002266       0x3b D:/WorK/Synesthesia/wxp/synesthesia/sw_wxp/de1_limbus_bsp/\libchibios_v240_bsp.a(alt_irq_vars.o)
 .debug_pubnames
                0x000022a1       0x1b D:/WorK/Synesthesia/wxp/synesthesia/sw_wxp/de1_limbus_bsp/\libchibios_v240_bsp.a(alt_open.o)
 .debug_pubnames
                0x000022bc       0x68 D:/WorK/Synesthesia/wxp/synesthesia/sw_wxp/de1_limbus_bsp/\libchibios_v240_bsp.a(alt_tick.o)
 .debug_pubnames
                0x00002324       0x31 D:/WorK/Synesthesia/wxp/synesthesia/sw_wxp/de1_limbus_bsp/\libchibios_v240_bsp.a(altera_nios2_qsys_irq.o)
 .debug_pubnames
                0x00002355       0x33 D:/WorK/Synesthesia/wxp/synesthesia/sw_wxp/de1_limbus_bsp/\libchibios_v240_bsp.a(chcore.o)
 .debug_pubnames
                0x00002388       0x23 D:/WorK/Synesthesia/wxp/synesthesia/sw_wxp/de1_limbus_bsp/\libchibios_v240_bsp.a(alt_find_dev.o)
 .debug_pubnames
                0x000023ab       0x24 D:/WorK/Synesthesia/wxp/synesthesia/sw_wxp/de1_limbus_bsp/\libchibios_v240_bsp.a(alt_find_file.o)
 .debug_pubnames
                0x000023cf       0x21 D:/WorK/Synesthesia/wxp/synesthesia/sw_wxp/de1_limbus_bsp/\libchibios_v240_bsp.a(alt_get_fd.o)
 .debug_pubnames
                0x000023f0       0x2a c:/altera/11.1sp2/nios2eds/bin/gnu/h-i686-mingw32/bin/../lib/gcc/nios2-elf/4.1.2/../../../../nios2-elf/lib/mno-hw-mul\libc.a(lib_a-atexit.o)
 .debug_pubnames
                0x0000241a       0x1b c:/altera/11.1sp2/nios2eds/bin/gnu/h-i686-mingw32/bin/../lib/gcc/nios2-elf/4.1.2/../../../../nios2-elf/lib/mno-hw-mul\libc.a(lib_a-exit.o)
 .debug_pubnames
                0x00002435       0x27 c:/altera/11.1sp2/nios2eds/bin/gnu/h-i686-mingw32/bin/../lib/gcc/nios2-elf/4.1.2/../../../../nios2-elf/lib/mno-hw-mul\libc.a(lib_a-getc.o)
 .debug_pubnames
                0x0000245c       0x1d c:/altera/11.1sp2/nios2eds/bin/gnu/h-i686-mingw32/bin/../lib/gcc/nios2-elf/4.1.2/../../../../nios2-elf/lib/mno-hw-mul\libc.a(lib_a-memcmp.o)
 .debug_pubnames
                0x00002479       0x27 c:/altera/11.1sp2/nios2eds/bin/gnu/h-i686-mingw32/bin/../lib/gcc/nios2-elf/4.1.2/../../../../nios2-elf/lib/mno-hw-mul\libc.a(lib_a-putc.o)
 .debug_pubnames
                0x000024a0       0x2c c:/altera/11.1sp2/nios2eds/bin/gnu/h-i686-mingw32/bin/../lib/gcc/nios2-elf/4.1.2/../../../../nios2-elf/lib/mno-hw-mul\libc.a(lib_a-rget.o)
 .debug_pubnames
                0x000024cc       0x2c c:/altera/11.1sp2/nios2eds/bin/gnu/h-i686-mingw32/bin/../lib/gcc/nios2-elf/4.1.2/../../../../nios2-elf/lib/mno-hw-mul\libc.a(lib_a-wbuf.o)
 .debug_pubnames
                0x000024f8       0x2a c:/altera/11.1sp2/nios2eds/bin/gnu/h-i686-mingw32/bin/../lib/gcc/nios2-elf/4.1.2/../../../../nios2-elf/lib/mno-hw-mul\libc.a(lib_a-__atexit.o)
 .debug_pubnames
                0x00002522       0x27 c:/altera/11.1sp2/nios2eds/bin/gnu/h-i686-mingw32/bin/../lib/gcc/nios2-elf/4.1.2/../../../../nios2-elf/lib/mno-hw-mul\libc.a(lib_a-__call_atexit.o)
 .debug_pubnames
                0x00002549       0x22 c:/altera/11.1sp2/nios2eds/bin/gnu/h-i686-mingw32/bin/../lib/gcc/nios2-elf/4.1.2/../../../../nios2-elf/lib/mno-hw-mul\libc.a(lib_a-refill.o)
 .debug_pubnames
                0x0000256b       0x24 c:/altera/11.1sp2/nios2eds/bin/gnu/h-i686-mingw32/bin/../lib/gcc/nios2-elf/4.1.2/mno-hw-mul\libgcc.a(_floatundidf.o)
 .debug_pubnames
                0x0000258f       0x1c D:/WorK/Synesthesia/wxp/synesthesia/sw_wxp/de1_limbus_bsp/\libchibios_v240_bsp.a(alt_exit.o)

.debug_info     0x00000000    0x3403e
 *(.debug_info .gnu.linkonce.wi.*)
 .debug_info    0x00000000       0x6b D:/WorK/Synesthesia/wxp/synesthesia/sw_wxp/de1_limbus_bsp//obj/HAL/src/crt0.o
 .debug_info    0x0000006b      0x469 obj/default/ledos/codec/codec.o
 .debug_info    0x000004d4      0x2c7 obj/default/ledos/cortex/acortex/acortex.o
 .debug_info    0x0000079b      0x30a obj/default/ledos/cortex/acortex/dac/dac_drvr.o
 .debug_info    0x00000aa5      0x1d9 obj/default/ledos/cortex/acortex/i2c/i2c_drvr.o
 .debug_info    0x00000c7e      0x18f obj/default/ledos/cortex/acortex/prsr/prsr.o
 .debug_info    0x00000e0d       0xed obj/default/ledos/cortex/acortex/sram/sram.o
 .debug_info    0x00000efa      0x1cd obj/default/ledos/cortex/cortex.o
 .debug_info    0x000010c7      0x2e3 obj/default/ledos/cortex/fgyrus/fgyrus.o
 .debug_info    0x000013aa      0x10e obj/default/ledos/cortex/vcortex/vcortex.o
 .debug_info    0x000014b8      0x5f4 obj/default/ledos/fatfs/diskio.o
 .debug_info    0x00001aac     0x1908 obj/default/ledos/fatfs/ff.o
 .debug_info    0x000033b4       0xc8 obj/default/ledos/fft_cache/fft_cache.o
 .debug_info    0x0000347c      0x94c obj/default/ledos/ledos.o
 .debug_info    0x00003dc8      0x255 obj/default/ledos/lsd/lsd.o
 .debug_info    0x0000401d      0xea1 obj/default/ledos/shell/bash.o
 .debug_info    0x00004ebe      0x9bd obj/default/ledos/shell/shell.o
 .debug_info    0x0000587b      0x292 obj/default/main.o
 .debug_info    0x00005b0d      0x21c c:/altera/11.1sp2/nios2eds/bin/gnu/h-i686-mingw32/bin/../lib/gcc/nios2-elf/4.1.2/mno-hw-mul\libgcc.a(lib2-divmod.o)
 .debug_info    0x00005d29       0xf3 c:/altera/11.1sp2/nios2eds/bin/gnu/h-i686-mingw32/bin/../lib/gcc/nios2-elf/4.1.2/mno-hw-mul\libgcc.a(lib2-mul.o)
 .debug_info    0x00005e1c      0x9d1 c:/altera/11.1sp2/nios2eds/bin/gnu/h-i686-mingw32/bin/../lib/gcc/nios2-elf/4.1.2/../../../../nios2-elf/lib/mno-hw-mul\libc.a(lib_a-printf.o)
 .debug_info    0x000067ed      0x13a c:/altera/11.1sp2/nios2eds/bin/gnu/h-i686-mingw32/bin/../lib/gcc/nios2-elf/4.1.2/../../../../nios2-elf/lib/mno-hw-mul\libc.a(lib_a-strcasecmp.o)
 .debug_info    0x00006927       0xc8 c:/altera/11.1sp2/nios2eds/bin/gnu/h-i686-mingw32/bin/../lib/gcc/nios2-elf/4.1.2/../../../../nios2-elf/lib/mno-hw-mul\libc.a(lib_a-strpbrk.o)
 .debug_info    0x000069ef       0xd8 c:/altera/11.1sp2/nios2eds/bin/gnu/h-i686-mingw32/bin/../lib/gcc/nios2-elf/4.1.2/../../../../nios2-elf/lib/mno-hw-mul\libc.a(lib_a-strspn.o)
 .debug_info    0x00006ac7     0x10d5 c:/altera/11.1sp2/nios2eds/bin/gnu/h-i686-mingw32/bin/../lib/gcc/nios2-elf/4.1.2/../../../../nios2-elf/lib/mno-hw-mul\libc.a(lib_a-vfprintf.o)
 .debug_info    0x00007b9c      0x95d c:/altera/11.1sp2/nios2eds/bin/gnu/h-i686-mingw32/bin/../lib/gcc/nios2-elf/4.1.2/../../../../nios2-elf/lib/mno-hw-mul\libc.a(lib_a-wsetup.o)
 .debug_info    0x000084f9       0xa0 c:/altera/11.1sp2/nios2eds/bin/gnu/h-i686-mingw32/bin/../lib/gcc/nios2-elf/4.1.2/../../../../nios2-elf/lib/mno-hw-mul\libc.a(lib_a-ctype_.o)
 .debug_info    0x00008599      0xd6f c:/altera/11.1sp2/nios2eds/bin/gnu/h-i686-mingw32/bin/../lib/gcc/nios2-elf/4.1.2/../../../../nios2-elf/lib/mno-hw-mul\libc.a(lib_a-dtoa.o)
 .debug_info    0x00009308      0x9fe c:/altera/11.1sp2/nios2eds/bin/gnu/h-i686-mingw32/bin/../lib/gcc/nios2-elf/4.1.2/../../../../nios2-elf/lib/mno-hw-mul\libc.a(lib_a-fflush.o)
 .debug_info    0x00009d06      0xb72 c:/altera/11.1sp2/nios2eds/bin/gnu/h-i686-mingw32/bin/../lib/gcc/nios2-elf/4.1.2/../../../../nios2-elf/lib/mno-hw-mul\libc.a(lib_a-findfp.o)
 .debug_info    0x0000a878      0xbc9 c:/altera/11.1sp2/nios2eds/bin/gnu/h-i686-mingw32/bin/../lib/gcc/nios2-elf/4.1.2/../../../../nios2-elf/lib/mno-hw-mul\libc.a(lib_a-freer.o)
 .debug_info    0x0000b441      0xa88 c:/altera/11.1sp2/nios2eds/bin/gnu/h-i686-mingw32/bin/../lib/gcc/nios2-elf/4.1.2/../../../../nios2-elf/lib/mno-hw-mul\libc.a(lib_a-fvwrite.o)
 .debug_info    0x0000bec9      0xaed c:/altera/11.1sp2/nios2eds/bin/gnu/h-i686-mingw32/bin/../lib/gcc/nios2-elf/4.1.2/../../../../nios2-elf/lib/mno-hw-mul\libc.a(lib_a-fwalk.o)
 .debug_info    0x0000c9b6      0x93d c:/altera/11.1sp2/nios2eds/bin/gnu/h-i686-mingw32/bin/../lib/gcc/nios2-elf/4.1.2/../../../../nios2-elf/lib/mno-hw-mul\libc.a(lib_a-impure.o)
 .debug_info    0x0000d2f3      0xb97 c:/altera/11.1sp2/nios2eds/bin/gnu/h-i686-mingw32/bin/../lib/gcc/nios2-elf/4.1.2/../../../../nios2-elf/lib/mno-hw-mul\libc.a(lib_a-locale.o)
 .debug_info    0x0000de8a      0xb1a c:/altera/11.1sp2/nios2eds/bin/gnu/h-i686-mingw32/bin/../lib/gcc/nios2-elf/4.1.2/../../../../nios2-elf/lib/mno-hw-mul\libc.a(lib_a-makebuf.o)
 .debug_info    0x0000e9a4      0xcd0 c:/altera/11.1sp2/nios2eds/bin/gnu/h-i686-mingw32/bin/../lib/gcc/nios2-elf/4.1.2/../../../../nios2-elf/lib/mno-hw-mul\libc.a(lib_a-mallocr.o)
 .debug_info    0x0000f674      0x138 c:/altera/11.1sp2/nios2eds/bin/gnu/h-i686-mingw32/bin/../lib/gcc/nios2-elf/4.1.2/../../../../nios2-elf/lib/mno-hw-mul\libc.a(lib_a-memchr.o)
 .debug_info    0x0000f7ac      0x106 c:/altera/11.1sp2/nios2eds/bin/gnu/h-i686-mingw32/bin/../lib/gcc/nios2-elf/4.1.2/../../../../nios2-elf/lib/mno-hw-mul\libc.a(lib_a-memcpy.o)
 .debug_info    0x0000f8b2      0x13e c:/altera/11.1sp2/nios2eds/bin/gnu/h-i686-mingw32/bin/../lib/gcc/nios2-elf/4.1.2/../../../../nios2-elf/lib/mno-hw-mul\libc.a(lib_a-memmove.o)
 .debug_info    0x0000f9f0      0x113 c:/altera/11.1sp2/nios2eds/bin/gnu/h-i686-mingw32/bin/../lib/gcc/nios2-elf/4.1.2/../../../../nios2-elf/lib/mno-hw-mul\libc.a(lib_a-memset.o)
 .debug_info    0x0000fb03     0x143b c:/altera/11.1sp2/nios2eds/bin/gnu/h-i686-mingw32/bin/../lib/gcc/nios2-elf/4.1.2/../../../../nios2-elf/lib/mno-hw-mul\libc.a(lib_a-mprec.o)
 .debug_info    0x00010f3e      0xbd7 c:/altera/11.1sp2/nios2eds/bin/gnu/h-i686-mingw32/bin/../lib/gcc/nios2-elf/4.1.2/../../../../nios2-elf/lib/mno-hw-mul\libc.a(lib_a-reallocr.o)
 .debug_info    0x00011b15       0xd7 c:/altera/11.1sp2/nios2eds/bin/gnu/h-i686-mingw32/bin/../lib/gcc/nios2-elf/4.1.2/../../../../nios2-elf/lib/mno-hw-mul\libc.a(lib_a-s_isinfd.o)
 .debug_info    0x00011bec       0xd5 c:/altera/11.1sp2/nios2eds/bin/gnu/h-i686-mingw32/bin/../lib/gcc/nios2-elf/4.1.2/../../../../nios2-elf/lib/mno-hw-mul\libc.a(lib_a-s_isnand.o)
 .debug_info    0x00011cc1      0x962 c:/altera/11.1sp2/nios2eds/bin/gnu/h-i686-mingw32/bin/../lib/gcc/nios2-elf/4.1.2/../../../../nios2-elf/lib/mno-hw-mul\libc.a(lib_a-sbrkr.o)
 .debug_info    0x00012623      0xaac c:/altera/11.1sp2/nios2eds/bin/gnu/h-i686-mingw32/bin/../lib/gcc/nios2-elf/4.1.2/../../../../nios2-elf/lib/mno-hw-mul\libc.a(lib_a-stdio.o)
 .debug_info    0x000130cf       0xdd c:/altera/11.1sp2/nios2eds/bin/gnu/h-i686-mingw32/bin/../lib/gcc/nios2-elf/4.1.2/../../../../nios2-elf/lib/mno-hw-mul\libc.a(lib_a-strcmp.o)
 .debug_info    0x000131ac       0xdb c:/altera/11.1sp2/nios2eds/bin/gnu/h-i686-mingw32/bin/../lib/gcc/nios2-elf/4.1.2/../../../../nios2-elf/lib/mno-hw-mul\libc.a(lib_a-strlen.o)
 .debug_info    0x00013287      0x993 c:/altera/11.1sp2/nios2eds/bin/gnu/h-i686-mingw32/bin/../lib/gcc/nios2-elf/4.1.2/../../../../nios2-elf/lib/mno-hw-mul\libc.a(lib_a-writer.o)
 .debug_info    0x00013c1a      0xa1b c:/altera/11.1sp2/nios2eds/bin/gnu/h-i686-mingw32/bin/../lib/gcc/nios2-elf/4.1.2/../../../../nios2-elf/lib/mno-hw-mul\libc.a(lib_a-callocr.o)
 .debug_info    0x00014635      0x958 c:/altera/11.1sp2/nios2eds/bin/gnu/h-i686-mingw32/bin/../lib/gcc/nios2-elf/4.1.2/../../../../nios2-elf/lib/mno-hw-mul\libc.a(lib_a-closer.o)
 .debug_info    0x00014f8d      0x994 c:/altera/11.1sp2/nios2eds/bin/gnu/h-i686-mingw32/bin/../lib/gcc/nios2-elf/4.1.2/../../../../nios2-elf/lib/mno-hw-mul\libc.a(lib_a-fclose.o)
 .debug_info    0x00015921      0xafc c:/altera/11.1sp2/nios2eds/bin/gnu/h-i686-mingw32/bin/../lib/gcc/nios2-elf/4.1.2/../../../../nios2-elf/lib/mno-hw-mul\libc.a(lib_a-fstatr.o)
 .debug_info    0x0001641d       0x8c c:/altera/11.1sp2/nios2eds/bin/gnu/h-i686-mingw32/bin/../lib/gcc/nios2-elf/4.1.2/../../../../nios2-elf/lib/mno-hw-mul\libc.a(lib_a-int_errno.o)
 .debug_info    0x000164a9      0x958 c:/altera/11.1sp2/nios2eds/bin/gnu/h-i686-mingw32/bin/../lib/gcc/nios2-elf/4.1.2/../../../../nios2-elf/lib/mno-hw-mul\libc.a(lib_a-isattyr.o)
 .debug_info    0x00016e01      0x981 c:/altera/11.1sp2/nios2eds/bin/gnu/h-i686-mingw32/bin/../lib/gcc/nios2-elf/4.1.2/../../../../nios2-elf/lib/mno-hw-mul\libc.a(lib_a-lseekr.o)
 .debug_info    0x00017782      0x98c c:/altera/11.1sp2/nios2eds/bin/gnu/h-i686-mingw32/bin/../lib/gcc/nios2-elf/4.1.2/../../../../nios2-elf/lib/mno-hw-mul\libc.a(lib_a-readr.o)
 .debug_info    0x0001810e      0x71c c:/altera/11.1sp2/nios2eds/bin/gnu/h-i686-mingw32/bin/../lib/gcc/nios2-elf/4.1.2/mno-hw-mul\libgcc.a(_udivdi3.o)
 .debug_info    0x0001882a      0x749 c:/altera/11.1sp2/nios2eds/bin/gnu/h-i686-mingw32/bin/../lib/gcc/nios2-elf/4.1.2/mno-hw-mul\libgcc.a(_umoddi3.o)
 .debug_info    0x00018f73      0x493 c:/altera/11.1sp2/nios2eds/bin/gnu/h-i686-mingw32/bin/../lib/gcc/nios2-elf/4.1.2/mno-hw-mul\libgcc.a(_addsub_df.o)
 .debug_info    0x00019406      0x488 c:/altera/11.1sp2/nios2eds/bin/gnu/h-i686-mingw32/bin/../lib/gcc/nios2-elf/4.1.2/mno-hw-mul\libgcc.a(_mul_df.o)
 .debug_info    0x0001988e      0x39b c:/altera/11.1sp2/nios2eds/bin/gnu/h-i686-mingw32/bin/../lib/gcc/nios2-elf/4.1.2/mno-hw-mul\libgcc.a(_div_df.o)
 .debug_info    0x00019c29      0x29d c:/altera/11.1sp2/nios2eds/bin/gnu/h-i686-mingw32/bin/../lib/gcc/nios2-elf/4.1.2/mno-hw-mul\libgcc.a(_eq_df.o)
 .debug_info    0x00019ec6      0x29d c:/altera/11.1sp2/nios2eds/bin/gnu/h-i686-mingw32/bin/../lib/gcc/nios2-elf/4.1.2/mno-hw-mul\libgcc.a(_ne_df.o)
 .debug_info    0x0001a163      0x29d c:/altera/11.1sp2/nios2eds/bin/gnu/h-i686-mingw32/bin/../lib/gcc/nios2-elf/4.1.2/mno-hw-mul\libgcc.a(_gt_df.o)
 .debug_info    0x0001a400      0x29d c:/altera/11.1sp2/nios2eds/bin/gnu/h-i686-mingw32/bin/../lib/gcc/nios2-elf/4.1.2/mno-hw-mul\libgcc.a(_ge_df.o)
 .debug_info    0x0001a69d      0x29d c:/altera/11.1sp2/nios2eds/bin/gnu/h-i686-mingw32/bin/../lib/gcc/nios2-elf/4.1.2/mno-hw-mul\libgcc.a(_lt_df.o)
 .debug_info    0x0001a93a      0x218 c:/altera/11.1sp2/nios2eds/bin/gnu/h-i686-mingw32/bin/../lib/gcc/nios2-elf/4.1.2/mno-hw-mul\libgcc.a(_si_to_df.o)
 .debug_info    0x0001ab52      0x2cd c:/altera/11.1sp2/nios2eds/bin/gnu/h-i686-mingw32/bin/../lib/gcc/nios2-elf/4.1.2/mno-hw-mul\libgcc.a(_df_to_si.o)
 .debug_info    0x0001ae1f      0x164 c:/altera/11.1sp2/nios2eds/bin/gnu/h-i686-mingw32/bin/../lib/gcc/nios2-elf/4.1.2/mno-hw-mul\libgcc.a(_thenan_df.o)
 .debug_info    0x0001af83      0x213 c:/altera/11.1sp2/nios2eds/bin/gnu/h-i686-mingw32/bin/../lib/gcc/nios2-elf/4.1.2/mno-hw-mul\libgcc.a(_usi_to_df.o)
 .debug_info    0x0001b196      0x210 c:/altera/11.1sp2/nios2eds/bin/gnu/h-i686-mingw32/bin/../lib/gcc/nios2-elf/4.1.2/mno-hw-mul\libgcc.a(_muldi3.o)
 .debug_info    0x0001b3a6       0xc9 c:/altera/11.1sp2/nios2eds/bin/gnu/h-i686-mingw32/bin/../lib/gcc/nios2-elf/4.1.2/mno-hw-mul\libgcc.a(_clz.o)
 .debug_info    0x0001b46f      0x130 c:/altera/11.1sp2/nios2eds/bin/gnu/h-i686-mingw32/bin/../lib/gcc/nios2-elf/4.1.2/mno-hw-mul\libgcc.a(_clzsi2.o)
 .debug_info    0x0001b59f      0x2fc c:/altera/11.1sp2/nios2eds/bin/gnu/h-i686-mingw32/bin/../lib/gcc/nios2-elf/4.1.2/mno-hw-mul\libgcc.a(_pack_df.o)
 .debug_info    0x0001b89b      0x268 c:/altera/11.1sp2/nios2eds/bin/gnu/h-i686-mingw32/bin/../lib/gcc/nios2-elf/4.1.2/mno-hw-mul\libgcc.a(_unpack_df.o)
 .debug_info    0x0001bb03      0x21b c:/altera/11.1sp2/nios2eds/bin/gnu/h-i686-mingw32/bin/../lib/gcc/nios2-elf/4.1.2/mno-hw-mul\libgcc.a(_fpcmp_parts_df.o)
 .debug_info    0x0001bd1e      0x9d4 D:/WorK/Synesthesia/wxp/synesthesia/sw_wxp/de1_limbus_bsp/\libchibios_v240_bsp.a(chdynamic.o)
 .debug_info    0x0001c6f2      0xeb2 D:/WorK/Synesthesia/wxp/synesthesia/sw_wxp/de1_limbus_bsp/\libchibios_v240_bsp.a(chevents.o)
 .debug_info    0x0001d5a4      0x816 D:/WorK/Synesthesia/wxp/synesthesia/sw_wxp/de1_limbus_bsp/\libchibios_v240_bsp.a(chheap.o)
 .debug_info    0x0001ddba      0x31a D:/WorK/Synesthesia/wxp/synesthesia/sw_wxp/de1_limbus_bsp/\libchibios_v240_bsp.a(chmemcore.o)
 .debug_info    0x0001e0d4      0x425 D:/WorK/Synesthesia/wxp/synesthesia/sw_wxp/de1_limbus_bsp/\libchibios_v240_bsp.a(chmempools.o)
 .debug_info    0x0001e4f9      0x82e D:/WorK/Synesthesia/wxp/synesthesia/sw_wxp/de1_limbus_bsp/\libchibios_v240_bsp.a(chmsg.o)
 .debug_info    0x0001ed27      0xa80 D:/WorK/Synesthesia/wxp/synesthesia/sw_wxp/de1_limbus_bsp/\libchibios_v240_bsp.a(chmtx.o)
 .debug_info    0x0001f7a7      0x944 D:/WorK/Synesthesia/wxp/synesthesia/sw_wxp/de1_limbus_bsp/\libchibios_v240_bsp.a(chschd.o)
 .debug_info    0x000200eb      0xd19 D:/WorK/Synesthesia/wxp/synesthesia/sw_wxp/de1_limbus_bsp/\libchibios_v240_bsp.a(chthreads.o)
 .debug_info    0x00020e04      0x381 D:/WorK/Synesthesia/wxp/synesthesia/sw_wxp/de1_limbus_bsp/\libchibios_v240_bsp.a(chvt.o)
 .debug_info    0x00021185       0x8a D:/WorK/Synesthesia/wxp/synesthesia/sw_wxp/de1_limbus_bsp/\libchibios_v240_bsp.a(chcoreasm.o)
 .debug_info    0x0002120f      0x457 D:/WorK/Synesthesia/wxp/synesthesia/sw_wxp/de1_limbus_bsp/\libchibios_v240_bsp.a(alt_close.o)
 .debug_info    0x00021666      0x66f D:/WorK/Synesthesia/wxp/synesthesia/sw_wxp/de1_limbus_bsp/\libchibios_v240_bsp.a(alt_dev.o)
 .debug_info    0x00021cd5      0x154 D:/WorK/Synesthesia/wxp/synesthesia/sw_wxp/de1_limbus_bsp/\libchibios_v240_bsp.a(alt_errno.o)
 .debug_info    0x00021e29      0x650 D:/WorK/Synesthesia/wxp/synesthesia/sw_wxp/de1_limbus_bsp/\libchibios_v240_bsp.a(alt_fstat.o)
 .debug_info    0x00022479      0xbdb D:/WorK/Synesthesia/wxp/synesthesia/sw_wxp/de1_limbus_bsp/\libchibios_v240_bsp.a(alt_getchar.o)
 .debug_info    0x00023054      0x656 D:/WorK/Synesthesia/wxp/synesthesia/sw_wxp/de1_limbus_bsp/\libchibios_v240_bsp.a(alt_isatty.o)
 .debug_info    0x000236aa      0x27d D:/WorK/Synesthesia/wxp/synesthesia/sw_wxp/de1_limbus_bsp/\libchibios_v240_bsp.a(alt_load.o)
 .debug_info    0x00023927      0x48a D:/WorK/Synesthesia/wxp/synesthesia/sw_wxp/de1_limbus_bsp/\libchibios_v240_bsp.a(alt_lseek.o)
 .debug_info    0x00023db1      0x27f D:/WorK/Synesthesia/wxp/synesthesia/sw_wxp/de1_limbus_bsp/\libchibios_v240_bsp.a(alt_main.o)
 .debug_info    0x00024030      0xc08 D:/WorK/Synesthesia/wxp/synesthesia/sw_wxp/de1_limbus_bsp/\libchibios_v240_bsp.a(alt_malloc_lock.o)
 .debug_info    0x00024c38      0x198 D:/WorK/Synesthesia/wxp/synesthesia/sw_wxp/de1_limbus_bsp/\libchibios_v240_bsp.a(alt_printf.o)
 .debug_info    0x00024dd0      0xbec D:/WorK/Synesthesia/wxp/synesthesia/sw_wxp/de1_limbus_bsp/\libchibios_v240_bsp.a(alt_putchar.o)
 .debug_info    0x000259bc      0x67a D:/WorK/Synesthesia/wxp/synesthesia/sw_wxp/de1_limbus_bsp/\libchibios_v240_bsp.a(alt_read.o)
 .debug_info    0x00026036      0x3e2 D:/WorK/Synesthesia/wxp/synesthesia/sw_wxp/de1_limbus_bsp/\libchibios_v240_bsp.a(alt_release_fd.o)
 .debug_info    0x00026418      0x2a7 D:/WorK/Synesthesia/wxp/synesthesia/sw_wxp/de1_limbus_bsp/\libchibios_v240_bsp.a(alt_sbrk.o)
 .debug_info    0x000266bf      0x683 D:/WorK/Synesthesia/wxp/synesthesia/sw_wxp/de1_limbus_bsp/\libchibios_v240_bsp.a(alt_write.o)
 .debug_info    0x00026d42      0x86e D:/WorK/Synesthesia/wxp/synesthesia/sw_wxp/de1_limbus_bsp/\libchibios_v240_bsp.a(alt_sys_init.o)
 .debug_info    0x000275b0      0x7c9 D:/WorK/Synesthesia/wxp/synesthesia/sw_wxp/de1_limbus_bsp/\libchibios_v240_bsp.a(altera_avalon_jtag_uart_fd.o)
 .debug_info    0x00027d79      0x5f1 D:/WorK/Synesthesia/wxp/synesthesia/sw_wxp/de1_limbus_bsp/\libchibios_v240_bsp.a(altera_avalon_jtag_uart_init.o)
 .debug_info    0x0002836a      0x433 D:/WorK/Synesthesia/wxp/synesthesia/sw_wxp/de1_limbus_bsp/\libchibios_v240_bsp.a(altera_avalon_jtag_uart_ioctl.o)
 .debug_info    0x0002879d      0x536 D:/WorK/Synesthesia/wxp/synesthesia/sw_wxp/de1_limbus_bsp/\libchibios_v240_bsp.a(altera_avalon_jtag_uart_read.o)
 .debug_info    0x00028cd3      0x52e D:/WorK/Synesthesia/wxp/synesthesia/sw_wxp/de1_limbus_bsp/\libchibios_v240_bsp.a(altera_avalon_jtag_uart_write.o)
 .debug_info    0x00029201      0x29f D:/WorK/Synesthesia/wxp/synesthesia/sw_wxp/de1_limbus_bsp/\libchibios_v240_bsp.a(altera_avalon_performance_counter.o)
 .debug_info    0x000294a0      0x37b D:/WorK/Synesthesia/wxp/synesthesia/sw_wxp/de1_limbus_bsp/\libchibios_v240_bsp.a(altera_avalon_timer_sc.o)
 .debug_info    0x0002981b      0x62c D:/WorK/Synesthesia/wxp/synesthesia/sw_wxp/de1_limbus_bsp/\libchibios_v240_bsp.a(altera_avalon_uart_fd.o)
 .debug_info    0x00029e47      0x4fe D:/WorK/Synesthesia/wxp/synesthesia/sw_wxp/de1_limbus_bsp/\libchibios_v240_bsp.a(altera_avalon_uart_init.o)
 .debug_info    0x0002a345      0x4b2 D:/WorK/Synesthesia/wxp/synesthesia/sw_wxp/de1_limbus_bsp/\libchibios_v240_bsp.a(altera_avalon_uart_read.o)
 .debug_info    0x0002a7f7      0x4b0 D:/WorK/Synesthesia/wxp/synesthesia/sw_wxp/de1_limbus_bsp/\libchibios_v240_bsp.a(altera_avalon_uart_write.o)
 .debug_info    0x0002aca7      0x2c6 D:/WorK/Synesthesia/wxp/synesthesia/sw_wxp/de1_limbus_bsp/\libchibios_v240_bsp.a(perf_print_formatted_report.o)
 .debug_info    0x0002af6d      0x844 D:/WorK/Synesthesia/wxp/synesthesia/sw_wxp/de1_limbus_bsp/\libchibios_v240_bsp.a(chsys.o)
 .debug_info    0x0002b7b1      0x432 D:/WorK/Synesthesia/wxp/synesthesia/sw_wxp/de1_limbus_bsp/\libchibios_v240_bsp.a(alt_alarm_start.o)
 .debug_info    0x0002bbe3      0x14c D:/WorK/Synesthesia/wxp/synesthesia/sw_wxp/de1_limbus_bsp/\libchibios_v240_bsp.a(alt_dcache_flush_all.o)
 .debug_info    0x0002bd2f      0x2a7 D:/WorK/Synesthesia/wxp/synesthesia/sw_wxp/de1_limbus_bsp/\libchibios_v240_bsp.a(alt_dev_llist_insert.o)
 .debug_info    0x0002bfd6       0xff D:/WorK/Synesthesia/wxp/synesthesia/sw_wxp/de1_limbus_bsp/\libchibios_v240_bsp.a(alt_do_ctors.o)
 .debug_info    0x0002c0d5       0xfe D:/WorK/Synesthesia/wxp/synesthesia/sw_wxp/de1_limbus_bsp/\libchibios_v240_bsp.a(alt_do_dtors.o)
 .debug_info    0x0002c1d3      0x14c D:/WorK/Synesthesia/wxp/synesthesia/sw_wxp/de1_limbus_bsp/\libchibios_v240_bsp.a(alt_icache_flush_all.o)
 .debug_info    0x0002c31f      0x483 D:/WorK/Synesthesia/wxp/synesthesia/sw_wxp/de1_limbus_bsp/\libchibios_v240_bsp.a(alt_iic.o)
 .debug_info    0x0002c7a2      0x304 D:/WorK/Synesthesia/wxp/synesthesia/sw_wxp/de1_limbus_bsp/\libchibios_v240_bsp.a(alt_iic_isr_register.o)
 .debug_info    0x0002caa6      0x685 D:/WorK/Synesthesia/wxp/synesthesia/sw_wxp/de1_limbus_bsp/\libchibios_v240_bsp.a(alt_io_redirect.o)
 .debug_info    0x0002d12b       0x74 D:/WorK/Synesthesia/wxp/synesthesia/sw_wxp/de1_limbus_bsp/\libchibios_v240_bsp.a(alt_irq_entry.o)
 .debug_info    0x0002d19f      0x265 D:/WorK/Synesthesia/wxp/synesthesia/sw_wxp/de1_limbus_bsp/\libchibios_v240_bsp.a(alt_irq_handler.o)
 .debug_info    0x0002d404      0x157 D:/WorK/Synesthesia/wxp/synesthesia/sw_wxp/de1_limbus_bsp/\libchibios_v240_bsp.a(alt_irq_vars.o)
 .debug_info    0x0002d55b      0x515 D:/WorK/Synesthesia/wxp/synesthesia/sw_wxp/de1_limbus_bsp/\libchibios_v240_bsp.a(alt_open.o)
 .debug_info    0x0002da70      0x3ee D:/WorK/Synesthesia/wxp/synesthesia/sw_wxp/de1_limbus_bsp/\libchibios_v240_bsp.a(alt_tick.o)
 .debug_info    0x0002de5e      0x153 D:/WorK/Synesthesia/wxp/synesthesia/sw_wxp/de1_limbus_bsp/\libchibios_v240_bsp.a(altera_nios2_qsys_irq.o)
 .debug_info    0x0002dfb1      0x1d8 D:/WorK/Synesthesia/wxp/synesthesia/sw_wxp/de1_limbus_bsp/\libchibios_v240_bsp.a(chcore.o)
 .debug_info    0x0002e189       0x7a D:/WorK/Synesthesia/wxp/synesthesia/sw_wxp/de1_limbus_bsp/\libchibios_v240_bsp.a(alt_exception_entry.o)
 .debug_info    0x0002e203      0x408 D:/WorK/Synesthesia/wxp/synesthesia/sw_wxp/de1_limbus_bsp/\libchibios_v240_bsp.a(alt_find_dev.o)
 .debug_info    0x0002e60b      0x40f D:/WorK/Synesthesia/wxp/synesthesia/sw_wxp/de1_limbus_bsp/\libchibios_v240_bsp.a(alt_find_file.o)
 .debug_info    0x0002ea1a      0x450 D:/WorK/Synesthesia/wxp/synesthesia/sw_wxp/de1_limbus_bsp/\libchibios_v240_bsp.a(alt_get_fd.o)
 .debug_info    0x0002ee6a      0x181 c:/altera/11.1sp2/nios2eds/bin/gnu/h-i686-mingw32/bin/../lib/gcc/nios2-elf/4.1.2/../../../../nios2-elf/lib/mno-hw-mul\libc.a(lib_a-atexit.o)
 .debug_info    0x0002efeb      0x93f c:/altera/11.1sp2/nios2eds/bin/gnu/h-i686-mingw32/bin/../lib/gcc/nios2-elf/4.1.2/../../../../nios2-elf/lib/mno-hw-mul\libc.a(lib_a-exit.o)
 .debug_info    0x0002f92a      0x9a7 c:/altera/11.1sp2/nios2eds/bin/gnu/h-i686-mingw32/bin/../lib/gcc/nios2-elf/4.1.2/../../../../nios2-elf/lib/mno-hw-mul\libc.a(lib_a-getc.o)
 .debug_info    0x000302d1      0x115 c:/altera/11.1sp2/nios2eds/bin/gnu/h-i686-mingw32/bin/../lib/gcc/nios2-elf/4.1.2/../../../../nios2-elf/lib/mno-hw-mul\libc.a(lib_a-memcmp.o)
 .debug_info    0x000303e6      0x9c1 c:/altera/11.1sp2/nios2eds/bin/gnu/h-i686-mingw32/bin/../lib/gcc/nios2-elf/4.1.2/../../../../nios2-elf/lib/mno-hw-mul\libc.a(lib_a-putc.o)
 .debug_info    0x00030da7      0x987 c:/altera/11.1sp2/nios2eds/bin/gnu/h-i686-mingw32/bin/../lib/gcc/nios2-elf/4.1.2/../../../../nios2-elf/lib/mno-hw-mul\libc.a(lib_a-rget.o)
 .debug_info    0x0003172e      0x9ae c:/altera/11.1sp2/nios2eds/bin/gnu/h-i686-mingw32/bin/../lib/gcc/nios2-elf/4.1.2/../../../../nios2-elf/lib/mno-hw-mul\libc.a(lib_a-wbuf.o)
 .debug_info    0x000320dc      0x99c c:/altera/11.1sp2/nios2eds/bin/gnu/h-i686-mingw32/bin/../lib/gcc/nios2-elf/4.1.2/../../../../nios2-elf/lib/mno-hw-mul\libc.a(lib_a-__atexit.o)
 .debug_info    0x00032a78      0x9e2 c:/altera/11.1sp2/nios2eds/bin/gnu/h-i686-mingw32/bin/../lib/gcc/nios2-elf/4.1.2/../../../../nios2-elf/lib/mno-hw-mul\libc.a(lib_a-__call_atexit.o)
 .debug_info    0x0003345a      0x98b c:/altera/11.1sp2/nios2eds/bin/gnu/h-i686-mingw32/bin/../lib/gcc/nios2-elf/4.1.2/../../../../nios2-elf/lib/mno-hw-mul\libc.a(lib_a-refill.o)
 .debug_info    0x00033de5       0xdc c:/altera/11.1sp2/nios2eds/bin/gnu/h-i686-mingw32/bin/../lib/gcc/nios2-elf/4.1.2/mno-hw-mul\libgcc.a(_floatundidf.o)
 .debug_info    0x00033ec1      0x17d D:/WorK/Synesthesia/wxp/synesthesia/sw_wxp/de1_limbus_bsp/\libchibios_v240_bsp.a(alt_exit.o)

.debug_abbrev   0x00000000     0xb159
 *(.debug_abbrev)
 .debug_abbrev  0x00000000       0x12 D:/WorK/Synesthesia/wxp/synesthesia/sw_wxp/de1_limbus_bsp//obj/HAL/src/crt0.o
 .debug_abbrev  0x00000012      0x15a obj/default/ledos/codec/codec.o
 .debug_abbrev  0x0000016c       0xfe obj/default/ledos/cortex/acortex/acortex.o
 .debug_abbrev  0x0000026a       0xc5 obj/default/ledos/cortex/acortex/dac/dac_drvr.o
 .debug_abbrev  0x0000032f       0xbf obj/default/ledos/cortex/acortex/i2c/i2c_drvr.o
 .debug_abbrev  0x000003ee       0xc7 obj/default/ledos/cortex/acortex/prsr/prsr.o
 .debug_abbrev  0x000004b5       0x78 obj/default/ledos/cortex/acortex/sram/sram.o
 .debug_abbrev  0x0000052d       0xa8 obj/default/ledos/cortex/cortex.o
 .debug_abbrev  0x000005d5      0x134 obj/default/ledos/cortex/fgyrus/fgyrus.o
 .debug_abbrev  0x00000709       0x7d obj/default/ledos/cortex/vcortex/vcortex.o
 .debug_abbrev  0x00000786      0x1c3 obj/default/ledos/fatfs/diskio.o
 .debug_abbrev  0x00000949      0x252 obj/default/ledos/fatfs/ff.o
 .debug_abbrev  0x00000b9b       0x88 obj/default/ledos/fft_cache/fft_cache.o
 .debug_abbrev  0x00000c23      0x1d6 obj/default/ledos/ledos.o
 .debug_abbrev  0x00000df9      0x10e obj/default/ledos/lsd/lsd.o
 .debug_abbrev  0x00000f07      0x23c obj/default/ledos/shell/bash.o
 .debug_abbrev  0x00001143      0x212 obj/default/ledos/shell/shell.o
 .debug_abbrev  0x00001355       0xa0 obj/default/main.o
 .debug_abbrev  0x000013f5       0xe0 c:/altera/11.1sp2/nios2eds/bin/gnu/h-i686-mingw32/bin/../lib/gcc/nios2-elf/4.1.2/mno-hw-mul\libgcc.a(lib2-divmod.o)
 .debug_abbrev  0x000014d5       0x7b c:/altera/11.1sp2/nios2eds/bin/gnu/h-i686-mingw32/bin/../lib/gcc/nios2-elf/4.1.2/mno-hw-mul\libgcc.a(lib2-mul.o)
 .debug_abbrev  0x00001550      0x191 c:/altera/11.1sp2/nios2eds/bin/gnu/h-i686-mingw32/bin/../lib/gcc/nios2-elf/4.1.2/../../../../nios2-elf/lib/mno-hw-mul\libc.a(lib_a-printf.o)
 .debug_abbrev  0x000016e1       0x96 c:/altera/11.1sp2/nios2eds/bin/gnu/h-i686-mingw32/bin/../lib/gcc/nios2-elf/4.1.2/../../../../nios2-elf/lib/mno-hw-mul\libc.a(lib_a-strcasecmp.o)
 .debug_abbrev  0x00001777       0x6f c:/altera/11.1sp2/nios2eds/bin/gnu/h-i686-mingw32/bin/../lib/gcc/nios2-elf/4.1.2/../../../../nios2-elf/lib/mno-hw-mul\libc.a(lib_a-strpbrk.o)
 .debug_abbrev  0x000017e6       0x98 c:/altera/11.1sp2/nios2eds/bin/gnu/h-i686-mingw32/bin/../lib/gcc/nios2-elf/4.1.2/../../../../nios2-elf/lib/mno-hw-mul\libc.a(lib_a-strspn.o)
 .debug_abbrev  0x0000187e      0x30a c:/altera/11.1sp2/nios2eds/bin/gnu/h-i686-mingw32/bin/../lib/gcc/nios2-elf/4.1.2/../../../../nios2-elf/lib/mno-hw-mul\libc.a(lib_a-vfprintf.o)
 .debug_abbrev  0x00001b88      0x170 c:/altera/11.1sp2/nios2eds/bin/gnu/h-i686-mingw32/bin/../lib/gcc/nios2-elf/4.1.2/../../../../nios2-elf/lib/mno-hw-mul\libc.a(lib_a-wsetup.o)
 .debug_abbrev  0x00001cf8       0x61 c:/altera/11.1sp2/nios2eds/bin/gnu/h-i686-mingw32/bin/../lib/gcc/nios2-elf/4.1.2/../../../../nios2-elf/lib/mno-hw-mul\libc.a(lib_a-ctype_.o)
 .debug_abbrev  0x00001d59      0x232 c:/altera/11.1sp2/nios2eds/bin/gnu/h-i686-mingw32/bin/../lib/gcc/nios2-elf/4.1.2/../../../../nios2-elf/lib/mno-hw-mul\libc.a(lib_a-dtoa.o)
 .debug_abbrev  0x00001f8b      0x1c6 c:/altera/11.1sp2/nios2eds/bin/gnu/h-i686-mingw32/bin/../lib/gcc/nios2-elf/4.1.2/../../../../nios2-elf/lib/mno-hw-mul\libc.a(lib_a-fflush.o)
 .debug_abbrev  0x00002151      0x24c c:/altera/11.1sp2/nios2eds/bin/gnu/h-i686-mingw32/bin/../lib/gcc/nios2-elf/4.1.2/../../../../nios2-elf/lib/mno-hw-mul\libc.a(lib_a-findfp.o)
 .debug_abbrev  0x0000239d      0x1d9 c:/altera/11.1sp2/nios2eds/bin/gnu/h-i686-mingw32/bin/../lib/gcc/nios2-elf/4.1.2/../../../../nios2-elf/lib/mno-hw-mul\libc.a(lib_a-freer.o)
 .debug_abbrev  0x00002576      0x1a3 c:/altera/11.1sp2/nios2eds/bin/gnu/h-i686-mingw32/bin/../lib/gcc/nios2-elf/4.1.2/../../../../nios2-elf/lib/mno-hw-mul\libc.a(lib_a-fvwrite.o)
 .debug_abbrev  0x00002719      0x1e3 c:/altera/11.1sp2/nios2eds/bin/gnu/h-i686-mingw32/bin/../lib/gcc/nios2-elf/4.1.2/../../../../nios2-elf/lib/mno-hw-mul\libc.a(lib_a-fwalk.o)
 .debug_abbrev  0x000028fc      0x157 c:/altera/11.1sp2/nios2eds/bin/gnu/h-i686-mingw32/bin/../lib/gcc/nios2-elf/4.1.2/../../../../nios2-elf/lib/mno-hw-mul\libc.a(lib_a-impure.o)
 .debug_abbrev  0x00002a53      0x1ed c:/altera/11.1sp2/nios2eds/bin/gnu/h-i686-mingw32/bin/../lib/gcc/nios2-elf/4.1.2/../../../../nios2-elf/lib/mno-hw-mul\libc.a(lib_a-locale.o)
 .debug_abbrev  0x00002c40      0x197 c:/altera/11.1sp2/nios2eds/bin/gnu/h-i686-mingw32/bin/../lib/gcc/nios2-elf/4.1.2/../../../../nios2-elf/lib/mno-hw-mul\libc.a(lib_a-makebuf.o)
 .debug_abbrev  0x00002dd7      0x216 c:/altera/11.1sp2/nios2eds/bin/gnu/h-i686-mingw32/bin/../lib/gcc/nios2-elf/4.1.2/../../../../nios2-elf/lib/mno-hw-mul\libc.a(lib_a-mallocr.o)
 .debug_abbrev  0x00002fed       0xb5 c:/altera/11.1sp2/nios2eds/bin/gnu/h-i686-mingw32/bin/../lib/gcc/nios2-elf/4.1.2/../../../../nios2-elf/lib/mno-hw-mul\libc.a(lib_a-memchr.o)
 .debug_abbrev  0x000030a2       0xb5 c:/altera/11.1sp2/nios2eds/bin/gnu/h-i686-mingw32/bin/../lib/gcc/nios2-elf/4.1.2/../../../../nios2-elf/lib/mno-hw-mul\libc.a(lib_a-memcpy.o)
 .debug_abbrev  0x00003157       0xb5 c:/altera/11.1sp2/nios2eds/bin/gnu/h-i686-mingw32/bin/../lib/gcc/nios2-elf/4.1.2/../../../../nios2-elf/lib/mno-hw-mul\libc.a(lib_a-memmove.o)
 .debug_abbrev  0x0000320c       0xb8 c:/altera/11.1sp2/nios2eds/bin/gnu/h-i686-mingw32/bin/../lib/gcc/nios2-elf/4.1.2/../../../../nios2-elf/lib/mno-hw-mul\libc.a(lib_a-memset.o)
 .debug_abbrev  0x000032c4      0x297 c:/altera/11.1sp2/nios2eds/bin/gnu/h-i686-mingw32/bin/../lib/gcc/nios2-elf/4.1.2/../../../../nios2-elf/lib/mno-hw-mul\libc.a(lib_a-mprec.o)
 .debug_abbrev  0x0000355b      0x1c3 c:/altera/11.1sp2/nios2eds/bin/gnu/h-i686-mingw32/bin/../lib/gcc/nios2-elf/4.1.2/../../../../nios2-elf/lib/mno-hw-mul\libc.a(lib_a-reallocr.o)
 .debug_abbrev  0x0000371e       0x79 c:/altera/11.1sp2/nios2eds/bin/gnu/h-i686-mingw32/bin/../lib/gcc/nios2-elf/4.1.2/../../../../nios2-elf/lib/mno-hw-mul\libc.a(lib_a-s_isinfd.o)
 .debug_abbrev  0x00003797       0x79 c:/altera/11.1sp2/nios2eds/bin/gnu/h-i686-mingw32/bin/../lib/gcc/nios2-elf/4.1.2/../../../../nios2-elf/lib/mno-hw-mul\libc.a(lib_a-s_isnand.o)
 .debug_abbrev  0x00003810      0x18c c:/altera/11.1sp2/nios2eds/bin/gnu/h-i686-mingw32/bin/../lib/gcc/nios2-elf/4.1.2/../../../../nios2-elf/lib/mno-hw-mul\libc.a(lib_a-sbrkr.o)
 .debug_abbrev  0x0000399c      0x1c9 c:/altera/11.1sp2/nios2eds/bin/gnu/h-i686-mingw32/bin/../lib/gcc/nios2-elf/4.1.2/../../../../nios2-elf/lib/mno-hw-mul\libc.a(lib_a-stdio.o)
 .debug_abbrev  0x00003b65       0x80 c:/altera/11.1sp2/nios2eds/bin/gnu/h-i686-mingw32/bin/../lib/gcc/nios2-elf/4.1.2/../../../../nios2-elf/lib/mno-hw-mul\libc.a(lib_a-strcmp.o)
 .debug_abbrev  0x00003be5       0x8b c:/altera/11.1sp2/nios2eds/bin/gnu/h-i686-mingw32/bin/../lib/gcc/nios2-elf/4.1.2/../../../../nios2-elf/lib/mno-hw-mul\libc.a(lib_a-strlen.o)
 .debug_abbrev  0x00003c70      0x184 c:/altera/11.1sp2/nios2eds/bin/gnu/h-i686-mingw32/bin/../lib/gcc/nios2-elf/4.1.2/../../../../nios2-elf/lib/mno-hw-mul\libc.a(lib_a-writer.o)
 .debug_abbrev  0x00003df4      0x1b8 c:/altera/11.1sp2/nios2eds/bin/gnu/h-i686-mingw32/bin/../lib/gcc/nios2-elf/4.1.2/../../../../nios2-elf/lib/mno-hw-mul\libc.a(lib_a-callocr.o)
 .debug_abbrev  0x00003fac      0x17f c:/altera/11.1sp2/nios2eds/bin/gnu/h-i686-mingw32/bin/../lib/gcc/nios2-elf/4.1.2/../../../../nios2-elf/lib/mno-hw-mul\libc.a(lib_a-closer.o)
 .debug_abbrev  0x0000412b      0x1a7 c:/altera/11.1sp2/nios2eds/bin/gnu/h-i686-mingw32/bin/../lib/gcc/nios2-elf/4.1.2/../../../../nios2-elf/lib/mno-hw-mul\libc.a(lib_a-fclose.o)
 .debug_abbrev  0x000042d2      0x18e c:/altera/11.1sp2/nios2eds/bin/gnu/h-i686-mingw32/bin/../lib/gcc/nios2-elf/4.1.2/../../../../nios2-elf/lib/mno-hw-mul\libc.a(lib_a-fstatr.o)
 .debug_abbrev  0x00004460       0x3b c:/altera/11.1sp2/nios2eds/bin/gnu/h-i686-mingw32/bin/../lib/gcc/nios2-elf/4.1.2/../../../../nios2-elf/lib/mno-hw-mul\libc.a(lib_a-int_errno.o)
 .debug_abbrev  0x0000449b      0x17f c:/altera/11.1sp2/nios2eds/bin/gnu/h-i686-mingw32/bin/../lib/gcc/nios2-elf/4.1.2/../../../../nios2-elf/lib/mno-hw-mul\libc.a(lib_a-isattyr.o)
 .debug_abbrev  0x0000461a      0x18e c:/altera/11.1sp2/nios2eds/bin/gnu/h-i686-mingw32/bin/../lib/gcc/nios2-elf/4.1.2/../../../../nios2-elf/lib/mno-hw-mul\libc.a(lib_a-lseekr.o)
 .debug_abbrev  0x000047a8      0x17f c:/altera/11.1sp2/nios2eds/bin/gnu/h-i686-mingw32/bin/../lib/gcc/nios2-elf/4.1.2/../../../../nios2-elf/lib/mno-hw-mul\libc.a(lib_a-readr.o)
 .debug_abbrev  0x00004927      0x16b c:/altera/11.1sp2/nios2eds/bin/gnu/h-i686-mingw32/bin/../lib/gcc/nios2-elf/4.1.2/mno-hw-mul\libgcc.a(_udivdi3.o)
 .debug_abbrev  0x00004a92      0x18e c:/altera/11.1sp2/nios2eds/bin/gnu/h-i686-mingw32/bin/../lib/gcc/nios2-elf/4.1.2/mno-hw-mul\libgcc.a(_umoddi3.o)
 .debug_abbrev  0x00004c20      0x1d2 c:/altera/11.1sp2/nios2eds/bin/gnu/h-i686-mingw32/bin/../lib/gcc/nios2-elf/4.1.2/mno-hw-mul\libgcc.a(_addsub_df.o)
 .debug_abbrev  0x00004df2      0x204 c:/altera/11.1sp2/nios2eds/bin/gnu/h-i686-mingw32/bin/../lib/gcc/nios2-elf/4.1.2/mno-hw-mul\libgcc.a(_mul_df.o)
 .debug_abbrev  0x00004ff6      0x1e3 c:/altera/11.1sp2/nios2eds/bin/gnu/h-i686-mingw32/bin/../lib/gcc/nios2-elf/4.1.2/mno-hw-mul\libgcc.a(_div_df.o)
 .debug_abbrev  0x000051d9      0x151 c:/altera/11.1sp2/nios2eds/bin/gnu/h-i686-mingw32/bin/../lib/gcc/nios2-elf/4.1.2/mno-hw-mul\libgcc.a(_eq_df.o)
 .debug_abbrev  0x0000532a      0x151 c:/altera/11.1sp2/nios2eds/bin/gnu/h-i686-mingw32/bin/../lib/gcc/nios2-elf/4.1.2/mno-hw-mul\libgcc.a(_ne_df.o)
 .debug_abbrev  0x0000547b      0x151 c:/altera/11.1sp2/nios2eds/bin/gnu/h-i686-mingw32/bin/../lib/gcc/nios2-elf/4.1.2/mno-hw-mul\libgcc.a(_gt_df.o)
 .debug_abbrev  0x000055cc      0x151 c:/altera/11.1sp2/nios2eds/bin/gnu/h-i686-mingw32/bin/../lib/gcc/nios2-elf/4.1.2/mno-hw-mul\libgcc.a(_ge_df.o)
 .debug_abbrev  0x0000571d      0x151 c:/altera/11.1sp2/nios2eds/bin/gnu/h-i686-mingw32/bin/../lib/gcc/nios2-elf/4.1.2/mno-hw-mul\libgcc.a(_lt_df.o)
 .debug_abbrev  0x0000586e      0x13f c:/altera/11.1sp2/nios2eds/bin/gnu/h-i686-mingw32/bin/../lib/gcc/nios2-elf/4.1.2/mno-hw-mul\libgcc.a(_si_to_df.o)
 .debug_abbrev  0x000059ad      0x176 c:/altera/11.1sp2/nios2eds/bin/gnu/h-i686-mingw32/bin/../lib/gcc/nios2-elf/4.1.2/mno-hw-mul\libgcc.a(_df_to_si.o)
 .debug_abbrev  0x00005b23       0xba c:/altera/11.1sp2/nios2eds/bin/gnu/h-i686-mingw32/bin/../lib/gcc/nios2-elf/4.1.2/mno-hw-mul\libgcc.a(_thenan_df.o)
 .debug_abbrev  0x00005bdd      0x155 c:/altera/11.1sp2/nios2eds/bin/gnu/h-i686-mingw32/bin/../lib/gcc/nios2-elf/4.1.2/mno-hw-mul\libgcc.a(_usi_to_df.o)
 .debug_abbrev  0x00005d32       0xfb c:/altera/11.1sp2/nios2eds/bin/gnu/h-i686-mingw32/bin/../lib/gcc/nios2-elf/4.1.2/mno-hw-mul\libgcc.a(_muldi3.o)
 .debug_abbrev  0x00005e2d       0x61 c:/altera/11.1sp2/nios2eds/bin/gnu/h-i686-mingw32/bin/../lib/gcc/nios2-elf/4.1.2/mno-hw-mul\libgcc.a(_clz.o)
 .debug_abbrev  0x00005e8e       0xb9 c:/altera/11.1sp2/nios2eds/bin/gnu/h-i686-mingw32/bin/../lib/gcc/nios2-elf/4.1.2/mno-hw-mul\libgcc.a(_clzsi2.o)
 .debug_abbrev  0x00005f47      0x1b1 c:/altera/11.1sp2/nios2eds/bin/gnu/h-i686-mingw32/bin/../lib/gcc/nios2-elf/4.1.2/mno-hw-mul\libgcc.a(_pack_df.o)
 .debug_abbrev  0x000060f8      0x149 c:/altera/11.1sp2/nios2eds/bin/gnu/h-i686-mingw32/bin/../lib/gcc/nios2-elf/4.1.2/mno-hw-mul\libgcc.a(_unpack_df.o)
 .debug_abbrev  0x00006241      0x132 c:/altera/11.1sp2/nios2eds/bin/gnu/h-i686-mingw32/bin/../lib/gcc/nios2-elf/4.1.2/mno-hw-mul\libgcc.a(_fpcmp_parts_df.o)
 .debug_abbrev  0x00006373      0x197 D:/WorK/Synesthesia/wxp/synesthesia/sw_wxp/de1_limbus_bsp/\libchibios_v240_bsp.a(chdynamic.o)
 .debug_abbrev  0x0000650a      0x230 D:/WorK/Synesthesia/wxp/synesthesia/sw_wxp/de1_limbus_bsp/\libchibios_v240_bsp.a(chevents.o)
 .debug_abbrev  0x0000673a      0x14b D:/WorK/Synesthesia/wxp/synesthesia/sw_wxp/de1_limbus_bsp/\libchibios_v240_bsp.a(chheap.o)
 .debug_abbrev  0x00006885      0x139 D:/WorK/Synesthesia/wxp/synesthesia/sw_wxp/de1_limbus_bsp/\libchibios_v240_bsp.a(chmemcore.o)
 .debug_abbrev  0x000069be      0x157 D:/WorK/Synesthesia/wxp/synesthesia/sw_wxp/de1_limbus_bsp/\libchibios_v240_bsp.a(chmempools.o)
 .debug_abbrev  0x00006b15      0x1b3 D:/WorK/Synesthesia/wxp/synesthesia/sw_wxp/de1_limbus_bsp/\libchibios_v240_bsp.a(chmsg.o)
 .debug_abbrev  0x00006cc8      0x21d D:/WorK/Synesthesia/wxp/synesthesia/sw_wxp/de1_limbus_bsp/\libchibios_v240_bsp.a(chmtx.o)
 .debug_abbrev  0x00006ee5      0x1cc D:/WorK/Synesthesia/wxp/synesthesia/sw_wxp/de1_limbus_bsp/\libchibios_v240_bsp.a(chschd.o)
 .debug_abbrev  0x000070b1      0x241 D:/WorK/Synesthesia/wxp/synesthesia/sw_wxp/de1_limbus_bsp/\libchibios_v240_bsp.a(chthreads.o)
 .debug_abbrev  0x000072f2      0x10a D:/WorK/Synesthesia/wxp/synesthesia/sw_wxp/de1_limbus_bsp/\libchibios_v240_bsp.a(chvt.o)
 .debug_abbrev  0x000073fc       0x14 D:/WorK/Synesthesia/wxp/synesthesia/sw_wxp/de1_limbus_bsp/\libchibios_v240_bsp.a(chcoreasm.o)
 .debug_abbrev  0x00007410       0xfb D:/WorK/Synesthesia/wxp/synesthesia/sw_wxp/de1_limbus_bsp/\libchibios_v240_bsp.a(alt_close.o)
 .debug_abbrev  0x0000750b       0xc7 D:/WorK/Synesthesia/wxp/synesthesia/sw_wxp/de1_limbus_bsp/\libchibios_v240_bsp.a(alt_dev.o)
 .debug_abbrev  0x000075d2       0x5e D:/WorK/Synesthesia/wxp/synesthesia/sw_wxp/de1_limbus_bsp/\libchibios_v240_bsp.a(alt_errno.o)
 .debug_abbrev  0x00007630       0xfb D:/WorK/Synesthesia/wxp/synesthesia/sw_wxp/de1_limbus_bsp/\libchibios_v240_bsp.a(alt_fstat.o)
 .debug_abbrev  0x0000772b      0x16e D:/WorK/Synesthesia/wxp/synesthesia/sw_wxp/de1_limbus_bsp/\libchibios_v240_bsp.a(alt_getchar.o)
 .debug_abbrev  0x00007899       0xfb D:/WorK/Synesthesia/wxp/synesthesia/sw_wxp/de1_limbus_bsp/\libchibios_v240_bsp.a(alt_isatty.o)
 .debug_abbrev  0x00007994       0x88 D:/WorK/Synesthesia/wxp/synesthesia/sw_wxp/de1_limbus_bsp/\libchibios_v240_bsp.a(alt_load.o)
 .debug_abbrev  0x00007a1c       0xfb D:/WorK/Synesthesia/wxp/synesthesia/sw_wxp/de1_limbus_bsp/\libchibios_v240_bsp.a(alt_lseek.o)
 .debug_abbrev  0x00007b17       0xf8 D:/WorK/Synesthesia/wxp/synesthesia/sw_wxp/de1_limbus_bsp/\libchibios_v240_bsp.a(alt_main.o)
 .debug_abbrev  0x00007c0f      0x181 D:/WorK/Synesthesia/wxp/synesthesia/sw_wxp/de1_limbus_bsp/\libchibios_v240_bsp.a(alt_malloc_lock.o)
 .debug_abbrev  0x00007d90       0x91 D:/WorK/Synesthesia/wxp/synesthesia/sw_wxp/de1_limbus_bsp/\libchibios_v240_bsp.a(alt_printf.o)
 .debug_abbrev  0x00007e21      0x17f D:/WorK/Synesthesia/wxp/synesthesia/sw_wxp/de1_limbus_bsp/\libchibios_v240_bsp.a(alt_putchar.o)
 .debug_abbrev  0x00007fa0       0xfb D:/WorK/Synesthesia/wxp/synesthesia/sw_wxp/de1_limbus_bsp/\libchibios_v240_bsp.a(alt_read.o)
 .debug_abbrev  0x0000809b       0xc1 D:/WorK/Synesthesia/wxp/synesthesia/sw_wxp/de1_limbus_bsp/\libchibios_v240_bsp.a(alt_release_fd.o)
 .debug_abbrev  0x0000815c      0x115 D:/WorK/Synesthesia/wxp/synesthesia/sw_wxp/de1_limbus_bsp/\libchibios_v240_bsp.a(alt_sbrk.o)
 .debug_abbrev  0x00008271      0x100 D:/WorK/Synesthesia/wxp/synesthesia/sw_wxp/de1_limbus_bsp/\libchibios_v240_bsp.a(alt_write.o)
 .debug_abbrev  0x00008371      0x14b D:/WorK/Synesthesia/wxp/synesthesia/sw_wxp/de1_limbus_bsp/\libchibios_v240_bsp.a(alt_sys_init.o)
 .debug_abbrev  0x000084bc       0xf7 D:/WorK/Synesthesia/wxp/synesthesia/sw_wxp/de1_limbus_bsp/\libchibios_v240_bsp.a(altera_avalon_jtag_uart_fd.o)
 .debug_abbrev  0x000085b3      0x17c D:/WorK/Synesthesia/wxp/synesthesia/sw_wxp/de1_limbus_bsp/\libchibios_v240_bsp.a(altera_avalon_jtag_uart_init.o)
 .debug_abbrev  0x0000872f       0xf0 D:/WorK/Synesthesia/wxp/synesthesia/sw_wxp/de1_limbus_bsp/\libchibios_v240_bsp.a(altera_avalon_jtag_uart_ioctl.o)
 .debug_abbrev  0x0000881f      0x191 D:/WorK/Synesthesia/wxp/synesthesia/sw_wxp/de1_limbus_bsp/\libchibios_v240_bsp.a(altera_avalon_jtag_uart_read.o)
 .debug_abbrev  0x000089b0      0x18d D:/WorK/Synesthesia/wxp/synesthesia/sw_wxp/de1_limbus_bsp/\libchibios_v240_bsp.a(altera_avalon_jtag_uart_write.o)
 .debug_abbrev  0x00008b3d       0x81 D:/WorK/Synesthesia/wxp/synesthesia/sw_wxp/de1_limbus_bsp/\libchibios_v240_bsp.a(altera_avalon_performance_counter.o)
 .debug_abbrev  0x00008bbe      0x137 D:/WorK/Synesthesia/wxp/synesthesia/sw_wxp/de1_limbus_bsp/\libchibios_v240_bsp.a(altera_avalon_timer_sc.o)
 .debug_abbrev  0x00008cf5       0xe8 D:/WorK/Synesthesia/wxp/synesthesia/sw_wxp/de1_limbus_bsp/\libchibios_v240_bsp.a(altera_avalon_uart_fd.o)
 .debug_abbrev  0x00008ddd      0x148 D:/WorK/Synesthesia/wxp/synesthesia/sw_wxp/de1_limbus_bsp/\libchibios_v240_bsp.a(altera_avalon_uart_init.o)
 .debug_abbrev  0x00008f25      0x174 D:/WorK/Synesthesia/wxp/synesthesia/sw_wxp/de1_limbus_bsp/\libchibios_v240_bsp.a(altera_avalon_uart_read.o)
 .debug_abbrev  0x00009099      0x17b D:/WorK/Synesthesia/wxp/synesthesia/sw_wxp/de1_limbus_bsp/\libchibios_v240_bsp.a(altera_avalon_uart_write.o)
 .debug_abbrev  0x00009214       0x8a D:/WorK/Synesthesia/wxp/synesthesia/sw_wxp/de1_limbus_bsp/\libchibios_v240_bsp.a(perf_print_formatted_report.o)
 .debug_abbrev  0x0000929e      0x174 D:/WorK/Synesthesia/wxp/synesthesia/sw_wxp/de1_limbus_bsp/\libchibios_v240_bsp.a(chsys.o)
 .debug_abbrev  0x00009412      0x172 D:/WorK/Synesthesia/wxp/synesthesia/sw_wxp/de1_limbus_bsp/\libchibios_v240_bsp.a(alt_alarm_start.o)
 .debug_abbrev  0x00009584       0x3f D:/WorK/Synesthesia/wxp/synesthesia/sw_wxp/de1_limbus_bsp/\libchibios_v240_bsp.a(alt_dcache_flush_all.o)
 .debug_abbrev  0x000095c3       0xf6 D:/WorK/Synesthesia/wxp/synesthesia/sw_wxp/de1_limbus_bsp/\libchibios_v240_bsp.a(alt_dev_llist_insert.o)
 .debug_abbrev  0x000096b9       0x76 D:/WorK/Synesthesia/wxp/synesthesia/sw_wxp/de1_limbus_bsp/\libchibios_v240_bsp.a(alt_do_ctors.o)
 .debug_abbrev  0x0000972f       0x76 D:/WorK/Synesthesia/wxp/synesthesia/sw_wxp/de1_limbus_bsp/\libchibios_v240_bsp.a(alt_do_dtors.o)
 .debug_abbrev  0x000097a5       0x3f D:/WorK/Synesthesia/wxp/synesthesia/sw_wxp/de1_limbus_bsp/\libchibios_v240_bsp.a(alt_icache_flush_all.o)
 .debug_abbrev  0x000097e4      0x134 D:/WorK/Synesthesia/wxp/synesthesia/sw_wxp/de1_limbus_bsp/\libchibios_v240_bsp.a(alt_iic.o)
 .debug_abbrev  0x00009918      0x14e D:/WorK/Synesthesia/wxp/synesthesia/sw_wxp/de1_limbus_bsp/\libchibios_v240_bsp.a(alt_iic_isr_register.o)
 .debug_abbrev  0x00009a66       0xf0 D:/WorK/Synesthesia/wxp/synesthesia/sw_wxp/de1_limbus_bsp/\libchibios_v240_bsp.a(alt_io_redirect.o)
 .debug_abbrev  0x00009b56       0x12 D:/WorK/Synesthesia/wxp/synesthesia/sw_wxp/de1_limbus_bsp/\libchibios_v240_bsp.a(alt_irq_entry.o)
 .debug_abbrev  0x00009b68      0x10c D:/WorK/Synesthesia/wxp/synesthesia/sw_wxp/de1_limbus_bsp/\libchibios_v240_bsp.a(alt_irq_handler.o)
 .debug_abbrev  0x00009c74       0x44 D:/WorK/Synesthesia/wxp/synesthesia/sw_wxp/de1_limbus_bsp/\libchibios_v240_bsp.a(alt_irq_vars.o)
 .debug_abbrev  0x00009cb8      0x112 D:/WorK/Synesthesia/wxp/synesthesia/sw_wxp/de1_limbus_bsp/\libchibios_v240_bsp.a(alt_open.o)
 .debug_abbrev  0x00009dca      0x150 D:/WorK/Synesthesia/wxp/synesthesia/sw_wxp/de1_limbus_bsp/\libchibios_v240_bsp.a(alt_tick.o)
 .debug_abbrev  0x00009f1a       0x3f D:/WorK/Synesthesia/wxp/synesthesia/sw_wxp/de1_limbus_bsp/\libchibios_v240_bsp.a(altera_nios2_qsys_irq.o)
 .debug_abbrev  0x00009f59       0xa4 D:/WorK/Synesthesia/wxp/synesthesia/sw_wxp/de1_limbus_bsp/\libchibios_v240_bsp.a(chcore.o)
 .debug_abbrev  0x00009ffd       0x12 D:/WorK/Synesthesia/wxp/synesthesia/sw_wxp/de1_limbus_bsp/\libchibios_v240_bsp.a(alt_exception_entry.o)
 .debug_abbrev  0x0000a00f       0xcf D:/WorK/Synesthesia/wxp/synesthesia/sw_wxp/de1_limbus_bsp/\libchibios_v240_bsp.a(alt_find_dev.o)
 .debug_abbrev  0x0000a0de       0xcf D:/WorK/Synesthesia/wxp/synesthesia/sw_wxp/de1_limbus_bsp/\libchibios_v240_bsp.a(alt_find_file.o)
 .debug_abbrev  0x0000a1ad       0xfb D:/WorK/Synesthesia/wxp/synesthesia/sw_wxp/de1_limbus_bsp/\libchibios_v240_bsp.a(alt_get_fd.o)
 .debug_abbrev  0x0000a2a8       0xb7 c:/altera/11.1sp2/nios2eds/bin/gnu/h-i686-mingw32/bin/../lib/gcc/nios2-elf/4.1.2/../../../../nios2-elf/lib/mno-hw-mul\libc.a(lib_a-atexit.o)
 .debug_abbrev  0x0000a35f      0x16e c:/altera/11.1sp2/nios2eds/bin/gnu/h-i686-mingw32/bin/../lib/gcc/nios2-elf/4.1.2/../../../../nios2-elf/lib/mno-hw-mul\libc.a(lib_a-exit.o)
 .debug_abbrev  0x0000a4cd      0x17f c:/altera/11.1sp2/nios2eds/bin/gnu/h-i686-mingw32/bin/../lib/gcc/nios2-elf/4.1.2/../../../../nios2-elf/lib/mno-hw-mul\libc.a(lib_a-getc.o)
 .debug_abbrev  0x0000a64c       0x7c c:/altera/11.1sp2/nios2eds/bin/gnu/h-i686-mingw32/bin/../lib/gcc/nios2-elf/4.1.2/../../../../nios2-elf/lib/mno-hw-mul\libc.a(lib_a-memcmp.o)
 .debug_abbrev  0x0000a6c8      0x17f c:/altera/11.1sp2/nios2eds/bin/gnu/h-i686-mingw32/bin/../lib/gcc/nios2-elf/4.1.2/../../../../nios2-elf/lib/mno-hw-mul\libc.a(lib_a-putc.o)
 .debug_abbrev  0x0000a847      0x189 c:/altera/11.1sp2/nios2eds/bin/gnu/h-i686-mingw32/bin/../lib/gcc/nios2-elf/4.1.2/../../../../nios2-elf/lib/mno-hw-mul\libc.a(lib_a-rget.o)
 .debug_abbrev  0x0000a9d0      0x198 c:/altera/11.1sp2/nios2eds/bin/gnu/h-i686-mingw32/bin/../lib/gcc/nios2-elf/4.1.2/../../../../nios2-elf/lib/mno-hw-mul\libc.a(lib_a-wbuf.o)
 .debug_abbrev  0x0000ab68      0x1ae c:/altera/11.1sp2/nios2eds/bin/gnu/h-i686-mingw32/bin/../lib/gcc/nios2-elf/4.1.2/../../../../nios2-elf/lib/mno-hw-mul\libc.a(lib_a-__atexit.o)
 .debug_abbrev  0x0000ad16      0x1de c:/altera/11.1sp2/nios2eds/bin/gnu/h-i686-mingw32/bin/../lib/gcc/nios2-elf/4.1.2/../../../../nios2-elf/lib/mno-hw-mul\libc.a(lib_a-__call_atexit.o)
 .debug_abbrev  0x0000aef4      0x187 c:/altera/11.1sp2/nios2eds/bin/gnu/h-i686-mingw32/bin/../lib/gcc/nios2-elf/4.1.2/../../../../nios2-elf/lib/mno-hw-mul\libc.a(lib_a-refill.o)
 .debug_abbrev  0x0000b07b       0x6c c:/altera/11.1sp2/nios2eds/bin/gnu/h-i686-mingw32/bin/../lib/gcc/nios2-elf/4.1.2/mno-hw-mul\libgcc.a(_floatundidf.o)
 .debug_abbrev  0x0000b0e7       0x72 D:/WorK/Synesthesia/wxp/synesthesia/sw_wxp/de1_limbus_bsp/\libchibios_v240_bsp.a(alt_exit.o)

.debug_line     0x00000000    0x21b5c
 *(.debug_line)
 .debug_line    0x00000000       0x66 D:/WorK/Synesthesia/wxp/synesthesia/sw_wxp/de1_limbus_bsp//obj/HAL/src/crt0.o
 .debug_line    0x00000066      0x886 obj/default/ledos/codec/codec.o
 .debug_line    0x000008ec      0x5ab obj/default/ledos/cortex/acortex/acortex.o
 .debug_line    0x00000e97      0x267 obj/default/ledos/cortex/acortex/dac/dac_drvr.o
 .debug_line    0x000010fe      0x4d9 obj/default/ledos/cortex/acortex/i2c/i2c_drvr.o
 .debug_line    0x000015d7      0x460 obj/default/ledos/cortex/acortex/prsr/prsr.o
 .debug_line    0x00001a37      0x11b obj/default/ledos/cortex/acortex/sram/sram.o
 .debug_line    0x00001b52      0x474 obj/default/ledos/cortex/cortex.o
 .debug_line    0x00001fc6      0x181 obj/default/ledos/cortex/fgyrus/fgyrus.o
 .debug_line    0x00002147      0x176 obj/default/ledos/cortex/vcortex/vcortex.o
 .debug_line    0x000022bd      0x875 obj/default/ledos/fatfs/diskio.o
 .debug_line    0x00002b32     0x262a obj/default/ledos/fatfs/ff.o
 .debug_line    0x0000515c      0x104 obj/default/ledos/fft_cache/fft_cache.o
 .debug_line    0x00005260      0x8ec obj/default/ledos/ledos.o
 .debug_line    0x00005b4c      0x495 obj/default/ledos/lsd/lsd.o
 .debug_line    0x00005fe1      0xcb6 obj/default/ledos/shell/bash.o
 .debug_line    0x00006c97      0x837 obj/default/ledos/shell/shell.o
 .debug_line    0x000074ce      0x507 obj/default/main.o
 .debug_line    0x000079d5      0x24f c:/altera/11.1sp2/nios2eds/bin/gnu/h-i686-mingw32/bin/../lib/gcc/nios2-elf/4.1.2/mno-hw-mul\libgcc.a(lib2-divmod.o)
 .debug_line    0x00007c24      0x11a c:/altera/11.1sp2/nios2eds/bin/gnu/h-i686-mingw32/bin/../lib/gcc/nios2-elf/4.1.2/mno-hw-mul\libgcc.a(lib2-mul.o)
 .debug_line    0x00007d3e      0x29e c:/altera/11.1sp2/nios2eds/bin/gnu/h-i686-mingw32/bin/../lib/gcc/nios2-elf/4.1.2/../../../../nios2-elf/lib/mno-hw-mul\libc.a(lib_a-printf.o)
 .debug_line    0x00007fdc      0x212 c:/altera/11.1sp2/nios2eds/bin/gnu/h-i686-mingw32/bin/../lib/gcc/nios2-elf/4.1.2/../../../../nios2-elf/lib/mno-hw-mul\libc.a(lib_a-strcasecmp.o)
 .debug_line    0x000081ee      0x2a3 c:/altera/11.1sp2/nios2eds/bin/gnu/h-i686-mingw32/bin/../lib/gcc/nios2-elf/4.1.2/../../../../nios2-elf/lib/mno-hw-mul\libc.a(lib_a-strpbrk.o)
 .debug_line    0x00008491      0x290 c:/altera/11.1sp2/nios2eds/bin/gnu/h-i686-mingw32/bin/../lib/gcc/nios2-elf/4.1.2/../../../../nios2-elf/lib/mno-hw-mul\libc.a(lib_a-strspn.o)
 .debug_line    0x00008721     0x110f c:/altera/11.1sp2/nios2eds/bin/gnu/h-i686-mingw32/bin/../lib/gcc/nios2-elf/4.1.2/../../../../nios2-elf/lib/mno-hw-mul\libc.a(lib_a-vfprintf.o)
 .debug_line    0x00009830      0x2f3 c:/altera/11.1sp2/nios2eds/bin/gnu/h-i686-mingw32/bin/../lib/gcc/nios2-elf/4.1.2/../../../../nios2-elf/lib/mno-hw-mul\libc.a(lib_a-wsetup.o)
 .debug_line    0x00009b23       0x81 c:/altera/11.1sp2/nios2eds/bin/gnu/h-i686-mingw32/bin/../lib/gcc/nios2-elf/4.1.2/../../../../nios2-elf/lib/mno-hw-mul\libc.a(lib_a-ctype_.o)
 .debug_line    0x00009ba4     0x1309 c:/altera/11.1sp2/nios2eds/bin/gnu/h-i686-mingw32/bin/../lib/gcc/nios2-elf/4.1.2/../../../../nios2-elf/lib/mno-hw-mul\libc.a(lib_a-dtoa.o)
 .debug_line    0x0000aead      0x410 c:/altera/11.1sp2/nios2eds/bin/gnu/h-i686-mingw32/bin/../lib/gcc/nios2-elf/4.1.2/../../../../nios2-elf/lib/mno-hw-mul\libc.a(lib_a-fflush.o)
 .debug_line    0x0000b2bd      0x60c c:/altera/11.1sp2/nios2eds/bin/gnu/h-i686-mingw32/bin/../lib/gcc/nios2-elf/4.1.2/../../../../nios2-elf/lib/mno-hw-mul\libc.a(lib_a-findfp.o)
 .debug_line    0x0000b8c9      0x5ee c:/altera/11.1sp2/nios2eds/bin/gnu/h-i686-mingw32/bin/../lib/gcc/nios2-elf/4.1.2/../../../../nios2-elf/lib/mno-hw-mul\libc.a(lib_a-freer.o)
 .debug_line    0x0000beb7      0x644 c:/altera/11.1sp2/nios2eds/bin/gnu/h-i686-mingw32/bin/../lib/gcc/nios2-elf/4.1.2/../../../../nios2-elf/lib/mno-hw-mul\libc.a(lib_a-fvwrite.o)
 .debug_line    0x0000c4fb      0x34d c:/altera/11.1sp2/nios2eds/bin/gnu/h-i686-mingw32/bin/../lib/gcc/nios2-elf/4.1.2/../../../../nios2-elf/lib/mno-hw-mul\libc.a(lib_a-fwalk.o)
 .debug_line    0x0000c848      0x230 c:/altera/11.1sp2/nios2eds/bin/gnu/h-i686-mingw32/bin/../lib/gcc/nios2-elf/4.1.2/../../../../nios2-elf/lib/mno-hw-mul\libc.a(lib_a-impure.o)
 .debug_line    0x0000ca78      0x2cb c:/altera/11.1sp2/nios2eds/bin/gnu/h-i686-mingw32/bin/../lib/gcc/nios2-elf/4.1.2/../../../../nios2-elf/lib/mno-hw-mul\libc.a(lib_a-locale.o)
 .debug_line    0x0000cd43      0x3c6 c:/altera/11.1sp2/nios2eds/bin/gnu/h-i686-mingw32/bin/../lib/gcc/nios2-elf/4.1.2/../../../../nios2-elf/lib/mno-hw-mul\libc.a(lib_a-makebuf.o)
 .debug_line    0x0000d109      0x80d c:/altera/11.1sp2/nios2eds/bin/gnu/h-i686-mingw32/bin/../lib/gcc/nios2-elf/4.1.2/../../../../nios2-elf/lib/mno-hw-mul\libc.a(lib_a-mallocr.o)
 .debug_line    0x0000d916      0x306 c:/altera/11.1sp2/nios2eds/bin/gnu/h-i686-mingw32/bin/../lib/gcc/nios2-elf/4.1.2/../../../../nios2-elf/lib/mno-hw-mul\libc.a(lib_a-memchr.o)
 .debug_line    0x0000dc1c      0x1af c:/altera/11.1sp2/nios2eds/bin/gnu/h-i686-mingw32/bin/../lib/gcc/nios2-elf/4.1.2/../../../../nios2-elf/lib/mno-hw-mul\libc.a(lib_a-memcpy.o)
 .debug_line    0x0000ddcb      0x30d c:/altera/11.1sp2/nios2eds/bin/gnu/h-i686-mingw32/bin/../lib/gcc/nios2-elf/4.1.2/../../../../nios2-elf/lib/mno-hw-mul\libc.a(lib_a-memmove.o)
 .debug_line    0x0000e0d8      0x304 c:/altera/11.1sp2/nios2eds/bin/gnu/h-i686-mingw32/bin/../lib/gcc/nios2-elf/4.1.2/../../../../nios2-elf/lib/mno-hw-mul\libc.a(lib_a-memset.o)
 .debug_line    0x0000e3dc     0x125e c:/altera/11.1sp2/nios2eds/bin/gnu/h-i686-mingw32/bin/../lib/gcc/nios2-elf/4.1.2/../../../../nios2-elf/lib/mno-hw-mul\libc.a(lib_a-mprec.o)
 .debug_line    0x0000f63a      0x58d c:/altera/11.1sp2/nios2eds/bin/gnu/h-i686-mingw32/bin/../lib/gcc/nios2-elf/4.1.2/../../../../nios2-elf/lib/mno-hw-mul\libc.a(lib_a-reallocr.o)
 .debug_line    0x0000fbc7      0x225 c:/altera/11.1sp2/nios2eds/bin/gnu/h-i686-mingw32/bin/../lib/gcc/nios2-elf/4.1.2/../../../../nios2-elf/lib/mno-hw-mul\libc.a(lib_a-s_isinfd.o)
 .debug_line    0x0000fdec      0x21d c:/altera/11.1sp2/nios2eds/bin/gnu/h-i686-mingw32/bin/../lib/gcc/nios2-elf/4.1.2/../../../../nios2-elf/lib/mno-hw-mul\libc.a(lib_a-s_isnand.o)
 .debug_line    0x00010009      0x29c c:/altera/11.1sp2/nios2eds/bin/gnu/h-i686-mingw32/bin/../lib/gcc/nios2-elf/4.1.2/../../../../nios2-elf/lib/mno-hw-mul\libc.a(lib_a-sbrkr.o)
 .debug_line    0x000102a5      0x38f c:/altera/11.1sp2/nios2eds/bin/gnu/h-i686-mingw32/bin/../lib/gcc/nios2-elf/4.1.2/../../../../nios2-elf/lib/mno-hw-mul\libc.a(lib_a-stdio.o)
 .debug_line    0x00010634      0x2d8 c:/altera/11.1sp2/nios2eds/bin/gnu/h-i686-mingw32/bin/../lib/gcc/nios2-elf/4.1.2/../../../../nios2-elf/lib/mno-hw-mul\libc.a(lib_a-strcmp.o)
 .debug_line    0x0001090c      0x270 c:/altera/11.1sp2/nios2eds/bin/gnu/h-i686-mingw32/bin/../lib/gcc/nios2-elf/4.1.2/../../../../nios2-elf/lib/mno-hw-mul\libc.a(lib_a-strlen.o)
 .debug_line    0x00010b7c      0x29d c:/altera/11.1sp2/nios2eds/bin/gnu/h-i686-mingw32/bin/../lib/gcc/nios2-elf/4.1.2/../../../../nios2-elf/lib/mno-hw-mul\libc.a(lib_a-writer.o)
 .debug_line    0x00010e19      0x25f c:/altera/11.1sp2/nios2eds/bin/gnu/h-i686-mingw32/bin/../lib/gcc/nios2-elf/4.1.2/../../../../nios2-elf/lib/mno-hw-mul\libc.a(lib_a-callocr.o)
 .debug_line    0x00011078      0x29d c:/altera/11.1sp2/nios2eds/bin/gnu/h-i686-mingw32/bin/../lib/gcc/nios2-elf/4.1.2/../../../../nios2-elf/lib/mno-hw-mul\libc.a(lib_a-closer.o)
 .debug_line    0x00011315      0x2eb c:/altera/11.1sp2/nios2eds/bin/gnu/h-i686-mingw32/bin/../lib/gcc/nios2-elf/4.1.2/../../../../nios2-elf/lib/mno-hw-mul\libc.a(lib_a-fclose.o)
 .debug_line    0x00011600      0x267 c:/altera/11.1sp2/nios2eds/bin/gnu/h-i686-mingw32/bin/../lib/gcc/nios2-elf/4.1.2/../../../../nios2-elf/lib/mno-hw-mul\libc.a(lib_a-fstatr.o)
 .debug_line    0x00011867      0x1e2 c:/altera/11.1sp2/nios2eds/bin/gnu/h-i686-mingw32/bin/../lib/gcc/nios2-elf/4.1.2/../../../../nios2-elf/lib/mno-hw-mul\libc.a(lib_a-int_errno.o)
 .debug_line    0x00011a49      0x29e c:/altera/11.1sp2/nios2eds/bin/gnu/h-i686-mingw32/bin/../lib/gcc/nios2-elf/4.1.2/../../../../nios2-elf/lib/mno-hw-mul\libc.a(lib_a-isattyr.o)
 .debug_line    0x00011ce7      0x29d c:/altera/11.1sp2/nios2eds/bin/gnu/h-i686-mingw32/bin/../lib/gcc/nios2-elf/4.1.2/../../../../nios2-elf/lib/mno-hw-mul\libc.a(lib_a-lseekr.o)
 .debug_line    0x00011f84      0x29c c:/altera/11.1sp2/nios2eds/bin/gnu/h-i686-mingw32/bin/../lib/gcc/nios2-elf/4.1.2/../../../../nios2-elf/lib/mno-hw-mul\libc.a(lib_a-readr.o)
 .debug_line    0x00012220      0x2f2 c:/altera/11.1sp2/nios2eds/bin/gnu/h-i686-mingw32/bin/../lib/gcc/nios2-elf/4.1.2/mno-hw-mul\libgcc.a(_udivdi3.o)
 .debug_line    0x00012512      0x405 c:/altera/11.1sp2/nios2eds/bin/gnu/h-i686-mingw32/bin/../lib/gcc/nios2-elf/4.1.2/mno-hw-mul\libgcc.a(_umoddi3.o)
 .debug_line    0x00012917      0x430 c:/altera/11.1sp2/nios2eds/bin/gnu/h-i686-mingw32/bin/../lib/gcc/nios2-elf/4.1.2/mno-hw-mul\libgcc.a(_addsub_df.o)
 .debug_line    0x00012d47      0x3e5 c:/altera/11.1sp2/nios2eds/bin/gnu/h-i686-mingw32/bin/../lib/gcc/nios2-elf/4.1.2/mno-hw-mul\libgcc.a(_mul_df.o)
 .debug_line    0x0001312c      0x301 c:/altera/11.1sp2/nios2eds/bin/gnu/h-i686-mingw32/bin/../lib/gcc/nios2-elf/4.1.2/mno-hw-mul\libgcc.a(_div_df.o)
 .debug_line    0x0001342d      0x129 c:/altera/11.1sp2/nios2eds/bin/gnu/h-i686-mingw32/bin/../lib/gcc/nios2-elf/4.1.2/mno-hw-mul\libgcc.a(_eq_df.o)
 .debug_line    0x00013556      0x129 c:/altera/11.1sp2/nios2eds/bin/gnu/h-i686-mingw32/bin/../lib/gcc/nios2-elf/4.1.2/mno-hw-mul\libgcc.a(_ne_df.o)
 .debug_line    0x0001367f      0x129 c:/altera/11.1sp2/nios2eds/bin/gnu/h-i686-mingw32/bin/../lib/gcc/nios2-elf/4.1.2/mno-hw-mul\libgcc.a(_gt_df.o)
 .debug_line    0x000137a8      0x129 c:/altera/11.1sp2/nios2eds/bin/gnu/h-i686-mingw32/bin/../lib/gcc/nios2-elf/4.1.2/mno-hw-mul\libgcc.a(_ge_df.o)
 .debug_line    0x000138d1      0x129 c:/altera/11.1sp2/nios2eds/bin/gnu/h-i686-mingw32/bin/../lib/gcc/nios2-elf/4.1.2/mno-hw-mul\libgcc.a(_lt_df.o)
 .debug_line    0x000139fa      0x175 c:/altera/11.1sp2/nios2eds/bin/gnu/h-i686-mingw32/bin/../lib/gcc/nios2-elf/4.1.2/mno-hw-mul\libgcc.a(_si_to_df.o)
 .debug_line    0x00013b6f      0x149 c:/altera/11.1sp2/nios2eds/bin/gnu/h-i686-mingw32/bin/../lib/gcc/nios2-elf/4.1.2/mno-hw-mul\libgcc.a(_df_to_si.o)
 .debug_line    0x00013cb8       0x94 c:/altera/11.1sp2/nios2eds/bin/gnu/h-i686-mingw32/bin/../lib/gcc/nios2-elf/4.1.2/mno-hw-mul\libgcc.a(_thenan_df.o)
 .debug_line    0x00013d4c      0x189 c:/altera/11.1sp2/nios2eds/bin/gnu/h-i686-mingw32/bin/../lib/gcc/nios2-elf/4.1.2/mno-hw-mul\libgcc.a(_usi_to_df.o)
 .debug_line    0x00013ed5      0x14f c:/altera/11.1sp2/nios2eds/bin/gnu/h-i686-mingw32/bin/../lib/gcc/nios2-elf/4.1.2/mno-hw-mul\libgcc.a(_muldi3.o)
 .debug_line    0x00014024       0xaa c:/altera/11.1sp2/nios2eds/bin/gnu/h-i686-mingw32/bin/../lib/gcc/nios2-elf/4.1.2/mno-hw-mul\libgcc.a(_clz.o)
 .debug_line    0x000140ce      0x105 c:/altera/11.1sp2/nios2eds/bin/gnu/h-i686-mingw32/bin/../lib/gcc/nios2-elf/4.1.2/mno-hw-mul\libgcc.a(_clzsi2.o)
 .debug_line    0x000141d3      0x222 c:/altera/11.1sp2/nios2eds/bin/gnu/h-i686-mingw32/bin/../lib/gcc/nios2-elf/4.1.2/mno-hw-mul\libgcc.a(_pack_df.o)
 .debug_line    0x000143f5      0x1e4 c:/altera/11.1sp2/nios2eds/bin/gnu/h-i686-mingw32/bin/../lib/gcc/nios2-elf/4.1.2/mno-hw-mul\libgcc.a(_unpack_df.o)
 .debug_line    0x000145d9      0x187 c:/altera/11.1sp2/nios2eds/bin/gnu/h-i686-mingw32/bin/../lib/gcc/nios2-elf/4.1.2/mno-hw-mul\libgcc.a(_fpcmp_parts_df.o)
 .debug_line    0x00014760      0x48f D:/WorK/Synesthesia/wxp/synesthesia/sw_wxp/de1_limbus_bsp/\libchibios_v240_bsp.a(chdynamic.o)
 .debug_line    0x00014bef      0x8e1 D:/WorK/Synesthesia/wxp/synesthesia/sw_wxp/de1_limbus_bsp/\libchibios_v240_bsp.a(chevents.o)
 .debug_line    0x000154d0      0x565 D:/WorK/Synesthesia/wxp/synesthesia/sw_wxp/de1_limbus_bsp/\libchibios_v240_bsp.a(chheap.o)
 .debug_line    0x00015a35      0x3b2 D:/WorK/Synesthesia/wxp/synesthesia/sw_wxp/de1_limbus_bsp/\libchibios_v240_bsp.a(chmemcore.o)
 .debug_line    0x00015de7      0x40d D:/WorK/Synesthesia/wxp/synesthesia/sw_wxp/de1_limbus_bsp/\libchibios_v240_bsp.a(chmempools.o)
 .debug_line    0x000161f4      0x46d D:/WorK/Synesthesia/wxp/synesthesia/sw_wxp/de1_limbus_bsp/\libchibios_v240_bsp.a(chmsg.o)
 .debug_line    0x00016661      0x760 D:/WorK/Synesthesia/wxp/synesthesia/sw_wxp/de1_limbus_bsp/\libchibios_v240_bsp.a(chmtx.o)
 .debug_line    0x00016dc1      0x57f D:/WorK/Synesthesia/wxp/synesthesia/sw_wxp/de1_limbus_bsp/\libchibios_v240_bsp.a(chschd.o)
 .debug_line    0x00017340      0x6df D:/WorK/Synesthesia/wxp/synesthesia/sw_wxp/de1_limbus_bsp/\libchibios_v240_bsp.a(chthreads.o)
 .debug_line    0x00017a1f      0x3e9 D:/WorK/Synesthesia/wxp/synesthesia/sw_wxp/de1_limbus_bsp/\libchibios_v240_bsp.a(chvt.o)
 .debug_line    0x00017e08       0x7d D:/WorK/Synesthesia/wxp/synesthesia/sw_wxp/de1_limbus_bsp/\libchibios_v240_bsp.a(chcoreasm.o)
 .debug_line    0x00017e85      0x299 D:/WorK/Synesthesia/wxp/synesthesia/sw_wxp/de1_limbus_bsp/\libchibios_v240_bsp.a(alt_close.o)
 .debug_line    0x0001811e      0x254 D:/WorK/Synesthesia/wxp/synesthesia/sw_wxp/de1_limbus_bsp/\libchibios_v240_bsp.a(alt_dev.o)
 .debug_line    0x00018372      0x1aa D:/WorK/Synesthesia/wxp/synesthesia/sw_wxp/de1_limbus_bsp/\libchibios_v240_bsp.a(alt_errno.o)
 .debug_line    0x0001851c      0x2a1 D:/WorK/Synesthesia/wxp/synesthesia/sw_wxp/de1_limbus_bsp/\libchibios_v240_bsp.a(alt_fstat.o)
 .debug_line    0x000187bd      0x1ca D:/WorK/Synesthesia/wxp/synesthesia/sw_wxp/de1_limbus_bsp/\libchibios_v240_bsp.a(alt_getchar.o)
 .debug_line    0x00018987      0x2a2 D:/WorK/Synesthesia/wxp/synesthesia/sw_wxp/de1_limbus_bsp/\libchibios_v240_bsp.a(alt_isatty.o)
 .debug_line    0x00018c29      0x217 D:/WorK/Synesthesia/wxp/synesthesia/sw_wxp/de1_limbus_bsp/\libchibios_v240_bsp.a(alt_load.o)
 .debug_line    0x00018e40      0x2a1 D:/WorK/Synesthesia/wxp/synesthesia/sw_wxp/de1_limbus_bsp/\libchibios_v240_bsp.a(alt_lseek.o)
 .debug_line    0x000190e1      0x424 D:/WorK/Synesthesia/wxp/synesthesia/sw_wxp/de1_limbus_bsp/\libchibios_v240_bsp.a(alt_main.o)
 .debug_line    0x00019505      0x20f D:/WorK/Synesthesia/wxp/synesthesia/sw_wxp/de1_limbus_bsp/\libchibios_v240_bsp.a(alt_malloc_lock.o)
 .debug_line    0x00019714      0x1da D:/WorK/Synesthesia/wxp/synesthesia/sw_wxp/de1_limbus_bsp/\libchibios_v240_bsp.a(alt_printf.o)
 .debug_line    0x000198ee      0x1ca D:/WorK/Synesthesia/wxp/synesthesia/sw_wxp/de1_limbus_bsp/\libchibios_v240_bsp.a(alt_putchar.o)
 .debug_line    0x00019ab8      0x2c8 D:/WorK/Synesthesia/wxp/synesthesia/sw_wxp/de1_limbus_bsp/\libchibios_v240_bsp.a(alt_read.o)
 .debug_line    0x00019d80       0xed D:/WorK/Synesthesia/wxp/synesthesia/sw_wxp/de1_limbus_bsp/\libchibios_v240_bsp.a(alt_release_fd.o)
 .debug_line    0x00019e6d      0x261 D:/WorK/Synesthesia/wxp/synesthesia/sw_wxp/de1_limbus_bsp/\libchibios_v240_bsp.a(alt_sbrk.o)
 .debug_line    0x0001a0ce      0x2c9 D:/WorK/Synesthesia/wxp/synesthesia/sw_wxp/de1_limbus_bsp/\libchibios_v240_bsp.a(alt_write.o)
 .debug_line    0x0001a397      0x317 D:/WorK/Synesthesia/wxp/synesthesia/sw_wxp/de1_limbus_bsp/\libchibios_v240_bsp.a(alt_sys_init.o)
 .debug_line    0x0001a6ae      0x217 D:/WorK/Synesthesia/wxp/synesthesia/sw_wxp/de1_limbus_bsp/\libchibios_v240_bsp.a(altera_avalon_jtag_uart_fd.o)
 .debug_line    0x0001a8c5      0x4ab D:/WorK/Synesthesia/wxp/synesthesia/sw_wxp/de1_limbus_bsp/\libchibios_v240_bsp.a(altera_avalon_jtag_uart_init.o)
 .debug_line    0x0001ad70      0x317 D:/WorK/Synesthesia/wxp/synesthesia/sw_wxp/de1_limbus_bsp/\libchibios_v240_bsp.a(altera_avalon_jtag_uart_ioctl.o)
 .debug_line    0x0001b087      0x3f7 D:/WorK/Synesthesia/wxp/synesthesia/sw_wxp/de1_limbus_bsp/\libchibios_v240_bsp.a(altera_avalon_jtag_uart_read.o)
 .debug_line    0x0001b47e      0x405 D:/WorK/Synesthesia/wxp/synesthesia/sw_wxp/de1_limbus_bsp/\libchibios_v240_bsp.a(altera_avalon_jtag_uart_write.o)
 .debug_line    0x0001b883      0x12d D:/WorK/Synesthesia/wxp/synesthesia/sw_wxp/de1_limbus_bsp/\libchibios_v240_bsp.a(altera_avalon_performance_counter.o)
 .debug_line    0x0001b9b0      0x2b3 D:/WorK/Synesthesia/wxp/synesthesia/sw_wxp/de1_limbus_bsp/\libchibios_v240_bsp.a(altera_avalon_timer_sc.o)
 .debug_line    0x0001bc63      0x1d2 D:/WorK/Synesthesia/wxp/synesthesia/sw_wxp/de1_limbus_bsp/\libchibios_v240_bsp.a(altera_avalon_uart_fd.o)
 .debug_line    0x0001be35      0x492 D:/WorK/Synesthesia/wxp/synesthesia/sw_wxp/de1_limbus_bsp/\libchibios_v240_bsp.a(altera_avalon_uart_init.o)
 .debug_line    0x0001c2c7      0x404 D:/WorK/Synesthesia/wxp/synesthesia/sw_wxp/de1_limbus_bsp/\libchibios_v240_bsp.a(altera_avalon_uart_read.o)
 .debug_line    0x0001c6cb      0x3e5 D:/WorK/Synesthesia/wxp/synesthesia/sw_wxp/de1_limbus_bsp/\libchibios_v240_bsp.a(altera_avalon_uart_write.o)
 .debug_line    0x0001cab0      0x267 D:/WorK/Synesthesia/wxp/synesthesia/sw_wxp/de1_limbus_bsp/\libchibios_v240_bsp.a(perf_print_formatted_report.o)
 .debug_line    0x0001cd17      0x3a0 D:/WorK/Synesthesia/wxp/synesthesia/sw_wxp/de1_limbus_bsp/\libchibios_v240_bsp.a(chsys.o)
 .debug_line    0x0001d0b7      0x2dc D:/WorK/Synesthesia/wxp/synesthesia/sw_wxp/de1_limbus_bsp/\libchibios_v240_bsp.a(alt_alarm_start.o)
 .debug_line    0x0001d393      0x1b5 D:/WorK/Synesthesia/wxp/synesthesia/sw_wxp/de1_limbus_bsp/\libchibios_v240_bsp.a(alt_dcache_flush_all.o)
 .debug_line    0x0001d548      0x25a D:/WorK/Synesthesia/wxp/synesthesia/sw_wxp/de1_limbus_bsp/\libchibios_v240_bsp.a(alt_dev_llist_insert.o)
 .debug_line    0x0001d7a2       0x83 D:/WorK/Synesthesia/wxp/synesthesia/sw_wxp/de1_limbus_bsp/\libchibios_v240_bsp.a(alt_do_ctors.o)
 .debug_line    0x0001d825       0x83 D:/WorK/Synesthesia/wxp/synesthesia/sw_wxp/de1_limbus_bsp/\libchibios_v240_bsp.a(alt_do_dtors.o)
 .debug_line    0x0001d8a8      0x1b5 D:/WorK/Synesthesia/wxp/synesthesia/sw_wxp/de1_limbus_bsp/\libchibios_v240_bsp.a(alt_icache_flush_all.o)
 .debug_line    0x0001da5d      0x2c8 D:/WorK/Synesthesia/wxp/synesthesia/sw_wxp/de1_limbus_bsp/\libchibios_v240_bsp.a(alt_iic.o)
 .debug_line    0x0001dd25      0x249 D:/WorK/Synesthesia/wxp/synesthesia/sw_wxp/de1_limbus_bsp/\libchibios_v240_bsp.a(alt_iic_isr_register.o)
 .debug_line    0x0001df6e      0x2b4 D:/WorK/Synesthesia/wxp/synesthesia/sw_wxp/de1_limbus_bsp/\libchibios_v240_bsp.a(alt_io_redirect.o)
 .debug_line    0x0001e222       0x6b D:/WorK/Synesthesia/wxp/synesthesia/sw_wxp/de1_limbus_bsp/\libchibios_v240_bsp.a(alt_irq_entry.o)
 .debug_line    0x0001e28d      0x38c D:/WorK/Synesthesia/wxp/synesthesia/sw_wxp/de1_limbus_bsp/\libchibios_v240_bsp.a(alt_irq_handler.o)
 .debug_line    0x0001e619       0x72 D:/WorK/Synesthesia/wxp/synesthesia/sw_wxp/de1_limbus_bsp/\libchibios_v240_bsp.a(alt_irq_vars.o)
 .debug_line    0x0001e68b      0x2ff D:/WorK/Synesthesia/wxp/synesthesia/sw_wxp/de1_limbus_bsp/\libchibios_v240_bsp.a(alt_open.o)
 .debug_line    0x0001e98a      0x420 D:/WorK/Synesthesia/wxp/synesthesia/sw_wxp/de1_limbus_bsp/\libchibios_v240_bsp.a(alt_tick.o)
 .debug_line    0x0001edaa      0x1ce D:/WorK/Synesthesia/wxp/synesthesia/sw_wxp/de1_limbus_bsp/\libchibios_v240_bsp.a(altera_nios2_qsys_irq.o)
 .debug_line    0x0001ef78      0x31a D:/WorK/Synesthesia/wxp/synesthesia/sw_wxp/de1_limbus_bsp/\libchibios_v240_bsp.a(chcore.o)
 .debug_line    0x0001f292       0xab D:/WorK/Synesthesia/wxp/synesthesia/sw_wxp/de1_limbus_bsp/\libchibios_v240_bsp.a(alt_exception_entry.o)
 .debug_line    0x0001f33d      0x26b D:/WorK/Synesthesia/wxp/synesthesia/sw_wxp/de1_limbus_bsp/\libchibios_v240_bsp.a(alt_find_dev.o)
 .debug_line    0x0001f5a8      0x27c D:/WorK/Synesthesia/wxp/synesthesia/sw_wxp/de1_limbus_bsp/\libchibios_v240_bsp.a(alt_find_file.o)
 .debug_line    0x0001f824      0x297 D:/WorK/Synesthesia/wxp/synesthesia/sw_wxp/de1_limbus_bsp/\libchibios_v240_bsp.a(alt_get_fd.o)
 .debug_line    0x0001fabb      0x203 c:/altera/11.1sp2/nios2eds/bin/gnu/h-i686-mingw32/bin/../lib/gcc/nios2-elf/4.1.2/../../../../nios2-elf/lib/mno-hw-mul\libc.a(lib_a-atexit.o)
 .debug_line    0x0001fcbe      0x23b c:/altera/11.1sp2/nios2eds/bin/gnu/h-i686-mingw32/bin/../lib/gcc/nios2-elf/4.1.2/../../../../nios2-elf/lib/mno-hw-mul\libc.a(lib_a-exit.o)
 .debug_line    0x0001fef9      0x2a7 c:/altera/11.1sp2/nios2eds/bin/gnu/h-i686-mingw32/bin/../lib/gcc/nios2-elf/4.1.2/../../../../nios2-elf/lib/mno-hw-mul\libc.a(lib_a-getc.o)
 .debug_line    0x000201a0      0x2a2 c:/altera/11.1sp2/nios2eds/bin/gnu/h-i686-mingw32/bin/../lib/gcc/nios2-elf/4.1.2/../../../../nios2-elf/lib/mno-hw-mul\libc.a(lib_a-memcmp.o)
 .debug_line    0x00020442      0x2c7 c:/altera/11.1sp2/nios2eds/bin/gnu/h-i686-mingw32/bin/../lib/gcc/nios2-elf/4.1.2/../../../../nios2-elf/lib/mno-hw-mul\libc.a(lib_a-putc.o)
 .debug_line    0x00020709      0x290 c:/altera/11.1sp2/nios2eds/bin/gnu/h-i686-mingw32/bin/../lib/gcc/nios2-elf/4.1.2/../../../../nios2-elf/lib/mno-hw-mul\libc.a(lib_a-rget.o)
 .debug_line    0x00020999      0x353 c:/altera/11.1sp2/nios2eds/bin/gnu/h-i686-mingw32/bin/../lib/gcc/nios2-elf/4.1.2/../../../../nios2-elf/lib/mno-hw-mul\libc.a(lib_a-wbuf.o)
 .debug_line    0x00020cec      0x316 c:/altera/11.1sp2/nios2eds/bin/gnu/h-i686-mingw32/bin/../lib/gcc/nios2-elf/4.1.2/../../../../nios2-elf/lib/mno-hw-mul\libc.a(lib_a-__atexit.o)
 .debug_line    0x00021002      0x36a c:/altera/11.1sp2/nios2eds/bin/gnu/h-i686-mingw32/bin/../lib/gcc/nios2-elf/4.1.2/../../../../nios2-elf/lib/mno-hw-mul\libc.a(lib_a-__call_atexit.o)
 .debug_line    0x0002136c      0x3c7 c:/altera/11.1sp2/nios2eds/bin/gnu/h-i686-mingw32/bin/../lib/gcc/nios2-elf/4.1.2/../../../../nios2-elf/lib/mno-hw-mul\libc.a(lib_a-refill.o)
 .debug_line    0x00021733       0xdf c:/altera/11.1sp2/nios2eds/bin/gnu/h-i686-mingw32/bin/../lib/gcc/nios2-elf/4.1.2/mno-hw-mul\libgcc.a(_floatundidf.o)
 .debug_line    0x00021812      0x34a D:/WorK/Synesthesia/wxp/synesthesia/sw_wxp/de1_limbus_bsp/\libchibios_v240_bsp.a(alt_exit.o)

.debug_frame    0x00000000     0x34fc
 *(.debug_frame)
 .debug_frame   0x00000000      0x128 obj/default/ledos/codec/codec.o
 .debug_frame   0x00000128       0x70 obj/default/ledos/cortex/acortex/acortex.o
 .debug_frame   0x00000198       0xac obj/default/ledos/cortex/acortex/dac/dac_drvr.o
 .debug_frame   0x00000244       0x70 obj/default/ledos/cortex/acortex/i2c/i2c_drvr.o
 .debug_frame   0x000002b4       0x70 obj/default/ledos/cortex/acortex/prsr/prsr.o
 .debug_frame   0x00000324       0x30 obj/default/ledos/cortex/acortex/sram/sram.o
 .debug_frame   0x00000354       0x30 obj/default/ledos/cortex/cortex.o
 .debug_frame   0x00000384       0x70 obj/default/ledos/cortex/fgyrus/fgyrus.o
 .debug_frame   0x000003f4       0x40 obj/default/ledos/cortex/vcortex/vcortex.o
 .debug_frame   0x00000434      0x1b4 obj/default/ledos/fatfs/diskio.o
 .debug_frame   0x000005e8      0x4b8 obj/default/ledos/fatfs/ff.o
 .debug_frame   0x00000aa0       0x20 obj/default/ledos/fft_cache/fft_cache.o
 .debug_frame   0x00000ac0       0xd8 obj/default/ledos/ledos.o
 .debug_frame   0x00000b98       0x30 obj/default/ledos/lsd/lsd.o
 .debug_frame   0x00000bc8      0x194 obj/default/ledos/shell/bash.o
 .debug_frame   0x00000d5c      0x120 obj/default/ledos/shell/shell.o
 .debug_frame   0x00000e7c       0x28 obj/default/main.o
 .debug_frame   0x00000ea4       0x70 c:/altera/11.1sp2/nios2eds/bin/gnu/h-i686-mingw32/bin/../lib/gcc/nios2-elf/4.1.2/mno-hw-mul\libgcc.a(lib2-divmod.o)
 .debug_frame   0x00000f14       0x20 c:/altera/11.1sp2/nios2eds/bin/gnu/h-i686-mingw32/bin/../lib/gcc/nios2-elf/4.1.2/mno-hw-mul\libgcc.a(lib2-mul.o)
 .debug_frame   0x00000f34       0x40 c:/altera/11.1sp2/nios2eds/bin/gnu/h-i686-mingw32/bin/../lib/gcc/nios2-elf/4.1.2/../../../../nios2-elf/lib/mno-hw-mul\libc.a(lib_a-printf.o)
 .debug_frame   0x00000f74       0x20 c:/altera/11.1sp2/nios2eds/bin/gnu/h-i686-mingw32/bin/../lib/gcc/nios2-elf/4.1.2/../../../../nios2-elf/lib/mno-hw-mul\libc.a(lib_a-strcasecmp.o)
 .debug_frame   0x00000f94       0x20 c:/altera/11.1sp2/nios2eds/bin/gnu/h-i686-mingw32/bin/../lib/gcc/nios2-elf/4.1.2/../../../../nios2-elf/lib/mno-hw-mul\libc.a(lib_a-strpbrk.o)
 .debug_frame   0x00000fb4       0x20 c:/altera/11.1sp2/nios2eds/bin/gnu/h-i686-mingw32/bin/../lib/gcc/nios2-elf/4.1.2/../../../../nios2-elf/lib/mno-hw-mul\libc.a(lib_a-strspn.o)
 .debug_frame   0x00000fd4       0x64 c:/altera/11.1sp2/nios2eds/bin/gnu/h-i686-mingw32/bin/../lib/gcc/nios2-elf/4.1.2/../../../../nios2-elf/lib/mno-hw-mul\libc.a(lib_a-vfprintf.o)
 .debug_frame   0x00001038       0x2c c:/altera/11.1sp2/nios2eds/bin/gnu/h-i686-mingw32/bin/../lib/gcc/nios2-elf/4.1.2/../../../../nios2-elf/lib/mno-hw-mul\libc.a(lib_a-wsetup.o)
 .debug_frame   0x00001064       0x64 c:/altera/11.1sp2/nios2eds/bin/gnu/h-i686-mingw32/bin/../lib/gcc/nios2-elf/4.1.2/../../../../nios2-elf/lib/mno-hw-mul\libc.a(lib_a-dtoa.o)
 .debug_frame   0x000010c8       0x40 c:/altera/11.1sp2/nios2eds/bin/gnu/h-i686-mingw32/bin/../lib/gcc/nios2-elf/4.1.2/../../../../nios2-elf/lib/mno-hw-mul\libc.a(lib_a-fflush.o)
 .debug_frame   0x00001108      0x118 c:/altera/11.1sp2/nios2eds/bin/gnu/h-i686-mingw32/bin/../lib/gcc/nios2-elf/4.1.2/../../../../nios2-elf/lib/mno-hw-mul\libc.a(lib_a-findfp.o)
 .debug_frame   0x00001220       0x4c c:/altera/11.1sp2/nios2eds/bin/gnu/h-i686-mingw32/bin/../lib/gcc/nios2-elf/4.1.2/../../../../nios2-elf/lib/mno-hw-mul\libc.a(lib_a-freer.o)
 .debug_frame   0x0000126c       0x38 c:/altera/11.1sp2/nios2eds/bin/gnu/h-i686-mingw32/bin/../lib/gcc/nios2-elf/4.1.2/../../../../nios2-elf/lib/mno-hw-mul\libc.a(lib_a-fvwrite.o)
 .debug_frame   0x000012a4       0x60 c:/altera/11.1sp2/nios2eds/bin/gnu/h-i686-mingw32/bin/../lib/gcc/nios2-elf/4.1.2/../../../../nios2-elf/lib/mno-hw-mul\libc.a(lib_a-fwalk.o)
 .debug_frame   0x00001304       0x70 c:/altera/11.1sp2/nios2eds/bin/gnu/h-i686-mingw32/bin/../lib/gcc/nios2-elf/4.1.2/../../../../nios2-elf/lib/mno-hw-mul\libc.a(lib_a-locale.o)
 .debug_frame   0x00001374       0x2c c:/altera/11.1sp2/nios2eds/bin/gnu/h-i686-mingw32/bin/../lib/gcc/nios2-elf/4.1.2/../../../../nios2-elf/lib/mno-hw-mul\libc.a(lib_a-makebuf.o)
 .debug_frame   0x000013a0       0x38 c:/altera/11.1sp2/nios2eds/bin/gnu/h-i686-mingw32/bin/../lib/gcc/nios2-elf/4.1.2/../../../../nios2-elf/lib/mno-hw-mul\libc.a(lib_a-mallocr.o)
 .debug_frame   0x000013d8       0x20 c:/altera/11.1sp2/nios2eds/bin/gnu/h-i686-mingw32/bin/../lib/gcc/nios2-elf/4.1.2/../../../../nios2-elf/lib/mno-hw-mul\libc.a(lib_a-memchr.o)
 .debug_frame   0x000013f8       0x20 c:/altera/11.1sp2/nios2eds/bin/gnu/h-i686-mingw32/bin/../lib/gcc/nios2-elf/4.1.2/../../../../nios2-elf/lib/mno-hw-mul\libc.a(lib_a-memcpy.o)
 .debug_frame   0x00001418       0x20 c:/altera/11.1sp2/nios2eds/bin/gnu/h-i686-mingw32/bin/../lib/gcc/nios2-elf/4.1.2/../../../../nios2-elf/lib/mno-hw-mul\libc.a(lib_a-memmove.o)
 .debug_frame   0x00001438       0x20 c:/altera/11.1sp2/nios2eds/bin/gnu/h-i686-mingw32/bin/../lib/gcc/nios2-elf/4.1.2/../../../../nios2-elf/lib/mno-hw-mul\libc.a(lib_a-memset.o)
 .debug_frame   0x00001458      0x228 c:/altera/11.1sp2/nios2eds/bin/gnu/h-i686-mingw32/bin/../lib/gcc/nios2-elf/4.1.2/../../../../nios2-elf/lib/mno-hw-mul\libc.a(lib_a-mprec.o)
 .debug_frame   0x00001680       0x38 c:/altera/11.1sp2/nios2eds/bin/gnu/h-i686-mingw32/bin/../lib/gcc/nios2-elf/4.1.2/../../../../nios2-elf/lib/mno-hw-mul\libc.a(lib_a-reallocr.o)
 .debug_frame   0x000016b8       0x20 c:/altera/11.1sp2/nios2eds/bin/gnu/h-i686-mingw32/bin/../lib/gcc/nios2-elf/4.1.2/../../../../nios2-elf/lib/mno-hw-mul\libc.a(lib_a-s_isinfd.o)
 .debug_frame   0x000016d8       0x20 c:/altera/11.1sp2/nios2eds/bin/gnu/h-i686-mingw32/bin/../lib/gcc/nios2-elf/4.1.2/../../../../nios2-elf/lib/mno-hw-mul\libc.a(lib_a-s_isnand.o)
 .debug_frame   0x000016f8       0x2c c:/altera/11.1sp2/nios2eds/bin/gnu/h-i686-mingw32/bin/../lib/gcc/nios2-elf/4.1.2/../../../../nios2-elf/lib/mno-hw-mul\libc.a(lib_a-sbrkr.o)
 .debug_frame   0x00001724       0x78 c:/altera/11.1sp2/nios2eds/bin/gnu/h-i686-mingw32/bin/../lib/gcc/nios2-elf/4.1.2/../../../../nios2-elf/lib/mno-hw-mul\libc.a(lib_a-stdio.o)
 .debug_frame   0x0000179c       0x20 c:/altera/11.1sp2/nios2eds/bin/gnu/h-i686-mingw32/bin/../lib/gcc/nios2-elf/4.1.2/../../../../nios2-elf/lib/mno-hw-mul\libc.a(lib_a-strcmp.o)
 .debug_frame   0x000017bc       0x20 c:/altera/11.1sp2/nios2eds/bin/gnu/h-i686-mingw32/bin/../lib/gcc/nios2-elf/4.1.2/../../../../nios2-elf/lib/mno-hw-mul\libc.a(lib_a-strlen.o)
 .debug_frame   0x000017dc       0x2c c:/altera/11.1sp2/nios2eds/bin/gnu/h-i686-mingw32/bin/../lib/gcc/nios2-elf/4.1.2/../../../../nios2-elf/lib/mno-hw-mul\libc.a(lib_a-writer.o)
 .debug_frame   0x00001808       0x2c c:/altera/11.1sp2/nios2eds/bin/gnu/h-i686-mingw32/bin/../lib/gcc/nios2-elf/4.1.2/../../../../nios2-elf/lib/mno-hw-mul\libc.a(lib_a-callocr.o)
 .debug_frame   0x00001834       0x2c c:/altera/11.1sp2/nios2eds/bin/gnu/h-i686-mingw32/bin/../lib/gcc/nios2-elf/4.1.2/../../../../nios2-elf/lib/mno-hw-mul\libc.a(lib_a-closer.o)
 .debug_frame   0x00001860       0x3c c:/altera/11.1sp2/nios2eds/bin/gnu/h-i686-mingw32/bin/../lib/gcc/nios2-elf/4.1.2/../../../../nios2-elf/lib/mno-hw-mul\libc.a(lib_a-fclose.o)
 .debug_frame   0x0000189c       0x2c c:/altera/11.1sp2/nios2eds/bin/gnu/h-i686-mingw32/bin/../lib/gcc/nios2-elf/4.1.2/../../../../nios2-elf/lib/mno-hw-mul\libc.a(lib_a-fstatr.o)
 .debug_frame   0x000018c8       0x2c c:/altera/11.1sp2/nios2eds/bin/gnu/h-i686-mingw32/bin/../lib/gcc/nios2-elf/4.1.2/../../../../nios2-elf/lib/mno-hw-mul\libc.a(lib_a-isattyr.o)
 .debug_frame   0x000018f4       0x2c c:/altera/11.1sp2/nios2eds/bin/gnu/h-i686-mingw32/bin/../lib/gcc/nios2-elf/4.1.2/../../../../nios2-elf/lib/mno-hw-mul\libc.a(lib_a-lseekr.o)
 .debug_frame   0x00001920       0x2c c:/altera/11.1sp2/nios2eds/bin/gnu/h-i686-mingw32/bin/../lib/gcc/nios2-elf/4.1.2/../../../../nios2-elf/lib/mno-hw-mul\libc.a(lib_a-readr.o)
 .debug_frame   0x0000194c       0x38 c:/altera/11.1sp2/nios2eds/bin/gnu/h-i686-mingw32/bin/../lib/gcc/nios2-elf/4.1.2/mno-hw-mul\libgcc.a(_udivdi3.o)
 .debug_frame   0x00001984       0x38 c:/altera/11.1sp2/nios2eds/bin/gnu/h-i686-mingw32/bin/../lib/gcc/nios2-elf/4.1.2/mno-hw-mul\libgcc.a(_umoddi3.o)
 .debug_frame   0x000019bc       0x70 c:/altera/11.1sp2/nios2eds/bin/gnu/h-i686-mingw32/bin/../lib/gcc/nios2-elf/4.1.2/mno-hw-mul\libgcc.a(_addsub_df.o)
 .debug_frame   0x00001a2c       0x3c c:/altera/11.1sp2/nios2eds/bin/gnu/h-i686-mingw32/bin/../lib/gcc/nios2-elf/4.1.2/mno-hw-mul\libgcc.a(_mul_df.o)
 .debug_frame   0x00001a68       0x30 c:/altera/11.1sp2/nios2eds/bin/gnu/h-i686-mingw32/bin/../lib/gcc/nios2-elf/4.1.2/mno-hw-mul\libgcc.a(_div_df.o)
 .debug_frame   0x00001a98       0x2c c:/altera/11.1sp2/nios2eds/bin/gnu/h-i686-mingw32/bin/../lib/gcc/nios2-elf/4.1.2/mno-hw-mul\libgcc.a(_eq_df.o)
 .debug_frame   0x00001ac4       0x2c c:/altera/11.1sp2/nios2eds/bin/gnu/h-i686-mingw32/bin/../lib/gcc/nios2-elf/4.1.2/mno-hw-mul\libgcc.a(_ne_df.o)
 .debug_frame   0x00001af0       0x2c c:/altera/11.1sp2/nios2eds/bin/gnu/h-i686-mingw32/bin/../lib/gcc/nios2-elf/4.1.2/mno-hw-mul\libgcc.a(_gt_df.o)
 .debug_frame   0x00001b1c       0x2c c:/altera/11.1sp2/nios2eds/bin/gnu/h-i686-mingw32/bin/../lib/gcc/nios2-elf/4.1.2/mno-hw-mul\libgcc.a(_ge_df.o)
 .debug_frame   0x00001b48       0x2c c:/altera/11.1sp2/nios2eds/bin/gnu/h-i686-mingw32/bin/../lib/gcc/nios2-elf/4.1.2/mno-hw-mul\libgcc.a(_lt_df.o)
 .debug_frame   0x00001b74       0x30 c:/altera/11.1sp2/nios2eds/bin/gnu/h-i686-mingw32/bin/../lib/gcc/nios2-elf/4.1.2/mno-hw-mul\libgcc.a(_si_to_df.o)
 .debug_frame   0x00001ba4       0x28 c:/altera/11.1sp2/nios2eds/bin/gnu/h-i686-mingw32/bin/../lib/gcc/nios2-elf/4.1.2/mno-hw-mul\libgcc.a(_df_to_si.o)
 .debug_frame   0x00001bcc       0x38 c:/altera/11.1sp2/nios2eds/bin/gnu/h-i686-mingw32/bin/../lib/gcc/nios2-elf/4.1.2/mno-hw-mul\libgcc.a(_usi_to_df.o)
 .debug_frame   0x00001c04       0x40 c:/altera/11.1sp2/nios2eds/bin/gnu/h-i686-mingw32/bin/../lib/gcc/nios2-elf/4.1.2/mno-hw-mul\libgcc.a(_muldi3.o)
 .debug_frame   0x00001c44       0x20 c:/altera/11.1sp2/nios2eds/bin/gnu/h-i686-mingw32/bin/../lib/gcc/nios2-elf/4.1.2/mno-hw-mul\libgcc.a(_clzsi2.o)
 .debug_frame   0x00001c64       0x2c c:/altera/11.1sp2/nios2eds/bin/gnu/h-i686-mingw32/bin/../lib/gcc/nios2-elf/4.1.2/mno-hw-mul\libgcc.a(_pack_df.o)
 .debug_frame   0x00001c90       0x20 c:/altera/11.1sp2/nios2eds/bin/gnu/h-i686-mingw32/bin/../lib/gcc/nios2-elf/4.1.2/mno-hw-mul\libgcc.a(_unpack_df.o)
 .debug_frame   0x00001cb0       0x20 c:/altera/11.1sp2/nios2eds/bin/gnu/h-i686-mingw32/bin/../lib/gcc/nios2-elf/4.1.2/mno-hw-mul\libgcc.a(_fpcmp_parts_df.o)
 .debug_frame   0x00001cd0       0x80 D:/WorK/Synesthesia/wxp/synesthesia/sw_wxp/de1_limbus_bsp/\libchibios_v240_bsp.a(chdynamic.o)
 .debug_frame   0x00001d50      0x1b4 D:/WorK/Synesthesia/wxp/synesthesia/sw_wxp/de1_limbus_bsp/\libchibios_v240_bsp.a(chevents.o)
 .debug_frame   0x00001f04       0x9c D:/WorK/Synesthesia/wxp/synesthesia/sw_wxp/de1_limbus_bsp/\libchibios_v240_bsp.a(chheap.o)
 .debug_frame   0x00001fa0       0x80 D:/WorK/Synesthesia/wxp/synesthesia/sw_wxp/de1_limbus_bsp/\libchibios_v240_bsp.a(chmemcore.o)
 .debug_frame   0x00002020       0x9c D:/WorK/Synesthesia/wxp/synesthesia/sw_wxp/de1_limbus_bsp/\libchibios_v240_bsp.a(chmempools.o)
 .debug_frame   0x000020bc       0x9c D:/WorK/Synesthesia/wxp/synesthesia/sw_wxp/de1_limbus_bsp/\libchibios_v240_bsp.a(chmsg.o)
 .debug_frame   0x00002158      0x144 D:/WorK/Synesthesia/wxp/synesthesia/sw_wxp/de1_limbus_bsp/\libchibios_v240_bsp.a(chmtx.o)
 .debug_frame   0x0000229c      0x144 D:/WorK/Synesthesia/wxp/synesthesia/sw_wxp/de1_limbus_bsp/\libchibios_v240_bsp.a(chschd.o)
 .debug_frame   0x000023e0      0x198 D:/WorK/Synesthesia/wxp/synesthesia/sw_wxp/de1_limbus_bsp/\libchibios_v240_bsp.a(chthreads.o)
 .debug_frame   0x00002578       0x80 D:/WorK/Synesthesia/wxp/synesthesia/sw_wxp/de1_limbus_bsp/\libchibios_v240_bsp.a(chvt.o)
 .debug_frame   0x000025f8       0x48 D:/WorK/Synesthesia/wxp/synesthesia/sw_wxp/de1_limbus_bsp/\libchibios_v240_bsp.a(alt_close.o)
 .debug_frame   0x00002640       0x2c D:/WorK/Synesthesia/wxp/synesthesia/sw_wxp/de1_limbus_bsp/\libchibios_v240_bsp.a(alt_dev.o)
 .debug_frame   0x0000266c       0x48 D:/WorK/Synesthesia/wxp/synesthesia/sw_wxp/de1_limbus_bsp/\libchibios_v240_bsp.a(alt_fstat.o)
 .debug_frame   0x000026b4       0x2c D:/WorK/Synesthesia/wxp/synesthesia/sw_wxp/de1_limbus_bsp/\libchibios_v240_bsp.a(alt_getchar.o)
 .debug_frame   0x000026e0       0x48 D:/WorK/Synesthesia/wxp/synesthesia/sw_wxp/de1_limbus_bsp/\libchibios_v240_bsp.a(alt_isatty.o)
 .debug_frame   0x00002728       0x48 D:/WorK/Synesthesia/wxp/synesthesia/sw_wxp/de1_limbus_bsp/\libchibios_v240_bsp.a(alt_load.o)
 .debug_frame   0x00002770       0x48 D:/WorK/Synesthesia/wxp/synesthesia/sw_wxp/de1_limbus_bsp/\libchibios_v240_bsp.a(alt_lseek.o)
 .debug_frame   0x000027b8       0x2c D:/WorK/Synesthesia/wxp/synesthesia/sw_wxp/de1_limbus_bsp/\libchibios_v240_bsp.a(alt_main.o)
 .debug_frame   0x000027e4       0x48 D:/WorK/Synesthesia/wxp/synesthesia/sw_wxp/de1_limbus_bsp/\libchibios_v240_bsp.a(alt_malloc_lock.o)
 .debug_frame   0x0000282c       0x2c D:/WorK/Synesthesia/wxp/synesthesia/sw_wxp/de1_limbus_bsp/\libchibios_v240_bsp.a(alt_printf.o)
 .debug_frame   0x00002858       0x2c D:/WorK/Synesthesia/wxp/synesthesia/sw_wxp/de1_limbus_bsp/\libchibios_v240_bsp.a(alt_putchar.o)
 .debug_frame   0x00002884       0x48 D:/WorK/Synesthesia/wxp/synesthesia/sw_wxp/de1_limbus_bsp/\libchibios_v240_bsp.a(alt_read.o)
 .debug_frame   0x000028cc       0x30 D:/WorK/Synesthesia/wxp/synesthesia/sw_wxp/de1_limbus_bsp/\libchibios_v240_bsp.a(alt_release_fd.o)
 .debug_frame   0x000028fc       0x2c D:/WorK/Synesthesia/wxp/synesthesia/sw_wxp/de1_limbus_bsp/\libchibios_v240_bsp.a(alt_sbrk.o)
 .debug_frame   0x00002928       0x48 D:/WorK/Synesthesia/wxp/synesthesia/sw_wxp/de1_limbus_bsp/\libchibios_v240_bsp.a(alt_write.o)
 .debug_frame   0x00002970       0x64 D:/WorK/Synesthesia/wxp/synesthesia/sw_wxp/de1_limbus_bsp/\libchibios_v240_bsp.a(alt_sys_init.o)
 .debug_frame   0x000029d4       0x80 D:/WorK/Synesthesia/wxp/synesthesia/sw_wxp/de1_limbus_bsp/\libchibios_v240_bsp.a(altera_avalon_jtag_uart_fd.o)
 .debug_frame   0x00002a54       0x80 D:/WorK/Synesthesia/wxp/synesthesia/sw_wxp/de1_limbus_bsp/\libchibios_v240_bsp.a(altera_avalon_jtag_uart_init.o)
 .debug_frame   0x00002ad4       0x2c D:/WorK/Synesthesia/wxp/synesthesia/sw_wxp/de1_limbus_bsp/\libchibios_v240_bsp.a(altera_avalon_jtag_uart_ioctl.o)
 .debug_frame   0x00002b00       0x2c D:/WorK/Synesthesia/wxp/synesthesia/sw_wxp/de1_limbus_bsp/\libchibios_v240_bsp.a(altera_avalon_jtag_uart_read.o)
 .debug_frame   0x00002b2c       0x2c D:/WorK/Synesthesia/wxp/synesthesia/sw_wxp/de1_limbus_bsp/\libchibios_v240_bsp.a(altera_avalon_jtag_uart_write.o)
 .debug_frame   0x00002b58       0x9c D:/WorK/Synesthesia/wxp/synesthesia/sw_wxp/de1_limbus_bsp/\libchibios_v240_bsp.a(altera_avalon_performance_counter.o)
 .debug_frame   0x00002bf4       0x48 D:/WorK/Synesthesia/wxp/synesthesia/sw_wxp/de1_limbus_bsp/\libchibios_v240_bsp.a(altera_avalon_timer_sc.o)
 .debug_frame   0x00002c3c       0x64 D:/WorK/Synesthesia/wxp/synesthesia/sw_wxp/de1_limbus_bsp/\libchibios_v240_bsp.a(altera_avalon_uart_fd.o)
 .debug_frame   0x00002ca0       0x9c D:/WorK/Synesthesia/wxp/synesthesia/sw_wxp/de1_limbus_bsp/\libchibios_v240_bsp.a(altera_avalon_uart_init.o)
 .debug_frame   0x00002d3c       0x48 D:/WorK/Synesthesia/wxp/synesthesia/sw_wxp/de1_limbus_bsp/\libchibios_v240_bsp.a(altera_avalon_uart_read.o)
 .debug_frame   0x00002d84       0x48 D:/WorK/Synesthesia/wxp/synesthesia/sw_wxp/de1_limbus_bsp/\libchibios_v240_bsp.a(altera_avalon_uart_write.o)
 .debug_frame   0x00002dcc       0x34 D:/WorK/Synesthesia/wxp/synesthesia/sw_wxp/de1_limbus_bsp/\libchibios_v240_bsp.a(perf_print_formatted_report.o)
 .debug_frame   0x00002e00       0x64 D:/WorK/Synesthesia/wxp/synesthesia/sw_wxp/de1_limbus_bsp/\libchibios_v240_bsp.a(chsys.o)
 .debug_frame   0x00002e64       0x2c D:/WorK/Synesthesia/wxp/synesthesia/sw_wxp/de1_limbus_bsp/\libchibios_v240_bsp.a(alt_alarm_start.o)
 .debug_frame   0x00002e90       0x2c D:/WorK/Synesthesia/wxp/synesthesia/sw_wxp/de1_limbus_bsp/\libchibios_v240_bsp.a(alt_dcache_flush_all.o)
 .debug_frame   0x00002ebc       0x48 D:/WorK/Synesthesia/wxp/synesthesia/sw_wxp/de1_limbus_bsp/\libchibios_v240_bsp.a(alt_dev_llist_insert.o)
 .debug_frame   0x00002f04       0x2c D:/WorK/Synesthesia/wxp/synesthesia/sw_wxp/de1_limbus_bsp/\libchibios_v240_bsp.a(alt_do_ctors.o)
 .debug_frame   0x00002f30       0x2c D:/WorK/Synesthesia/wxp/synesthesia/sw_wxp/de1_limbus_bsp/\libchibios_v240_bsp.a(alt_do_dtors.o)
 .debug_frame   0x00002f5c       0x2c D:/WorK/Synesthesia/wxp/synesthesia/sw_wxp/de1_limbus_bsp/\libchibios_v240_bsp.a(alt_icache_flush_all.o)
 .debug_frame   0x00002f88       0x80 D:/WorK/Synesthesia/wxp/synesthesia/sw_wxp/de1_limbus_bsp/\libchibios_v240_bsp.a(alt_iic.o)
 .debug_frame   0x00003008       0x2c D:/WorK/Synesthesia/wxp/synesthesia/sw_wxp/de1_limbus_bsp/\libchibios_v240_bsp.a(alt_iic_isr_register.o)
 .debug_frame   0x00003034       0x4c D:/WorK/Synesthesia/wxp/synesthesia/sw_wxp/de1_limbus_bsp/\libchibios_v240_bsp.a(alt_io_redirect.o)
 .debug_frame   0x00003080       0x2c D:/WorK/Synesthesia/wxp/synesthesia/sw_wxp/de1_limbus_bsp/\libchibios_v240_bsp.a(alt_irq_handler.o)
 .debug_frame   0x000030ac       0x68 D:/WorK/Synesthesia/wxp/synesthesia/sw_wxp/de1_limbus_bsp/\libchibios_v240_bsp.a(alt_open.o)
 .debug_frame   0x00003114       0x48 D:/WorK/Synesthesia/wxp/synesthesia/sw_wxp/de1_limbus_bsp/\libchibios_v240_bsp.a(alt_tick.o)
 .debug_frame   0x0000315c       0x2c D:/WorK/Synesthesia/wxp/synesthesia/sw_wxp/de1_limbus_bsp/\libchibios_v240_bsp.a(altera_nios2_qsys_irq.o)
 .debug_frame   0x00003188       0x48 D:/WorK/Synesthesia/wxp/synesthesia/sw_wxp/de1_limbus_bsp/\libchibios_v240_bsp.a(chcore.o)
 .debug_frame   0x000031d0       0x2c D:/WorK/Synesthesia/wxp/synesthesia/sw_wxp/de1_limbus_bsp/\libchibios_v240_bsp.a(alt_find_dev.o)
 .debug_frame   0x000031fc       0x2c D:/WorK/Synesthesia/wxp/synesthesia/sw_wxp/de1_limbus_bsp/\libchibios_v240_bsp.a(alt_find_file.o)
 .debug_frame   0x00003228       0x30 D:/WorK/Synesthesia/wxp/synesthesia/sw_wxp/de1_limbus_bsp/\libchibios_v240_bsp.a(alt_get_fd.o)
 .debug_frame   0x00003258       0x20 c:/altera/11.1sp2/nios2eds/bin/gnu/h-i686-mingw32/bin/../lib/gcc/nios2-elf/4.1.2/../../../../nios2-elf/lib/mno-hw-mul\libc.a(lib_a-atexit.o)
 .debug_frame   0x00003278       0x28 c:/altera/11.1sp2/nios2eds/bin/gnu/h-i686-mingw32/bin/../lib/gcc/nios2-elf/4.1.2/../../../../nios2-elf/lib/mno-hw-mul\libc.a(lib_a-exit.o)
 .debug_frame   0x000032a0       0x48 c:/altera/11.1sp2/nios2eds/bin/gnu/h-i686-mingw32/bin/../lib/gcc/nios2-elf/4.1.2/../../../../nios2-elf/lib/mno-hw-mul\libc.a(lib_a-getc.o)
 .debug_frame   0x000032e8       0x20 c:/altera/11.1sp2/nios2eds/bin/gnu/h-i686-mingw32/bin/../lib/gcc/nios2-elf/4.1.2/../../../../nios2-elf/lib/mno-hw-mul\libc.a(lib_a-memcmp.o)
 .debug_frame   0x00003308       0x4c c:/altera/11.1sp2/nios2eds/bin/gnu/h-i686-mingw32/bin/../lib/gcc/nios2-elf/4.1.2/../../../../nios2-elf/lib/mno-hw-mul\libc.a(lib_a-putc.o)
 .debug_frame   0x00003354       0x38 c:/altera/11.1sp2/nios2eds/bin/gnu/h-i686-mingw32/bin/../lib/gcc/nios2-elf/4.1.2/../../../../nios2-elf/lib/mno-hw-mul\libc.a(lib_a-rget.o)
 .debug_frame   0x0000338c       0x3c c:/altera/11.1sp2/nios2eds/bin/gnu/h-i686-mingw32/bin/../lib/gcc/nios2-elf/4.1.2/../../../../nios2-elf/lib/mno-hw-mul\libc.a(lib_a-wbuf.o)
 .debug_frame   0x000033c8       0x34 c:/altera/11.1sp2/nios2eds/bin/gnu/h-i686-mingw32/bin/../lib/gcc/nios2-elf/4.1.2/../../../../nios2-elf/lib/mno-hw-mul\libc.a(lib_a-__atexit.o)
 .debug_frame   0x000033fc       0x4c c:/altera/11.1sp2/nios2eds/bin/gnu/h-i686-mingw32/bin/../lib/gcc/nios2-elf/4.1.2/../../../../nios2-elf/lib/mno-hw-mul\libc.a(lib_a-__call_atexit.o)
 .debug_frame   0x00003448       0x3c c:/altera/11.1sp2/nios2eds/bin/gnu/h-i686-mingw32/bin/../lib/gcc/nios2-elf/4.1.2/../../../../nios2-elf/lib/mno-hw-mul\libc.a(lib_a-refill.o)
 .debug_frame   0x00003484       0x30 c:/altera/11.1sp2/nios2eds/bin/gnu/h-i686-mingw32/bin/../lib/gcc/nios2-elf/4.1.2/mno-hw-mul\libgcc.a(_floatundidf.o)
 .debug_frame   0x000034b4       0x48 D:/WorK/Synesthesia/wxp/synesthesia/sw_wxp/de1_limbus_bsp/\libchibios_v240_bsp.a(alt_exit.o)

.debug_str      0x00000000     0x3abb
 *(.debug_str)
 .debug_str     0x00000000      0x310 obj/default/ledos/codec/codec.o
                                0x349 (size before relaxing)
 .debug_str     0x00000310      0x14b obj/default/ledos/cortex/acortex/acortex.o
                                0x26f (size before relaxing)
 .debug_str     0x0000045b       0xb0 obj/default/ledos/cortex/acortex/dac/dac_drvr.o
                                0x26d (size before relaxing)
 .debug_str     0x0000050b       0x71 obj/default/ledos/cortex/acortex/i2c/i2c_drvr.o
                                0x194 (size before relaxing)
 .debug_str     0x0000057c       0x77 obj/default/ledos/cortex/acortex/prsr/prsr.o
                                0x167 (size before relaxing)
 .debug_str     0x000005f3       0x3a obj/default/ledos/cortex/acortex/sram/sram.o
                                0x111 (size before relaxing)
 .debug_str     0x0000062d       0x16 obj/default/ledos/cortex/cortex.o
                                0x1f0 (size before relaxing)
 .debug_str     0x00000643      0x119 obj/default/ledos/cortex/fgyrus/fgyrus.o
                                0x1e8 (size before relaxing)
 .debug_str     0x0000075c       0x48 obj/default/ledos/cortex/vcortex/vcortex.o
                                0x121 (size before relaxing)
 .debug_str     0x000007a4      0x13b obj/default/ledos/fatfs/diskio.o
                                0x228 (size before relaxing)
 .debug_str     0x000008df      0x449 obj/default/ledos/fatfs/ff.o
                                0x556 (size before relaxing)
 .debug_str     0x00000d28       0x3f obj/default/ledos/fft_cache/fft_cache.o
                                0x106 (size before relaxing)
 .debug_str     0x00000d67      0x30c obj/default/ledos/ledos.o
                                0x5ec (size before relaxing)
 .debug_str     0x00001073       0x5d obj/default/ledos/lsd/lsd.o
                                0x205 (size before relaxing)
 .debug_str     0x000010d0      0x1c7 obj/default/ledos/shell/bash.o
                                0x740 (size before relaxing)
 .debug_str     0x00001297      0x10c obj/default/ledos/shell/shell.o
                                0x450 (size before relaxing)
 .debug_str     0x000013a3       0x20 obj/default/main.o
                                0x282 (size before relaxing)
 .debug_str     0x000013c3      0x10b c:/altera/11.1sp2/nios2eds/bin/gnu/h-i686-mingw32/bin/../lib/gcc/nios2-elf/4.1.2/mno-hw-mul\libgcc.a(lib2-divmod.o)
                                0x1b4 (size before relaxing)
 .debug_str     0x000014ce       0x37 c:/altera/11.1sp2/nios2eds/bin/gnu/h-i686-mingw32/bin/../lib/gcc/nios2-elf/4.1.2/mno-hw-mul\libgcc.a(lib2-mul.o)
                                0x175 (size before relaxing)
 .debug_str     0x00001505      0x42d c:/altera/11.1sp2/nios2eds/bin/gnu/h-i686-mingw32/bin/../lib/gcc/nios2-elf/4.1.2/../../../../nios2-elf/lib/mno-hw-mul\libc.a(lib_a-printf.o)
                                0x531 (size before relaxing)
 .debug_str     0x00001932       0xf0 c:/altera/11.1sp2/nios2eds/bin/gnu/h-i686-mingw32/bin/../lib/gcc/nios2-elf/4.1.2/../../../../nios2-elf/lib/mno-hw-mul\libc.a(lib_a-strcasecmp.o)
                                0x185 (size before relaxing)
 .debug_str     0x00001a22       0x47 c:/altera/11.1sp2/nios2eds/bin/gnu/h-i686-mingw32/bin/../lib/gcc/nios2-elf/4.1.2/../../../../nios2-elf/lib/mno-hw-mul\libc.a(lib_a-strpbrk.o)
                                0x173 (size before relaxing)
 .debug_str     0x00001a69       0x45 c:/altera/11.1sp2/nios2eds/bin/gnu/h-i686-mingw32/bin/../lib/gcc/nios2-elf/4.1.2/../../../../nios2-elf/lib/mno-hw-mul\libc.a(lib_a-strspn.o)
                                0x178 (size before relaxing)
 .debug_str     0x00001aae      0x1be c:/altera/11.1sp2/nios2eds/bin/gnu/h-i686-mingw32/bin/../lib/gcc/nios2-elf/4.1.2/../../../../nios2-elf/lib/mno-hw-mul\libc.a(lib_a-vfprintf.o)
                                0x706 (size before relaxing)
 .debug_str     0x00001c6c       0x49 c:/altera/11.1sp2/nios2eds/bin/gnu/h-i686-mingw32/bin/../lib/gcc/nios2-elf/4.1.2/../../../../nios2-elf/lib/mno-hw-mul\libc.a(lib_a-wsetup.o)
                                0x51a (size before relaxing)
 .debug_str     0x00001cb5       0xe4 c:/altera/11.1sp2/nios2eds/bin/gnu/h-i686-mingw32/bin/../lib/gcc/nios2-elf/4.1.2/../../../../nios2-elf/lib/mno-hw-mul\libc.a(lib_a-ctype_.o)
                                0x113 (size before relaxing)
 .debug_str     0x00001d99      0x19c c:/altera/11.1sp2/nios2eds/bin/gnu/h-i686-mingw32/bin/../lib/gcc/nios2-elf/4.1.2/../../../../nios2-elf/lib/mno-hw-mul\libc.a(lib_a-dtoa.o)
                                0x60f (size before relaxing)
 .debug_str     0x00001f35       0x68 c:/altera/11.1sp2/nios2eds/bin/gnu/h-i686-mingw32/bin/../lib/gcc/nios2-elf/4.1.2/../../../../nios2-elf/lib/mno-hw-mul\libc.a(lib_a-fflush.o)
                                0x540 (size before relaxing)
 .debug_str     0x00001f9d      0x105 c:/altera/11.1sp2/nios2eds/bin/gnu/h-i686-mingw32/bin/../lib/gcc/nios2-elf/4.1.2/../../../../nios2-elf/lib/mno-hw-mul\libc.a(lib_a-findfp.o)
                                0x602 (size before relaxing)
 .debug_str     0x000020a2      0x15e c:/altera/11.1sp2/nios2eds/bin/gnu/h-i686-mingw32/bin/../lib/gcc/nios2-elf/4.1.2/../../../../nios2-elf/lib/mno-hw-mul\libc.a(lib_a-freer.o)
                                0x651 (size before relaxing)
 .debug_str     0x00002200       0x69 c:/altera/11.1sp2/nios2eds/bin/gnu/h-i686-mingw32/bin/../lib/gcc/nios2-elf/4.1.2/../../../../nios2-elf/lib/mno-hw-mul\libc.a(lib_a-fvwrite.o)
                                0x571 (size before relaxing)
 .debug_str     0x00002269       0x61 c:/altera/11.1sp2/nios2eds/bin/gnu/h-i686-mingw32/bin/../lib/gcc/nios2-elf/4.1.2/../../../../nios2-elf/lib/mno-hw-mul\libc.a(lib_a-fwalk.o)
                                0x543 (size before relaxing)
 .debug_str     0x000022ca       0xdf c:/altera/11.1sp2/nios2eds/bin/gnu/h-i686-mingw32/bin/../lib/gcc/nios2-elf/4.1.2/../../../../nios2-elf/lib/mno-hw-mul\libc.a(lib_a-impure.o)
                                0x528 (size before relaxing)
 .debug_str     0x000023a9      0x233 c:/altera/11.1sp2/nios2eds/bin/gnu/h-i686-mingw32/bin/../lib/gcc/nios2-elf/4.1.2/../../../../nios2-elf/lib/mno-hw-mul\libc.a(lib_a-locale.o)
                                0x6b7 (size before relaxing)
 .debug_str     0x000025dc      0x118 c:/altera/11.1sp2/nios2eds/bin/gnu/h-i686-mingw32/bin/../lib/gcc/nios2-elf/4.1.2/../../../../nios2-elf/lib/mno-hw-mul\libc.a(lib_a-makebuf.o)
                                0x614 (size before relaxing)
 .debug_str     0x000026f4       0xe9 c:/altera/11.1sp2/nios2eds/bin/gnu/h-i686-mingw32/bin/../lib/gcc/nios2-elf/4.1.2/../../../../nios2-elf/lib/mno-hw-mul\libc.a(lib_a-mallocr.o)
                                0x6ff (size before relaxing)
 .debug_str     0x000027dd       0x5a c:/altera/11.1sp2/nios2eds/bin/gnu/h-i686-mingw32/bin/../lib/gcc/nios2-elf/4.1.2/../../../../nios2-elf/lib/mno-hw-mul\libc.a(lib_a-memchr.o)
                                0x199 (size before relaxing)
 .debug_str     0x00002837       0x6c c:/altera/11.1sp2/nios2eds/bin/gnu/h-i686-mingw32/bin/../lib/gcc/nios2-elf/4.1.2/../../../../nios2-elf/lib/mno-hw-mul\libc.a(lib_a-memcpy.o)
                                0x136 (size before relaxing)
 .debug_str     0x000028a3       0x50 c:/altera/11.1sp2/nios2eds/bin/gnu/h-i686-mingw32/bin/../lib/gcc/nios2-elf/4.1.2/../../../../nios2-elf/lib/mno-hw-mul\libc.a(lib_a-memmove.o)
                                0x1ab (size before relaxing)
 .debug_str     0x000028f3       0x52 c:/altera/11.1sp2/nios2eds/bin/gnu/h-i686-mingw32/bin/../lib/gcc/nios2-elf/4.1.2/../../../../nios2-elf/lib/mno-hw-mul\libc.a(lib_a-memset.o)
                                0x18c (size before relaxing)
 .debug_str     0x00002945       0xfb c:/altera/11.1sp2/nios2eds/bin/gnu/h-i686-mingw32/bin/../lib/gcc/nios2-elf/4.1.2/../../../../nios2-elf/lib/mno-hw-mul\libc.a(lib_a-mprec.o)
                                0x61c (size before relaxing)
 .debug_str     0x00002a40       0x54 c:/altera/11.1sp2/nios2eds/bin/gnu/h-i686-mingw32/bin/../lib/gcc/nios2-elf/4.1.2/../../../../nios2-elf/lib/mno-hw-mul\libc.a(lib_a-reallocr.o)
                                0x5d1 (size before relaxing)
 .debug_str     0x00002a94       0xea c:/altera/11.1sp2/nios2eds/bin/gnu/h-i686-mingw32/bin/../lib/gcc/nios2-elf/4.1.2/../../../../nios2-elf/lib/mno-hw-mul\libc.a(lib_a-s_isinfd.o)
                                0x198 (size before relaxing)
 .debug_str     0x00002b7e       0x49 c:/altera/11.1sp2/nios2eds/bin/gnu/h-i686-mingw32/bin/../lib/gcc/nios2-elf/4.1.2/../../../../nios2-elf/lib/mno-hw-mul\libc.a(lib_a-s_isnand.o)
                                0x198 (size before relaxing)
 .debug_str     0x00002bc7       0x53 c:/altera/11.1sp2/nios2eds/bin/gnu/h-i686-mingw32/bin/../lib/gcc/nios2-elf/4.1.2/../../../../nios2-elf/lib/mno-hw-mul\libc.a(lib_a-sbrkr.o)
                                0x519 (size before relaxing)
 .debug_str     0x00002c1a       0x65 c:/altera/11.1sp2/nios2eds/bin/gnu/h-i686-mingw32/bin/../lib/gcc/nios2-elf/4.1.2/../../../../nios2-elf/lib/mno-hw-mul\libc.a(lib_a-stdio.o)
                                0x53f (size before relaxing)
 .debug_str     0x00002c7f       0x45 c:/altera/11.1sp2/nios2eds/bin/gnu/h-i686-mingw32/bin/../lib/gcc/nios2-elf/4.1.2/../../../../nios2-elf/lib/mno-hw-mul\libc.a(lib_a-strcmp.o)
                                0x171 (size before relaxing)
 .debug_str     0x00002cc4       0x45 c:/altera/11.1sp2/nios2eds/bin/gnu/h-i686-mingw32/bin/../lib/gcc/nios2-elf/4.1.2/../../../../nios2-elf/lib/mno-hw-mul\libc.a(lib_a-strlen.o)
                                0x18b (size before relaxing)
 .debug_str     0x00002d09       0x4f c:/altera/11.1sp2/nios2eds/bin/gnu/h-i686-mingw32/bin/../lib/gcc/nios2-elf/4.1.2/../../../../nios2-elf/lib/mno-hw-mul\libc.a(lib_a-writer.o)
                                0x51c (size before relaxing)
 .debug_str     0x00002d58       0x19 c:/altera/11.1sp2/nios2eds/bin/gnu/h-i686-mingw32/bin/../lib/gcc/nios2-elf/4.1.2/../../../../nios2-elf/lib/mno-hw-mul\libc.a(lib_a-callocr.o)
                                0x550 (size before relaxing)
 .debug_str     0x00002d71       0x46 c:/altera/11.1sp2/nios2eds/bin/gnu/h-i686-mingw32/bin/../lib/gcc/nios2-elf/4.1.2/../../../../nios2-elf/lib/mno-hw-mul\libc.a(lib_a-closer.o)
                                0x50c (size before relaxing)
 .debug_str     0x00002db7       0x4e c:/altera/11.1sp2/nios2eds/bin/gnu/h-i686-mingw32/bin/../lib/gcc/nios2-elf/4.1.2/../../../../nios2-elf/lib/mno-hw-mul\libc.a(lib_a-fclose.o)
                                0x524 (size before relaxing)
 .debug_str     0x00002e05       0x4c c:/altera/11.1sp2/nios2eds/bin/gnu/h-i686-mingw32/bin/../lib/gcc/nios2-elf/4.1.2/../../../../nios2-elf/lib/mno-hw-mul\libc.a(lib_a-fstatr.o)
                                0x5ff (size before relaxing)
 .debug_str     0x00002e51       0x40 c:/altera/11.1sp2/nios2eds/bin/gnu/h-i686-mingw32/bin/../lib/gcc/nios2-elf/4.1.2/../../../../nios2-elf/lib/mno-hw-mul\libc.a(lib_a-int_errno.o)
                                0x171 (size before relaxing)
 .debug_str     0x00002e91       0x48 c:/altera/11.1sp2/nios2eds/bin/gnu/h-i686-mingw32/bin/../lib/gcc/nios2-elf/4.1.2/../../../../nios2-elf/lib/mno-hw-mul\libc.a(lib_a-isattyr.o)
                                0x50e (size before relaxing)
 .debug_str     0x00002ed9       0x46 c:/altera/11.1sp2/nios2eds/bin/gnu/h-i686-mingw32/bin/../lib/gcc/nios2-elf/4.1.2/../../../../nios2-elf/lib/mno-hw-mul\libc.a(lib_a-lseekr.o)
                                0x51a (size before relaxing)
 .debug_str     0x00002f1f       0x44 c:/altera/11.1sp2/nios2eds/bin/gnu/h-i686-mingw32/bin/../lib/gcc/nios2-elf/4.1.2/../../../../nios2-elf/lib/mno-hw-mul\libc.a(lib_a-readr.o)
                                0x51a (size before relaxing)
 .debug_str     0x00002f63       0xb2 c:/altera/11.1sp2/nios2eds/bin/gnu/h-i686-mingw32/bin/../lib/gcc/nios2-elf/4.1.2/mno-hw-mul\libgcc.a(_udivdi3.o)
                                0x1f7 (size before relaxing)
 .debug_str     0x00003015        0xa c:/altera/11.1sp2/nios2eds/bin/gnu/h-i686-mingw32/bin/../lib/gcc/nios2-elf/4.1.2/mno-hw-mul\libgcc.a(_umoddi3.o)
                                0x1f7 (size before relaxing)
 .debug_str     0x0000301f      0x137 c:/altera/11.1sp2/nios2eds/bin/gnu/h-i686-mingw32/bin/../lib/gcc/nios2-elf/4.1.2/mno-hw-mul\libgcc.a(_addsub_df.o)
                                0x26f (size before relaxing)
 .debug_str     0x00003156       0x40 c:/altera/11.1sp2/nios2eds/bin/gnu/h-i686-mingw32/bin/../lib/gcc/nios2-elf/4.1.2/mno-hw-mul\libgcc.a(_mul_df.o)
                                0x241 (size before relaxing)
 .debug_str     0x00003196       0x35 c:/altera/11.1sp2/nios2eds/bin/gnu/h-i686-mingw32/bin/../lib/gcc/nios2-elf/4.1.2/mno-hw-mul\libgcc.a(_div_df.o)
                                0x231 (size before relaxing)
 .debug_str     0x000031cb        0x8 c:/altera/11.1sp2/nios2eds/bin/gnu/h-i686-mingw32/bin/../lib/gcc/nios2-elf/4.1.2/mno-hw-mul\libgcc.a(_eq_df.o)
                                0x1fe (size before relaxing)
 .debug_str     0x000031d3        0x8 c:/altera/11.1sp2/nios2eds/bin/gnu/h-i686-mingw32/bin/../lib/gcc/nios2-elf/4.1.2/mno-hw-mul\libgcc.a(_ne_df.o)
                                0x1fe (size before relaxing)
 .debug_str     0x000031db        0x8 c:/altera/11.1sp2/nios2eds/bin/gnu/h-i686-mingw32/bin/../lib/gcc/nios2-elf/4.1.2/mno-hw-mul\libgcc.a(_gt_df.o)
                                0x1fe (size before relaxing)
 .debug_str     0x000031e3        0x8 c:/altera/11.1sp2/nios2eds/bin/gnu/h-i686-mingw32/bin/../lib/gcc/nios2-elf/4.1.2/mno-hw-mul\libgcc.a(_ge_df.o)
                                0x1fe (size before relaxing)
 .debug_str     0x000031eb        0x8 c:/altera/11.1sp2/nios2eds/bin/gnu/h-i686-mingw32/bin/../lib/gcc/nios2-elf/4.1.2/mno-hw-mul\libgcc.a(_lt_df.o)
                                0x1fe (size before relaxing)
 .debug_str     0x000031f3       0x18 c:/altera/11.1sp2/nios2eds/bin/gnu/h-i686-mingw32/bin/../lib/gcc/nios2-elf/4.1.2/mno-hw-mul\libgcc.a(_si_to_df.o)
                                0x1de (size before relaxing)
 .debug_str     0x0000320b        0xa c:/altera/11.1sp2/nios2eds/bin/gnu/h-i686-mingw32/bin/../lib/gcc/nios2-elf/4.1.2/mno-hw-mul\libgcc.a(_df_to_si.o)
                                0x207 (size before relaxing)
 .debug_str     0x00000000      0x1a3 c:/altera/11.1sp2/nios2eds/bin/gnu/h-i686-mingw32/bin/../lib/gcc/nios2-elf/4.1.2/mno-hw-mul\libgcc.a(_thenan_df.o)
 .debug_str     0x00003215       0x14 c:/altera/11.1sp2/nios2eds/bin/gnu/h-i686-mingw32/bin/../lib/gcc/nios2-elf/4.1.2/mno-hw-mul\libgcc.a(_usi_to_df.o)
                                0x1da (size before relaxing)
 .debug_str     0x00003229        0x9 c:/altera/11.1sp2/nios2eds/bin/gnu/h-i686-mingw32/bin/../lib/gcc/nios2-elf/4.1.2/mno-hw-mul\libgcc.a(_muldi3.o)
                                0x1ac (size before relaxing)
 .debug_str     0x00000000      0x161 c:/altera/11.1sp2/nios2eds/bin/gnu/h-i686-mingw32/bin/../lib/gcc/nios2-elf/4.1.2/mno-hw-mul\libgcc.a(_clz.o)
 .debug_str     0x00003232        0x9 c:/altera/11.1sp2/nios2eds/bin/gnu/h-i686-mingw32/bin/../lib/gcc/nios2-elf/4.1.2/mno-hw-mul\libgcc.a(_clzsi2.o)
                                0x17e (size before relaxing)
 .debug_str     0x0000323b       0x10 c:/altera/11.1sp2/nios2eds/bin/gnu/h-i686-mingw32/bin/../lib/gcc/nios2-elf/4.1.2/mno-hw-mul\libgcc.a(_pack_df.o)
                                0x206 (size before relaxing)
 .debug_str     0x0000324b        0xb c:/altera/11.1sp2/nios2eds/bin/gnu/h-i686-mingw32/bin/../lib/gcc/nios2-elf/4.1.2/mno-hw-mul\libgcc.a(_unpack_df.o)
                                0x1e8 (size before relaxing)
 .debug_str     0x00003256       0x10 c:/altera/11.1sp2/nios2eds/bin/gnu/h-i686-mingw32/bin/../lib/gcc/nios2-elf/4.1.2/mno-hw-mul\libgcc.a(_fpcmp_parts_df.o)
                                0x1c6 (size before relaxing)
 .debug_str     0x00003266       0x21 D:/WorK/Synesthesia/wxp/synesthesia/sw_wxp/de1_limbus_bsp/\libchibios_v240_bsp.a(chdynamic.o)
 .debug_str     0x00003287       0x40 D:/WorK/Synesthesia/wxp/synesthesia/sw_wxp/de1_limbus_bsp/\libchibios_v240_bsp.a(chevents.o)
 .debug_str     0x000032c7       0x1f D:/WorK/Synesthesia/wxp/synesthesia/sw_wxp/de1_limbus_bsp/\libchibios_v240_bsp.a(chheap.o)
 .debug_str     0x000032e6       0x1a D:/WorK/Synesthesia/wxp/synesthesia/sw_wxp/de1_limbus_bsp/\libchibios_v240_bsp.a(chmemcore.o)
 .debug_str     0x00003300       0x1a D:/WorK/Synesthesia/wxp/synesthesia/sw_wxp/de1_limbus_bsp/\libchibios_v240_bsp.a(chmempools.o)
 .debug_str     0x0000331a       0x21 D:/WorK/Synesthesia/wxp/synesthesia/sw_wxp/de1_limbus_bsp/\libchibios_v240_bsp.a(chmsg.o)
 .debug_str     0x0000333b       0x21 D:/WorK/Synesthesia/wxp/synesthesia/sw_wxp/de1_limbus_bsp/\libchibios_v240_bsp.a(chmtx.o)
 .debug_str     0x0000335c       0x2f D:/WorK/Synesthesia/wxp/synesthesia/sw_wxp/de1_limbus_bsp/\libchibios_v240_bsp.a(chschd.o)
 .debug_str     0x0000338b       0x2e D:/WorK/Synesthesia/wxp/synesthesia/sw_wxp/de1_limbus_bsp/\libchibios_v240_bsp.a(chthreads.o)
 .debug_str     0x000033b9       0x1f D:/WorK/Synesthesia/wxp/synesthesia/sw_wxp/de1_limbus_bsp/\libchibios_v240_bsp.a(chvt.o)
 .debug_str     0x000033d8       0x12 D:/WorK/Synesthesia/wxp/synesthesia/sw_wxp/de1_limbus_bsp/\libchibios_v240_bsp.a(alt_close.o)
 .debug_str     0x000033ea       0x12 D:/WorK/Synesthesia/wxp/synesthesia/sw_wxp/de1_limbus_bsp/\libchibios_v240_bsp.a(alt_dev.o)
 .debug_str     0x000033fc       0x12 D:/WorK/Synesthesia/wxp/synesthesia/sw_wxp/de1_limbus_bsp/\libchibios_v240_bsp.a(alt_errno.o)
 .debug_str     0x0000340e       0x12 D:/WorK/Synesthesia/wxp/synesthesia/sw_wxp/de1_limbus_bsp/\libchibios_v240_bsp.a(alt_fstat.o)
 .debug_str     0x00003420       0x20 D:/WorK/Synesthesia/wxp/synesthesia/sw_wxp/de1_limbus_bsp/\libchibios_v240_bsp.a(alt_getchar.o)
 .debug_str     0x00003440       0x12 D:/WorK/Synesthesia/wxp/synesthesia/sw_wxp/de1_limbus_bsp/\libchibios_v240_bsp.a(alt_isatty.o)
 .debug_str     0x00003452       0x12 D:/WorK/Synesthesia/wxp/synesthesia/sw_wxp/de1_limbus_bsp/\libchibios_v240_bsp.a(alt_load.o)
 .debug_str     0x00003464       0x12 D:/WorK/Synesthesia/wxp/synesthesia/sw_wxp/de1_limbus_bsp/\libchibios_v240_bsp.a(alt_lseek.o)
 .debug_str     0x00003476       0x12 D:/WorK/Synesthesia/wxp/synesthesia/sw_wxp/de1_limbus_bsp/\libchibios_v240_bsp.a(alt_main.o)
 .debug_str     0x00003488       0x20 D:/WorK/Synesthesia/wxp/synesthesia/sw_wxp/de1_limbus_bsp/\libchibios_v240_bsp.a(alt_malloc_lock.o)
 .debug_str     0x000034a8       0x20 D:/WorK/Synesthesia/wxp/synesthesia/sw_wxp/de1_limbus_bsp/\libchibios_v240_bsp.a(alt_putchar.o)
 .debug_str     0x000034c8       0x12 D:/WorK/Synesthesia/wxp/synesthesia/sw_wxp/de1_limbus_bsp/\libchibios_v240_bsp.a(alt_read.o)
 .debug_str     0x000034da       0x1a D:/WorK/Synesthesia/wxp/synesthesia/sw_wxp/de1_limbus_bsp/\libchibios_v240_bsp.a(alt_sbrk.o)
 .debug_str     0x000034f4       0x12 D:/WorK/Synesthesia/wxp/synesthesia/sw_wxp/de1_limbus_bsp/\libchibios_v240_bsp.a(alt_write.o)
 .debug_str     0x00003506       0x12 D:/WorK/Synesthesia/wxp/synesthesia/sw_wxp/de1_limbus_bsp/\libchibios_v240_bsp.a(alt_sys_init.o)
 .debug_str     0x00003518       0x12 D:/WorK/Synesthesia/wxp/synesthesia/sw_wxp/de1_limbus_bsp/\libchibios_v240_bsp.a(altera_avalon_jtag_uart_fd.o)
 .debug_str     0x0000352a       0x1a D:/WorK/Synesthesia/wxp/synesthesia/sw_wxp/de1_limbus_bsp/\libchibios_v240_bsp.a(altera_avalon_jtag_uart_init.o)
 .debug_str     0x00003544       0x12 D:/WorK/Synesthesia/wxp/synesthesia/sw_wxp/de1_limbus_bsp/\libchibios_v240_bsp.a(altera_avalon_jtag_uart_ioctl.o)
 .debug_str     0x00003556       0x1a D:/WorK/Synesthesia/wxp/synesthesia/sw_wxp/de1_limbus_bsp/\libchibios_v240_bsp.a(altera_avalon_jtag_uart_read.o)
 .debug_str     0x00003570       0x1a D:/WorK/Synesthesia/wxp/synesthesia/sw_wxp/de1_limbus_bsp/\libchibios_v240_bsp.a(altera_avalon_jtag_uart_write.o)
 .debug_str     0x0000358a       0x1e D:/WorK/Synesthesia/wxp/synesthesia/sw_wxp/de1_limbus_bsp/\libchibios_v240_bsp.a(altera_avalon_performance_counter.o)
 .debug_str     0x000035a8       0x12 D:/WorK/Synesthesia/wxp/synesthesia/sw_wxp/de1_limbus_bsp/\libchibios_v240_bsp.a(altera_avalon_timer_sc.o)
 .debug_str     0x000035ba       0x12 D:/WorK/Synesthesia/wxp/synesthesia/sw_wxp/de1_limbus_bsp/\libchibios_v240_bsp.a(altera_avalon_uart_fd.o)
 .debug_str     0x000035cc       0x19 D:/WorK/Synesthesia/wxp/synesthesia/sw_wxp/de1_limbus_bsp/\libchibios_v240_bsp.a(altera_avalon_uart_init.o)
 .debug_str     0x000035e5       0x1a D:/WorK/Synesthesia/wxp/synesthesia/sw_wxp/de1_limbus_bsp/\libchibios_v240_bsp.a(altera_avalon_uart_read.o)
 .debug_str     0x000035ff       0x1a D:/WorK/Synesthesia/wxp/synesthesia/sw_wxp/de1_limbus_bsp/\libchibios_v240_bsp.a(altera_avalon_uart_write.o)
 .debug_str     0x00003619       0x12 D:/WorK/Synesthesia/wxp/synesthesia/sw_wxp/de1_limbus_bsp/\libchibios_v240_bsp.a(perf_print_formatted_report.o)
 .debug_str     0x0000362b       0x26 D:/WorK/Synesthesia/wxp/synesthesia/sw_wxp/de1_limbus_bsp/\libchibios_v240_bsp.a(chsys.o)
 .debug_str     0x00003651       0x23 D:/WorK/Synesthesia/wxp/synesthesia/sw_wxp/de1_limbus_bsp/\libchibios_v240_bsp.a(alt_alarm_start.o)
 .debug_str     0x00003674       0x12 D:/WorK/Synesthesia/wxp/synesthesia/sw_wxp/de1_limbus_bsp/\libchibios_v240_bsp.a(alt_dcache_flush_all.o)
 .debug_str     0x00003686       0x12 D:/WorK/Synesthesia/wxp/synesthesia/sw_wxp/de1_limbus_bsp/\libchibios_v240_bsp.a(alt_dev_llist_insert.o)
 .debug_str     0x00003698       0x12 D:/WorK/Synesthesia/wxp/synesthesia/sw_wxp/de1_limbus_bsp/\libchibios_v240_bsp.a(alt_icache_flush_all.o)
 .debug_str     0x000036aa       0x18 D:/WorK/Synesthesia/wxp/synesthesia/sw_wxp/de1_limbus_bsp/\libchibios_v240_bsp.a(alt_iic.o)
 .debug_str     0x000036c2       0x1a D:/WorK/Synesthesia/wxp/synesthesia/sw_wxp/de1_limbus_bsp/\libchibios_v240_bsp.a(alt_iic_isr_register.o)
 .debug_str     0x000036dc       0x12 D:/WorK/Synesthesia/wxp/synesthesia/sw_wxp/de1_limbus_bsp/\libchibios_v240_bsp.a(alt_io_redirect.o)
 .debug_str     0x000036ee       0x12 D:/WorK/Synesthesia/wxp/synesthesia/sw_wxp/de1_limbus_bsp/\libchibios_v240_bsp.a(alt_irq_handler.o)
 .debug_str     0x00003700       0x12 D:/WorK/Synesthesia/wxp/synesthesia/sw_wxp/de1_limbus_bsp/\libchibios_v240_bsp.a(alt_open.o)
 .debug_str     0x00003712       0x1a D:/WorK/Synesthesia/wxp/synesthesia/sw_wxp/de1_limbus_bsp/\libchibios_v240_bsp.a(alt_tick.o)
 .debug_str     0x0000372c       0x12 D:/WorK/Synesthesia/wxp/synesthesia/sw_wxp/de1_limbus_bsp/\libchibios_v240_bsp.a(altera_nios2_qsys_irq.o)
 .debug_str     0x0000373e       0x12 D:/WorK/Synesthesia/wxp/synesthesia/sw_wxp/de1_limbus_bsp/\libchibios_v240_bsp.a(chcore.o)
 .debug_str     0x00003750       0x12 D:/WorK/Synesthesia/wxp/synesthesia/sw_wxp/de1_limbus_bsp/\libchibios_v240_bsp.a(alt_find_dev.o)
 .debug_str     0x00003762       0x12 D:/WorK/Synesthesia/wxp/synesthesia/sw_wxp/de1_limbus_bsp/\libchibios_v240_bsp.a(alt_find_file.o)
 .debug_str     0x00003774       0x12 D:/WorK/Synesthesia/wxp/synesthesia/sw_wxp/de1_limbus_bsp/\libchibios_v240_bsp.a(alt_get_fd.o)
 .debug_str     0x00003786       0x3e c:/altera/11.1sp2/nios2eds/bin/gnu/h-i686-mingw32/bin/../lib/gcc/nios2-elf/4.1.2/../../../../nios2-elf/lib/mno-hw-mul\libc.a(lib_a-atexit.o)
                                0x1cd (size before relaxing)
 .debug_str     0x000037c4       0x3c c:/altera/11.1sp2/nios2eds/bin/gnu/h-i686-mingw32/bin/../lib/gcc/nios2-elf/4.1.2/../../../../nios2-elf/lib/mno-hw-mul\libc.a(lib_a-exit.o)
                                0x51a (size before relaxing)
 .debug_str     0x00003800       0x48 c:/altera/11.1sp2/nios2eds/bin/gnu/h-i686-mingw32/bin/../lib/gcc/nios2-elf/4.1.2/../../../../nios2-elf/lib/mno-hw-mul\libc.a(lib_a-getc.o)
                                0x520 (size before relaxing)
 .debug_str     0x00003848       0x45 c:/altera/11.1sp2/nios2eds/bin/gnu/h-i686-mingw32/bin/../lib/gcc/nios2-elf/4.1.2/../../../../nios2-elf/lib/mno-hw-mul\libc.a(lib_a-memcmp.o)
                                0x178 (size before relaxing)
 .debug_str     0x0000388d       0x48 c:/altera/11.1sp2/nios2eds/bin/gnu/h-i686-mingw32/bin/../lib/gcc/nios2-elf/4.1.2/../../../../nios2-elf/lib/mno-hw-mul\libc.a(lib_a-putc.o)
                                0x520 (size before relaxing)
 .debug_str     0x000038d5       0x4d c:/altera/11.1sp2/nios2eds/bin/gnu/h-i686-mingw32/bin/../lib/gcc/nios2-elf/4.1.2/../../../../nios2-elf/lib/mno-hw-mul\libc.a(lib_a-rget.o)
                                0x51e (size before relaxing)
 .debug_str     0x00003922       0x4d c:/altera/11.1sp2/nios2eds/bin/gnu/h-i686-mingw32/bin/../lib/gcc/nios2-elf/4.1.2/../../../../nios2-elf/lib/mno-hw-mul\libc.a(lib_a-wbuf.o)
                                0x51e (size before relaxing)
 .debug_str     0x0000396f       0x54 c:/altera/11.1sp2/nios2eds/bin/gnu/h-i686-mingw32/bin/../lib/gcc/nios2-elf/4.1.2/../../../../nios2-elf/lib/mno-hw-mul\libc.a(lib_a-__atexit.o)
                                0x532 (size before relaxing)
 .debug_str     0x000039c3       0x7e c:/altera/11.1sp2/nios2eds/bin/gnu/h-i686-mingw32/bin/../lib/gcc/nios2-elf/4.1.2/../../../../nios2-elf/lib/mno-hw-mul\libc.a(lib_a-__call_atexit.o)
                                0x55c (size before relaxing)
 .debug_str     0x00003a41       0x50 c:/altera/11.1sp2/nios2eds/bin/gnu/h-i686-mingw32/bin/../lib/gcc/nios2-elf/4.1.2/../../../../nios2-elf/lib/mno-hw-mul\libc.a(lib_a-refill.o)
                                0x528 (size before relaxing)
 .debug_str     0x00003a91        0xe c:/altera/11.1sp2/nios2eds/bin/gnu/h-i686-mingw32/bin/../lib/gcc/nios2-elf/4.1.2/mno-hw-mul\libgcc.a(_floatundidf.o)
                                0x16c (size before relaxing)
 .debug_str     0x00003a9f       0x1c D:/WorK/Synesthesia/wxp/synesthesia/sw_wxp/de1_limbus_bsp/\libchibios_v240_bsp.a(alt_exit.o)

.debug_loc      0x00000000    0x11fee
 *(.debug_loc)
 .debug_loc     0x00000000      0x1d6 obj/default/ledos/codec/codec.o
 .debug_loc     0x000001d6      0x154 obj/default/ledos/cortex/acortex/acortex.o
 .debug_loc     0x0000032a      0x111 obj/default/ledos/cortex/acortex/dac/dac_drvr.o
 .debug_loc     0x0000043b       0xdb obj/default/ledos/cortex/acortex/i2c/i2c_drvr.o
 .debug_loc     0x00000516       0xa7 obj/default/ledos/cortex/acortex/prsr/prsr.o
 .debug_loc     0x000005bd       0x4c obj/default/ledos/cortex/acortex/sram/sram.o
 .debug_loc     0x00000609       0x63 obj/default/ledos/cortex/cortex.o
 .debug_loc     0x0000066c       0x85 obj/default/ledos/cortex/fgyrus/fgyrus.o
 .debug_loc     0x000006f1       0x4c obj/default/ledos/cortex/vcortex/vcortex.o
 .debug_loc     0x0000073d      0x703 obj/default/ledos/fatfs/diskio.o
 .debug_loc     0x00000e40     0x2f50 obj/default/ledos/fatfs/ff.o
 .debug_loc     0x00003d90       0x52 obj/default/ledos/fft_cache/fft_cache.o
 .debug_loc     0x00003de2      0x199 obj/default/ledos/ledos.o
 .debug_loc     0x00003f7b       0x39 obj/default/ledos/lsd/lsd.o
 .debug_loc     0x00003fb4      0x649 obj/default/ledos/shell/bash.o
 .debug_loc     0x000045fd      0x4af obj/default/ledos/shell/shell.o
 .debug_loc     0x00004aac       0x1f obj/default/main.o
 .debug_loc     0x00004acb      0x1d2 c:/altera/11.1sp2/nios2eds/bin/gnu/h-i686-mingw32/bin/../lib/gcc/nios2-elf/4.1.2/mno-hw-mul\libgcc.a(lib2-divmod.o)
 .debug_loc     0x00004c9d       0x4f c:/altera/11.1sp2/nios2eds/bin/gnu/h-i686-mingw32/bin/../lib/gcc/nios2-elf/4.1.2/mno-hw-mul\libgcc.a(lib2-mul.o)
 .debug_loc     0x00004cec       0xcb c:/altera/11.1sp2/nios2eds/bin/gnu/h-i686-mingw32/bin/../lib/gcc/nios2-elf/4.1.2/../../../../nios2-elf/lib/mno-hw-mul\libc.a(lib_a-printf.o)
 .debug_loc     0x00004db7       0x88 c:/altera/11.1sp2/nios2eds/bin/gnu/h-i686-mingw32/bin/../lib/gcc/nios2-elf/4.1.2/../../../../nios2-elf/lib/mno-hw-mul\libc.a(lib_a-strcasecmp.o)
 .debug_loc     0x00004e3f       0x1e c:/altera/11.1sp2/nios2eds/bin/gnu/h-i686-mingw32/bin/../lib/gcc/nios2-elf/4.1.2/../../../../nios2-elf/lib/mno-hw-mul\libc.a(lib_a-strpbrk.o)
 .debug_loc     0x00004e5d       0x3c c:/altera/11.1sp2/nios2eds/bin/gnu/h-i686-mingw32/bin/../lib/gcc/nios2-elf/4.1.2/../../../../nios2-elf/lib/mno-hw-mul\libc.a(lib_a-strspn.o)
 .debug_loc     0x00004e99     0x1dc0 c:/altera/11.1sp2/nios2eds/bin/gnu/h-i686-mingw32/bin/../lib/gcc/nios2-elf/4.1.2/../../../../nios2-elf/lib/mno-hw-mul\libc.a(lib_a-vfprintf.o)
 .debug_loc     0x00006c59       0x7c c:/altera/11.1sp2/nios2eds/bin/gnu/h-i686-mingw32/bin/../lib/gcc/nios2-elf/4.1.2/../../../../nios2-elf/lib/mno-hw-mul\libc.a(lib_a-wsetup.o)
 .debug_loc     0x00006cd5     0x1da7 c:/altera/11.1sp2/nios2eds/bin/gnu/h-i686-mingw32/bin/../lib/gcc/nios2-elf/4.1.2/../../../../nios2-elf/lib/mno-hw-mul\libc.a(lib_a-dtoa.o)
 .debug_loc     0x00008a7c      0x1f6 c:/altera/11.1sp2/nios2eds/bin/gnu/h-i686-mingw32/bin/../lib/gcc/nios2-elf/4.1.2/../../../../nios2-elf/lib/mno-hw-mul\libc.a(lib_a-fflush.o)
 .debug_loc     0x00008c72      0x1e1 c:/altera/11.1sp2/nios2eds/bin/gnu/h-i686-mingw32/bin/../lib/gcc/nios2-elf/4.1.2/../../../../nios2-elf/lib/mno-hw-mul\libc.a(lib_a-findfp.o)
 .debug_loc     0x00008e53      0x4a7 c:/altera/11.1sp2/nios2eds/bin/gnu/h-i686-mingw32/bin/../lib/gcc/nios2-elf/4.1.2/../../../../nios2-elf/lib/mno-hw-mul\libc.a(lib_a-freer.o)
 .debug_loc     0x000092fa      0x4e4 c:/altera/11.1sp2/nios2eds/bin/gnu/h-i686-mingw32/bin/../lib/gcc/nios2-elf/4.1.2/../../../../nios2-elf/lib/mno-hw-mul\libc.a(lib_a-fvwrite.o)
 .debug_loc     0x000097de      0x1d2 c:/altera/11.1sp2/nios2eds/bin/gnu/h-i686-mingw32/bin/../lib/gcc/nios2-elf/4.1.2/../../../../nios2-elf/lib/mno-hw-mul\libc.a(lib_a-fwalk.o)
 .debug_loc     0x000099b0       0xe1 c:/altera/11.1sp2/nios2eds/bin/gnu/h-i686-mingw32/bin/../lib/gcc/nios2-elf/4.1.2/../../../../nios2-elf/lib/mno-hw-mul\libc.a(lib_a-locale.o)
 .debug_loc     0x00009a91      0x11c c:/altera/11.1sp2/nios2eds/bin/gnu/h-i686-mingw32/bin/../lib/gcc/nios2-elf/4.1.2/../../../../nios2-elf/lib/mno-hw-mul\libc.a(lib_a-makebuf.o)
 .debug_loc     0x00009bad      0xaeb c:/altera/11.1sp2/nios2eds/bin/gnu/h-i686-mingw32/bin/../lib/gcc/nios2-elf/4.1.2/../../../../nios2-elf/lib/mno-hw-mul\libc.a(lib_a-mallocr.o)
 .debug_loc     0x0000a698      0x106 c:/altera/11.1sp2/nios2eds/bin/gnu/h-i686-mingw32/bin/../lib/gcc/nios2-elf/4.1.2/../../../../nios2-elf/lib/mno-hw-mul\libc.a(lib_a-memchr.o)
 .debug_loc     0x0000a79e       0xca c:/altera/11.1sp2/nios2eds/bin/gnu/h-i686-mingw32/bin/../lib/gcc/nios2-elf/4.1.2/../../../../nios2-elf/lib/mno-hw-mul\libc.a(lib_a-memcpy.o)
 .debug_loc     0x0000a868      0x117 c:/altera/11.1sp2/nios2eds/bin/gnu/h-i686-mingw32/bin/../lib/gcc/nios2-elf/4.1.2/../../../../nios2-elf/lib/mno-hw-mul\libc.a(lib_a-memmove.o)
 .debug_loc     0x0000a97f       0xa1 c:/altera/11.1sp2/nios2eds/bin/gnu/h-i686-mingw32/bin/../lib/gcc/nios2-elf/4.1.2/../../../../nios2-elf/lib/mno-hw-mul\libc.a(lib_a-memset.o)
 .debug_loc     0x0000aa20     0x1547 c:/altera/11.1sp2/nios2eds/bin/gnu/h-i686-mingw32/bin/../lib/gcc/nios2-elf/4.1.2/../../../../nios2-elf/lib/mno-hw-mul\libc.a(lib_a-mprec.o)
 .debug_loc     0x0000bf67      0x8c0 c:/altera/11.1sp2/nios2eds/bin/gnu/h-i686-mingw32/bin/../lib/gcc/nios2-elf/4.1.2/../../../../nios2-elf/lib/mno-hw-mul\libc.a(lib_a-reallocr.o)
 .debug_loc     0x0000c827       0x36 c:/altera/11.1sp2/nios2eds/bin/gnu/h-i686-mingw32/bin/../lib/gcc/nios2-elf/4.1.2/../../../../nios2-elf/lib/mno-hw-mul\libc.a(lib_a-s_isinfd.o)
 .debug_loc     0x0000c85d       0x18 c:/altera/11.1sp2/nios2eds/bin/gnu/h-i686-mingw32/bin/../lib/gcc/nios2-elf/4.1.2/../../../../nios2-elf/lib/mno-hw-mul\libc.a(lib_a-s_isnand.o)
 .debug_loc     0x0000c875       0x5b c:/altera/11.1sp2/nios2eds/bin/gnu/h-i686-mingw32/bin/../lib/gcc/nios2-elf/4.1.2/../../../../nios2-elf/lib/mno-hw-mul\libc.a(lib_a-sbrkr.o)
 .debug_loc     0x0000c8d0      0x21f c:/altera/11.1sp2/nios2eds/bin/gnu/h-i686-mingw32/bin/../lib/gcc/nios2-elf/4.1.2/../../../../nios2-elf/lib/mno-hw-mul\libc.a(lib_a-stdio.o)
 .debug_loc     0x0000caef       0x65 c:/altera/11.1sp2/nios2eds/bin/gnu/h-i686-mingw32/bin/../lib/gcc/nios2-elf/4.1.2/../../../../nios2-elf/lib/mno-hw-mul\libc.a(lib_a-strcmp.o)
 .debug_loc     0x0000cb54       0x3c c:/altera/11.1sp2/nios2eds/bin/gnu/h-i686-mingw32/bin/../lib/gcc/nios2-elf/4.1.2/../../../../nios2-elf/lib/mno-hw-mul\libc.a(lib_a-strlen.o)
 .debug_loc     0x0000cb90       0x97 c:/altera/11.1sp2/nios2eds/bin/gnu/h-i686-mingw32/bin/../lib/gcc/nios2-elf/4.1.2/../../../../nios2-elf/lib/mno-hw-mul\libc.a(lib_a-writer.o)
 .debug_loc     0x0000cc27       0xff c:/altera/11.1sp2/nios2eds/bin/gnu/h-i686-mingw32/bin/../lib/gcc/nios2-elf/4.1.2/../../../../nios2-elf/lib/mno-hw-mul\libc.a(lib_a-callocr.o)
 .debug_loc     0x0000cd26       0x5b c:/altera/11.1sp2/nios2eds/bin/gnu/h-i686-mingw32/bin/../lib/gcc/nios2-elf/4.1.2/../../../../nios2-elf/lib/mno-hw-mul\libc.a(lib_a-closer.o)
 .debug_loc     0x0000cd81       0xe4 c:/altera/11.1sp2/nios2eds/bin/gnu/h-i686-mingw32/bin/../lib/gcc/nios2-elf/4.1.2/../../../../nios2-elf/lib/mno-hw-mul\libc.a(lib_a-fclose.o)
 .debug_loc     0x0000ce65       0x79 c:/altera/11.1sp2/nios2eds/bin/gnu/h-i686-mingw32/bin/../lib/gcc/nios2-elf/4.1.2/../../../../nios2-elf/lib/mno-hw-mul\libc.a(lib_a-fstatr.o)
 .debug_loc     0x0000cede       0x5b c:/altera/11.1sp2/nios2eds/bin/gnu/h-i686-mingw32/bin/../lib/gcc/nios2-elf/4.1.2/../../../../nios2-elf/lib/mno-hw-mul\libc.a(lib_a-isattyr.o)
 .debug_loc     0x0000cf39       0x97 c:/altera/11.1sp2/nios2eds/bin/gnu/h-i686-mingw32/bin/../lib/gcc/nios2-elf/4.1.2/../../../../nios2-elf/lib/mno-hw-mul\libc.a(lib_a-lseekr.o)
 .debug_loc     0x0000cfd0       0x97 c:/altera/11.1sp2/nios2eds/bin/gnu/h-i686-mingw32/bin/../lib/gcc/nios2-elf/4.1.2/../../../../nios2-elf/lib/mno-hw-mul\libc.a(lib_a-readr.o)
 .debug_loc     0x0000d067      0xc12 c:/altera/11.1sp2/nios2eds/bin/gnu/h-i686-mingw32/bin/../lib/gcc/nios2-elf/4.1.2/mno-hw-mul\libgcc.a(_udivdi3.o)
 .debug_loc     0x0000dc79      0xbe2 c:/altera/11.1sp2/nios2eds/bin/gnu/h-i686-mingw32/bin/../lib/gcc/nios2-elf/4.1.2/mno-hw-mul\libgcc.a(_umoddi3.o)
 .debug_loc     0x0000e85b      0x47a c:/altera/11.1sp2/nios2eds/bin/gnu/h-i686-mingw32/bin/../lib/gcc/nios2-elf/4.1.2/mno-hw-mul\libgcc.a(_addsub_df.o)
 .debug_loc     0x0000ecd5      0x3b4 c:/altera/11.1sp2/nios2eds/bin/gnu/h-i686-mingw32/bin/../lib/gcc/nios2-elf/4.1.2/mno-hw-mul\libgcc.a(_mul_df.o)
 .debug_loc     0x0000f089      0x1df c:/altera/11.1sp2/nios2eds/bin/gnu/h-i686-mingw32/bin/../lib/gcc/nios2-elf/4.1.2/mno-hw-mul\libgcc.a(_div_df.o)
 .debug_loc     0x0000f268       0x70 c:/altera/11.1sp2/nios2eds/bin/gnu/h-i686-mingw32/bin/../lib/gcc/nios2-elf/4.1.2/mno-hw-mul\libgcc.a(_eq_df.o)
 .debug_loc     0x0000f2d8       0x70 c:/altera/11.1sp2/nios2eds/bin/gnu/h-i686-mingw32/bin/../lib/gcc/nios2-elf/4.1.2/mno-hw-mul\libgcc.a(_ne_df.o)
 .debug_loc     0x0000f348       0x70 c:/altera/11.1sp2/nios2eds/bin/gnu/h-i686-mingw32/bin/../lib/gcc/nios2-elf/4.1.2/mno-hw-mul\libgcc.a(_gt_df.o)
 .debug_loc     0x0000f3b8       0x70 c:/altera/11.1sp2/nios2eds/bin/gnu/h-i686-mingw32/bin/../lib/gcc/nios2-elf/4.1.2/mno-hw-mul\libgcc.a(_ge_df.o)
 .debug_loc     0x0000f428       0x70 c:/altera/11.1sp2/nios2eds/bin/gnu/h-i686-mingw32/bin/../lib/gcc/nios2-elf/4.1.2/mno-hw-mul\libgcc.a(_lt_df.o)
 .debug_loc     0x0000f498       0x9a c:/altera/11.1sp2/nios2eds/bin/gnu/h-i686-mingw32/bin/../lib/gcc/nios2-elf/4.1.2/mno-hw-mul\libgcc.a(_si_to_df.o)
 .debug_loc     0x0000f532       0x8b c:/altera/11.1sp2/nios2eds/bin/gnu/h-i686-mingw32/bin/../lib/gcc/nios2-elf/4.1.2/mno-hw-mul\libgcc.a(_df_to_si.o)
 .debug_loc     0x0000f5bd       0x5b c:/altera/11.1sp2/nios2eds/bin/gnu/h-i686-mingw32/bin/../lib/gcc/nios2-elf/4.1.2/mno-hw-mul\libgcc.a(_usi_to_df.o)
 .debug_loc     0x0000f618      0x103 c:/altera/11.1sp2/nios2eds/bin/gnu/h-i686-mingw32/bin/../lib/gcc/nios2-elf/4.1.2/mno-hw-mul\libgcc.a(_muldi3.o)
 .debug_loc     0x0000f71b       0x1e c:/altera/11.1sp2/nios2eds/bin/gnu/h-i686-mingw32/bin/../lib/gcc/nios2-elf/4.1.2/mno-hw-mul\libgcc.a(_clzsi2.o)
 .debug_loc     0x0000f739      0x184 c:/altera/11.1sp2/nios2eds/bin/gnu/h-i686-mingw32/bin/../lib/gcc/nios2-elf/4.1.2/mno-hw-mul\libgcc.a(_pack_df.o)
 .debug_loc     0x0000f8bd       0xe5 c:/altera/11.1sp2/nios2eds/bin/gnu/h-i686-mingw32/bin/../lib/gcc/nios2-elf/4.1.2/mno-hw-mul\libgcc.a(_unpack_df.o)
 .debug_loc     0x0000f9a2       0xac D:/WorK/Synesthesia/wxp/synesthesia/sw_wxp/de1_limbus_bsp/\libchibios_v240_bsp.a(chdynamic.o)
 .debug_loc     0x0000fa4e      0x285 D:/WorK/Synesthesia/wxp/synesthesia/sw_wxp/de1_limbus_bsp/\libchibios_v240_bsp.a(chevents.o)
 .debug_loc     0x0000fcd3       0xd7 D:/WorK/Synesthesia/wxp/synesthesia/sw_wxp/de1_limbus_bsp/\libchibios_v240_bsp.a(chheap.o)
 .debug_loc     0x0000fdaa       0xac D:/WorK/Synesthesia/wxp/synesthesia/sw_wxp/de1_limbus_bsp/\libchibios_v240_bsp.a(chmemcore.o)
 .debug_loc     0x0000fe56       0xd7 D:/WorK/Synesthesia/wxp/synesthesia/sw_wxp/de1_limbus_bsp/\libchibios_v240_bsp.a(chmempools.o)
 .debug_loc     0x0000ff2d       0xd7 D:/WorK/Synesthesia/wxp/synesthesia/sw_wxp/de1_limbus_bsp/\libchibios_v240_bsp.a(chmsg.o)
 .debug_loc     0x00010004      0x1d9 D:/WorK/Synesthesia/wxp/synesthesia/sw_wxp/de1_limbus_bsp/\libchibios_v240_bsp.a(chmtx.o)
 .debug_loc     0x000101dd      0x1d9 D:/WorK/Synesthesia/wxp/synesthesia/sw_wxp/de1_limbus_bsp/\libchibios_v240_bsp.a(chschd.o)
 .debug_loc     0x000103b6      0x25a D:/WorK/Synesthesia/wxp/synesthesia/sw_wxp/de1_limbus_bsp/\libchibios_v240_bsp.a(chthreads.o)
 .debug_loc     0x00010610       0xac D:/WorK/Synesthesia/wxp/synesthesia/sw_wxp/de1_limbus_bsp/\libchibios_v240_bsp.a(chvt.o)
 .debug_loc     0x000106bc       0x56 D:/WorK/Synesthesia/wxp/synesthesia/sw_wxp/de1_limbus_bsp/\libchibios_v240_bsp.a(alt_close.o)
 .debug_loc     0x00010712       0x2b D:/WorK/Synesthesia/wxp/synesthesia/sw_wxp/de1_limbus_bsp/\libchibios_v240_bsp.a(alt_dev.o)
 .debug_loc     0x0001073d       0x56 D:/WorK/Synesthesia/wxp/synesthesia/sw_wxp/de1_limbus_bsp/\libchibios_v240_bsp.a(alt_fstat.o)
 .debug_loc     0x00010793       0x2b D:/WorK/Synesthesia/wxp/synesthesia/sw_wxp/de1_limbus_bsp/\libchibios_v240_bsp.a(alt_getchar.o)
 .debug_loc     0x000107be       0x57 D:/WorK/Synesthesia/wxp/synesthesia/sw_wxp/de1_limbus_bsp/\libchibios_v240_bsp.a(alt_isatty.o)
 .debug_loc     0x00010815       0x56 D:/WorK/Synesthesia/wxp/synesthesia/sw_wxp/de1_limbus_bsp/\libchibios_v240_bsp.a(alt_load.o)
 .debug_loc     0x0001086b       0x56 D:/WorK/Synesthesia/wxp/synesthesia/sw_wxp/de1_limbus_bsp/\libchibios_v240_bsp.a(alt_lseek.o)
 .debug_loc     0x000108c1       0x2b D:/WorK/Synesthesia/wxp/synesthesia/sw_wxp/de1_limbus_bsp/\libchibios_v240_bsp.a(alt_main.o)
 .debug_loc     0x000108ec       0x56 D:/WorK/Synesthesia/wxp/synesthesia/sw_wxp/de1_limbus_bsp/\libchibios_v240_bsp.a(alt_malloc_lock.o)
 .debug_loc     0x00010942       0x2b D:/WorK/Synesthesia/wxp/synesthesia/sw_wxp/de1_limbus_bsp/\libchibios_v240_bsp.a(alt_printf.o)
 .debug_loc     0x0001096d       0x2b D:/WorK/Synesthesia/wxp/synesthesia/sw_wxp/de1_limbus_bsp/\libchibios_v240_bsp.a(alt_putchar.o)
 .debug_loc     0x00010998       0x56 D:/WorK/Synesthesia/wxp/synesthesia/sw_wxp/de1_limbus_bsp/\libchibios_v240_bsp.a(alt_read.o)
 .debug_loc     0x000109ee       0x2b D:/WorK/Synesthesia/wxp/synesthesia/sw_wxp/de1_limbus_bsp/\libchibios_v240_bsp.a(alt_release_fd.o)
 .debug_loc     0x00010a19       0x2b D:/WorK/Synesthesia/wxp/synesthesia/sw_wxp/de1_limbus_bsp/\libchibios_v240_bsp.a(alt_sbrk.o)
 .debug_loc     0x00010a44       0x56 D:/WorK/Synesthesia/wxp/synesthesia/sw_wxp/de1_limbus_bsp/\libchibios_v240_bsp.a(alt_write.o)
 .debug_loc     0x00010a9a       0x81 D:/WorK/Synesthesia/wxp/synesthesia/sw_wxp/de1_limbus_bsp/\libchibios_v240_bsp.a(alt_sys_init.o)
 .debug_loc     0x00010b1b       0xac D:/WorK/Synesthesia/wxp/synesthesia/sw_wxp/de1_limbus_bsp/\libchibios_v240_bsp.a(altera_avalon_jtag_uart_fd.o)
 .debug_loc     0x00010bc7       0xac D:/WorK/Synesthesia/wxp/synesthesia/sw_wxp/de1_limbus_bsp/\libchibios_v240_bsp.a(altera_avalon_jtag_uart_init.o)
 .debug_loc     0x00010c73       0x2b D:/WorK/Synesthesia/wxp/synesthesia/sw_wxp/de1_limbus_bsp/\libchibios_v240_bsp.a(altera_avalon_jtag_uart_ioctl.o)
 .debug_loc     0x00010c9e       0x2b D:/WorK/Synesthesia/wxp/synesthesia/sw_wxp/de1_limbus_bsp/\libchibios_v240_bsp.a(altera_avalon_jtag_uart_read.o)
 .debug_loc     0x00010cc9       0x2b D:/WorK/Synesthesia/wxp/synesthesia/sw_wxp/de1_limbus_bsp/\libchibios_v240_bsp.a(altera_avalon_jtag_uart_write.o)
 .debug_loc     0x00010cf4       0xd7 D:/WorK/Synesthesia/wxp/synesthesia/sw_wxp/de1_limbus_bsp/\libchibios_v240_bsp.a(altera_avalon_performance_counter.o)
 .debug_loc     0x00010dcb       0x56 D:/WorK/Synesthesia/wxp/synesthesia/sw_wxp/de1_limbus_bsp/\libchibios_v240_bsp.a(altera_avalon_timer_sc.o)
 .debug_loc     0x00010e21       0x81 D:/WorK/Synesthesia/wxp/synesthesia/sw_wxp/de1_limbus_bsp/\libchibios_v240_bsp.a(altera_avalon_uart_fd.o)
 .debug_loc     0x00010ea2       0xd7 D:/WorK/Synesthesia/wxp/synesthesia/sw_wxp/de1_limbus_bsp/\libchibios_v240_bsp.a(altera_avalon_uart_init.o)
 .debug_loc     0x00010f79       0x57 D:/WorK/Synesthesia/wxp/synesthesia/sw_wxp/de1_limbus_bsp/\libchibios_v240_bsp.a(altera_avalon_uart_read.o)
 .debug_loc     0x00010fd0       0x56 D:/WorK/Synesthesia/wxp/synesthesia/sw_wxp/de1_limbus_bsp/\libchibios_v240_bsp.a(altera_avalon_uart_write.o)
 .debug_loc     0x00011026       0x2c D:/WorK/Synesthesia/wxp/synesthesia/sw_wxp/de1_limbus_bsp/\libchibios_v240_bsp.a(perf_print_formatted_report.o)
 .debug_loc     0x00011052       0x81 D:/WorK/Synesthesia/wxp/synesthesia/sw_wxp/de1_limbus_bsp/\libchibios_v240_bsp.a(chsys.o)
 .debug_loc     0x000110d3       0x2b D:/WorK/Synesthesia/wxp/synesthesia/sw_wxp/de1_limbus_bsp/\libchibios_v240_bsp.a(alt_alarm_start.o)
 .debug_loc     0x000110fe       0x2b D:/WorK/Synesthesia/wxp/synesthesia/sw_wxp/de1_limbus_bsp/\libchibios_v240_bsp.a(alt_dcache_flush_all.o)
 .debug_loc     0x00011129       0x56 D:/WorK/Synesthesia/wxp/synesthesia/sw_wxp/de1_limbus_bsp/\libchibios_v240_bsp.a(alt_dev_llist_insert.o)
 .debug_loc     0x0001117f       0x2b D:/WorK/Synesthesia/wxp/synesthesia/sw_wxp/de1_limbus_bsp/\libchibios_v240_bsp.a(alt_do_ctors.o)
 .debug_loc     0x000111aa       0x2b D:/WorK/Synesthesia/wxp/synesthesia/sw_wxp/de1_limbus_bsp/\libchibios_v240_bsp.a(alt_do_dtors.o)
 .debug_loc     0x000111d5       0x2b D:/WorK/Synesthesia/wxp/synesthesia/sw_wxp/de1_limbus_bsp/\libchibios_v240_bsp.a(alt_icache_flush_all.o)
 .debug_loc     0x00011200       0xac D:/WorK/Synesthesia/wxp/synesthesia/sw_wxp/de1_limbus_bsp/\libchibios_v240_bsp.a(alt_iic.o)
 .debug_loc     0x000112ac       0x2b D:/WorK/Synesthesia/wxp/synesthesia/sw_wxp/de1_limbus_bsp/\libchibios_v240_bsp.a(alt_iic_isr_register.o)
 .debug_loc     0x000112d7       0x56 D:/WorK/Synesthesia/wxp/synesthesia/sw_wxp/de1_limbus_bsp/\libchibios_v240_bsp.a(alt_io_redirect.o)
 .debug_loc     0x0001132d       0x2b D:/WorK/Synesthesia/wxp/synesthesia/sw_wxp/de1_limbus_bsp/\libchibios_v240_bsp.a(alt_irq_handler.o)
 .debug_loc     0x00011358       0x81 D:/WorK/Synesthesia/wxp/synesthesia/sw_wxp/de1_limbus_bsp/\libchibios_v240_bsp.a(alt_open.o)
 .debug_loc     0x000113d9       0x56 D:/WorK/Synesthesia/wxp/synesthesia/sw_wxp/de1_limbus_bsp/\libchibios_v240_bsp.a(alt_tick.o)
 .debug_loc     0x0001142f       0x2b D:/WorK/Synesthesia/wxp/synesthesia/sw_wxp/de1_limbus_bsp/\libchibios_v240_bsp.a(altera_nios2_qsys_irq.o)
 .debug_loc     0x0001145a       0x56 D:/WorK/Synesthesia/wxp/synesthesia/sw_wxp/de1_limbus_bsp/\libchibios_v240_bsp.a(chcore.o)
 .debug_loc     0x000114b0       0x2b D:/WorK/Synesthesia/wxp/synesthesia/sw_wxp/de1_limbus_bsp/\libchibios_v240_bsp.a(alt_find_dev.o)
 .debug_loc     0x000114db       0x2b D:/WorK/Synesthesia/wxp/synesthesia/sw_wxp/de1_limbus_bsp/\libchibios_v240_bsp.a(alt_find_file.o)
 .debug_loc     0x00011506       0x2b D:/WorK/Synesthesia/wxp/synesthesia/sw_wxp/de1_limbus_bsp/\libchibios_v240_bsp.a(alt_get_fd.o)
 .debug_loc     0x00011531       0x1e c:/altera/11.1sp2/nios2eds/bin/gnu/h-i686-mingw32/bin/../lib/gcc/nios2-elf/4.1.2/../../../../nios2-elf/lib/mno-hw-mul\libc.a(lib_a-atexit.o)
 .debug_loc     0x0001154f       0x3d c:/altera/11.1sp2/nios2eds/bin/gnu/h-i686-mingw32/bin/../lib/gcc/nios2-elf/4.1.2/../../../../nios2-elf/lib/mno-hw-mul\libc.a(lib_a-exit.o)
 .debug_loc     0x0001158c      0x10b c:/altera/11.1sp2/nios2eds/bin/gnu/h-i686-mingw32/bin/../lib/gcc/nios2-elf/4.1.2/../../../../nios2-elf/lib/mno-hw-mul\libc.a(lib_a-getc.o)
 .debug_loc     0x00011697      0x114 c:/altera/11.1sp2/nios2eds/bin/gnu/h-i686-mingw32/bin/../lib/gcc/nios2-elf/4.1.2/../../../../nios2-elf/lib/mno-hw-mul\libc.a(lib_a-memcmp.o)
 .debug_loc     0x000117ab      0x20d c:/altera/11.1sp2/nios2eds/bin/gnu/h-i686-mingw32/bin/../lib/gcc/nios2-elf/4.1.2/../../../../nios2-elf/lib/mno-hw-mul\libc.a(lib_a-putc.o)
 .debug_loc     0x000119b8       0x6e c:/altera/11.1sp2/nios2eds/bin/gnu/h-i686-mingw32/bin/../lib/gcc/nios2-elf/4.1.2/../../../../nios2-elf/lib/mno-hw-mul\libc.a(lib_a-rget.o)
 .debug_loc     0x00011a26      0x157 c:/altera/11.1sp2/nios2eds/bin/gnu/h-i686-mingw32/bin/../lib/gcc/nios2-elf/4.1.2/../../../../nios2-elf/lib/mno-hw-mul\libc.a(lib_a-wbuf.o)
 .debug_loc     0x00011b7d      0x120 c:/altera/11.1sp2/nios2eds/bin/gnu/h-i686-mingw32/bin/../lib/gcc/nios2-elf/4.1.2/../../../../nios2-elf/lib/mno-hw-mul\libc.a(lib_a-__atexit.o)
 .debug_loc     0x00011c9d      0x1cb c:/altera/11.1sp2/nios2eds/bin/gnu/h-i686-mingw32/bin/../lib/gcc/nios2-elf/4.1.2/../../../../nios2-elf/lib/mno-hw-mul\libc.a(lib_a-__call_atexit.o)
 .debug_loc     0x00011e68       0xd1 c:/altera/11.1sp2/nios2eds/bin/gnu/h-i686-mingw32/bin/../lib/gcc/nios2-elf/4.1.2/../../../../nios2-elf/lib/mno-hw-mul\libc.a(lib_a-refill.o)
 .debug_loc     0x00011f39       0x5f c:/altera/11.1sp2/nios2eds/bin/gnu/h-i686-mingw32/bin/../lib/gcc/nios2-elf/4.1.2/mno-hw-mul\libgcc.a(_floatundidf.o)
 .debug_loc     0x00011f98       0x56 D:/WorK/Synesthesia/wxp/synesthesia/sw_wxp/de1_limbus_bsp/\libchibios_v240_bsp.a(alt_exit.o)

.debug_macinfo
 *(.debug_macinfo)

.debug_weaknames
 *(.debug_weaknames)

.debug_funcnames
 *(.debug_funcnames)

.debug_typenames
 *(.debug_typenames)

.debug_varnames
 *(.debug_varnames)

.debug_alt_sim_info
                0x00000000       0x10
 *(.debug_alt_sim_info)
 .debug_alt_sim_info
                0x00000000       0x10 D:/WorK/Synesthesia/wxp/synesthesia/sw_wxp/de1_limbus_bsp//obj/HAL/src/crt0.o
                0x01000000                __alt_data_end = 0x1000000
                0x01000000                PROVIDE (__alt_stack_pointer, __alt_data_end)
                0x0083eef0                PROVIDE (__alt_stack_limit, __alt_stack_base)
                0x0083eef0                PROVIDE (__alt_heap_start, end)
                0x01000000                PROVIDE (__alt_heap_limit, 0x1000000)
OUTPUT(de1_ledos.elf elf32-littlenios2)

.debug_ranges   0x00000000      0xa90
 .debug_ranges  0x00000000       0x20 D:/WorK/Synesthesia/wxp/synesthesia/sw_wxp/de1_limbus_bsp//obj/HAL/src/crt0.o
 .debug_ranges  0x00000020       0xb0 obj/default/ledos/fatfs/ff.o
 .debug_ranges  0x000000d0      0x168 c:/altera/11.1sp2/nios2eds/bin/gnu/h-i686-mingw32/bin/../lib/gcc/nios2-elf/4.1.2/../../../../nios2-elf/lib/mno-hw-mul\libc.a(lib_a-vfprintf.o)
 .debug_ranges  0x00000238       0x20 c:/altera/11.1sp2/nios2eds/bin/gnu/h-i686-mingw32/bin/../lib/gcc/nios2-elf/4.1.2/../../../../nios2-elf/lib/mno-hw-mul\libc.a(lib_a-fflush.o)
 .debug_ranges  0x00000258       0x28 c:/altera/11.1sp2/nios2eds/bin/gnu/h-i686-mingw32/bin/../lib/gcc/nios2-elf/4.1.2/../../../../nios2-elf/lib/mno-hw-mul\libc.a(lib_a-fvwrite.o)
 .debug_ranges  0x00000280       0xa0 c:/altera/11.1sp2/nios2eds/bin/gnu/h-i686-mingw32/bin/../lib/gcc/nios2-elf/4.1.2/../../../../nios2-elf/lib/mno-hw-mul\libc.a(lib_a-fwalk.o)
 .debug_ranges  0x00000320       0x70 c:/altera/11.1sp2/nios2eds/bin/gnu/h-i686-mingw32/bin/../lib/gcc/nios2-elf/4.1.2/../../../../nios2-elf/lib/mno-hw-mul\libc.a(lib_a-mallocr.o)
 .debug_ranges  0x00000390      0x110 c:/altera/11.1sp2/nios2eds/bin/gnu/h-i686-mingw32/bin/../lib/gcc/nios2-elf/4.1.2/../../../../nios2-elf/lib/mno-hw-mul\libc.a(lib_a-reallocr.o)
 .debug_ranges  0x000004a0       0x38 c:/altera/11.1sp2/nios2eds/bin/gnu/h-i686-mingw32/bin/../lib/gcc/nios2-elf/4.1.2/../../../../nios2-elf/lib/mno-hw-mul\libc.a(lib_a-callocr.o)
 .debug_ranges  0x000004d8      0x190 c:/altera/11.1sp2/nios2eds/bin/gnu/h-i686-mingw32/bin/../lib/gcc/nios2-elf/4.1.2/mno-hw-mul\libgcc.a(_udivdi3.o)
 .debug_ranges  0x00000668      0x1c0 c:/altera/11.1sp2/nios2eds/bin/gnu/h-i686-mingw32/bin/../lib/gcc/nios2-elf/4.1.2/mno-hw-mul\libgcc.a(_umoddi3.o)
 .debug_ranges  0x00000828       0x30 c:/altera/11.1sp2/nios2eds/bin/gnu/h-i686-mingw32/bin/../lib/gcc/nios2-elf/4.1.2/mno-hw-mul\libgcc.a(_addsub_df.o)
 .debug_ranges  0x00000858       0x88 c:/altera/11.1sp2/nios2eds/bin/gnu/h-i686-mingw32/bin/../lib/gcc/nios2-elf/4.1.2/mno-hw-mul\libgcc.a(_mul_df.o)
 .debug_ranges  0x000008e0       0x50 c:/altera/11.1sp2/nios2eds/bin/gnu/h-i686-mingw32/bin/../lib/gcc/nios2-elf/4.1.2/mno-hw-mul\libgcc.a(_div_df.o)
 .debug_ranges  0x00000930       0x18 c:/altera/11.1sp2/nios2eds/bin/gnu/h-i686-mingw32/bin/../lib/gcc/nios2-elf/4.1.2/mno-hw-mul\libgcc.a(_usi_to_df.o)
 .debug_ranges  0x00000948       0x88 c:/altera/11.1sp2/nios2eds/bin/gnu/h-i686-mingw32/bin/../lib/gcc/nios2-elf/4.1.2/mno-hw-mul\libgcc.a(_muldi3.o)
 .debug_ranges  0x000009d0       0x28 c:/altera/11.1sp2/nios2eds/bin/gnu/h-i686-mingw32/bin/../lib/gcc/nios2-elf/4.1.2/mno-hw-mul\libgcc.a(_clzsi2.o)
 .debug_ranges  0x000009f8       0x28 c:/altera/11.1sp2/nios2eds/bin/gnu/h-i686-mingw32/bin/../lib/gcc/nios2-elf/4.1.2/mno-hw-mul\libgcc.a(_pack_df.o)
 .debug_ranges  0x00000a20       0x28 D:/WorK/Synesthesia/wxp/synesthesia/sw_wxp/de1_limbus_bsp/\libchibios_v240_bsp.a(alt_irq_entry.o)
 .debug_ranges  0x00000a48       0x30 D:/WorK/Synesthesia/wxp/synesthesia/sw_wxp/de1_limbus_bsp/\libchibios_v240_bsp.a(alt_exception_entry.o)
 .debug_ranges  0x00000a78       0x18 c:/altera/11.1sp2/nios2eds/bin/gnu/h-i686-mingw32/bin/../lib/gcc/nios2-elf/4.1.2/../../../../nios2-elf/lib/mno-hw-mul\libc.a(lib_a-__call_atexit.o)
