
de1_ledos.elf:     file format elf32-littlenios2
de1_ledos.elf
architecture: nios2, flags 0x00000112:
EXEC_P, HAS_SYMS, D_PAGED
start address 0x008001c4

Program Header:
    LOAD off    0x00001000 vaddr 0x00800000 paddr 0x00800000 align 2**12
         filesz 0x00000020 memsz 0x00000020 flags r-x
    LOAD off    0x00001020 vaddr 0x00800020 paddr 0x00800020 align 2**12
         filesz 0x00018998 memsz 0x00018998 flags r-x
    LOAD off    0x000199b8 vaddr 0x008189b8 paddr 0x0081a504 align 2**12
         filesz 0x00001b4c memsz 0x00001b4c flags rw-
    LOAD off    0x0001c050 vaddr 0x0081c050 paddr 0x0081c050 align 2**12
         filesz 0x00000000 memsz 0x00022ea0 flags rw-

Sections:
Idx Name          Size      VMA       LMA       File off  Algn
  0 .entry        00000020  00800000  00800000  00001000  2**5
                  CONTENTS, ALLOC, LOAD, READONLY, CODE
  1 .exceptions   000001a4  00800020  00800020  00001020  2**2
                  CONTENTS, ALLOC, LOAD, READONLY, CODE
  2 .text         00017264  008001c4  008001c4  000011c4  2**2
                  CONTENTS, ALLOC, LOAD, READONLY, CODE
  3 .rodata       00001590  00817428  00817428  00018428  2**2
                  CONTENTS, ALLOC, LOAD, READONLY, DATA
  4 .rwdata       00001b4c  008189b8  0081a504  000199b8  2**2
                  CONTENTS, ALLOC, LOAD, DATA, SMALL_DATA
  5 .bss          00022ea0  0081c050  0081c050  0001c050  2**2
                  ALLOC, SMALL_DATA
  6 .comment      00000026  00000000  00000000  0001b504  2**0
                  CONTENTS, READONLY
  7 .debug_aranges 00001238  00000000  00000000  0001b530  2**3
                  CONTENTS, READONLY, DEBUGGING
  8 .debug_pubnames 000025ab  00000000  00000000  0001c768  2**0
                  CONTENTS, READONLY, DEBUGGING
  9 .debug_info   0003403e  00000000  00000000  0001ed13  2**0
                  CONTENTS, READONLY, DEBUGGING
 10 .debug_abbrev 0000b159  00000000  00000000  00052d51  2**0
                  CONTENTS, READONLY, DEBUGGING
 11 .debug_line   00021b5c  00000000  00000000  0005deaa  2**0
                  CONTENTS, READONLY, DEBUGGING
 12 .debug_frame  000034fc  00000000  00000000  0007fa08  2**2
                  CONTENTS, READONLY, DEBUGGING
 13 .debug_str    00003abb  00000000  00000000  00082f04  2**0
                  CONTENTS, READONLY, DEBUGGING
 14 .debug_loc    00011fee  00000000  00000000  000869bf  2**0
                  CONTENTS, READONLY, DEBUGGING
 15 .debug_alt_sim_info 00000010  00000000  00000000  000989b0  2**2
                  CONTENTS, READONLY, DEBUGGING
 16 .debug_ranges 00000a90  00000000  00000000  000989c0  2**3
                  CONTENTS, READONLY, DEBUGGING
 17 .thread_model 0000000c  00000000  00000000  0009ea42  2**0
                  CONTENTS, READONLY
 18 .cpu          00000003  00000000  00000000  0009ea4e  2**0
                  CONTENTS, READONLY
 19 .qsys         00000001  00000000  00000000  0009ea51  2**0
                  CONTENTS, READONLY
 20 .simulation_enabled 00000001  00000000  00000000  0009ea52  2**0
                  CONTENTS, READONLY
 21 .sysid_hash   00000004  00000000  00000000  0009ea53  2**0
                  CONTENTS, READONLY
 22 .sysid_base   00000004  00000000  00000000  0009ea57  2**0
                  CONTENTS, READONLY
 23 .sysid_time   00000004  00000000  00000000  0009ea5b  2**0
                  CONTENTS, READONLY
 24 .stderr_dev   00000009  00000000  00000000  0009ea5f  2**0
                  CONTENTS, READONLY
 25 .stdin_dev    00000006  00000000  00000000  0009ea68  2**0
                  CONTENTS, READONLY
 26 .stdout_dev   00000006  00000000  00000000  0009ea6e  2**0
                  CONTENTS, READONLY
 27 .sopc_system_name 0000000a  00000000  00000000  0009ea74  2**0
                  CONTENTS, READONLY
 28 .quartus_project_dir 0000002b  00000000  00000000  0009ea7e  2**0
                  CONTENTS, READONLY
 29 .jdi          00004bf6  00000000  00000000  0009eaa9  2**0
                  CONTENTS, READONLY
SYMBOL TABLE:
00800000 l    d  .entry	00000000 .entry
00800020 l    d  .exceptions	00000000 .exceptions
008001c4 l    d  .text	00000000 .text
00817428 l    d  .rodata	00000000 .rodata
008189b8 l    d  .rwdata	00000000 .rwdata
0081c050 l    d  .bss	00000000 .bss
00000000 l    d  .comment	00000000 .comment
00000000 l    d  .debug_aranges	00000000 .debug_aranges
00000000 l    d  .debug_pubnames	00000000 .debug_pubnames
00000000 l    d  .debug_info	00000000 .debug_info
00000000 l    d  .debug_abbrev	00000000 .debug_abbrev
00000000 l    d  .debug_line	00000000 .debug_line
00000000 l    d  .debug_frame	00000000 .debug_frame
00000000 l    d  .debug_str	00000000 .debug_str
00000000 l    d  .debug_loc	00000000 .debug_loc
00000000 l    d  .debug_alt_sim_info	00000000 .debug_alt_sim_info
00000000 l    d  .debug_ranges	00000000 .debug_ranges
008001fc l       .text	00000000 alt_after_alt_main
00000000 l    df *ABS*	00000000 alt_irq_handler.c
00000000 l    df *ABS*	00000000 codec.c
0081c0b4 l     O .bss	00000016 codec_shadow_reg
0081a4b0 l     O .rwdata	00000008 bps2iwl_lookup
00817464 l     O .rodata	00000018 fs2sr_lookup
00000000 l    df *ABS*	00000000 acortex.c
00000000 l    df *ABS*	00000000 dac_drvr.c
008174c8 l     O .rodata	00000018 fs2div_lookup
008174e0 l     O .rodata	00000018 fs2mclk_lookup
00000000 l    df *ABS*	00000000 i2c_drvr.c
00000000 l    df *ABS*	00000000 prsr.c
00000000 l    df *ABS*	00000000 sram.c
00000000 l    df *ABS*	00000000 cortex.c
00000000 l    df *ABS*	00000000 fgyrus.c
00000000 l    df *ABS*	00000000 vcortex.c
00000000 l    df *ABS*	00000000 diskio.c
00800df8 l     F .text	00000078 rcvr_mmc
00800e70 l     F .text	0000002c deselect
00800e9c l     F .text	00000074 xmit_mmc
00800f50 l     F .text	00000090 rcvr_datablock
00800fe0 l     F .text	0000004c wait_ready
0080102c l     F .text	00000094 xmit_datablock
008010c0 l     F .text	00000050 select
00801110 l     F .text	0000013c send_cmd
0081a4b8 l     O .rwdata	00000001 Stat
0081c050 l     O .bss	00000001 CardType
00000000 l    df *ABS*	00000000 ff.c
00801798 l     F .text	00000024 mem_cpy
008017bc l     F .text	0000001c mem_set
00801824 l     F .text	000000f8 get_fileinfo
0081c054 l     O .bss	00000004 FatFs
0081c05a l     O .bss	00000001 CurrVol
00801ad8 l     F .text	00000054 validate
00801b2c l     F .text	000000e0 check_fs
00801c0c l     F .text	00000558 chk_mounted
0081c058 l     O .bss	00000002 Fsid
00802164 l     F .text	000000e8 move_window
008029c4 l     F .text	0000011c dir_sdi
00802ae0 l     F .text	00000060 dir_remove
00802b40 l     F .text	00000148 create_chain
0080316c l     F .text	000001c4 dir_next
00803330 l     F .text	000000c4 dir_register
008033f4 l     F .text	00000090 dir_read
0080377c l     F .text	0000043c follow_path
00803dc0 l     F .text	000000cc remove_chain
00803fb4 l     F .text	00000114 sync
00000000 l    df *ABS*	00000000 fft_cache.c
00000000 l    df *ABS*	00000000 ledos.c
0081c05c l     O .bss	00000004 aud_bytes_read
0081c0cc l     O .bss	00000540 AcidStack
0081c60c l     O .bss	00012140 ShellStack
00000000 l    df *ABS*	00000000 lsd.c
0080523c l     F .text	00000028 acid_sunshine
00817ca0 l     O .rodata	00000010 acid_box
00000000 l    df *ABS*	00000000 bash.c
0081a4bc l     O .rwdata	00000004 shell_cfg1
0081c06c l     O .bss	00000004 current_acid_str
0081c068 l     O .bss	00000004 current_acid
00805330 l     F .text	00000168 cmd_drop_acid
0081c060 l     O .bss	00000004 bash_tp
0081c064 l     O .bss	00000004 acid_tp
00805498 l     F .text	00000154 cmd_cath
008055ec l     F .text	000000c4 cmd_touch
008056b0 l     F .text	000001c4 cmd_perf
00805874 l     F .text	0000012c cmd_cat
008059a0 l     F .text	00000060 cmd_pwd
00805a00 l     F .text	00000118 cmd_ll
00805b18 l     F .text	0000008c cmd_cd
00805ba4 l     F .text	000000a0 cmd_mv
00805c44 l     F .text	00000074 cmd_mem
008180a4 l     O .rodata	00000058 commands
00000000 l    df *ABS*	00000000 shell.c
00805d84 l     F .text	00000040 list_commands
00805dc4 l     F .text	00000010 usage
00806114 l     F .text	000001d0 shell_thread
00805ef4 l     F .text	00000080 cmdexec
00805f74 l     F .text	00000028 cmd_systime
00805f9c l     F .text	000000ec cmd_info
00806088 l     F .text	0000008c _strtok
008189b8 l     O .rwdata	00000018 local_commands
00000000 l    df *ABS*	00000000 main.c
00000000 l    df *ABS*	00000000 lib2-divmod.c
00806338 l     F .text	0000007c udivmodsi4
00000000 l    df *ABS*	00000000 lib2-mul.c
00000000 l    df *ABS*	00000000 printf.c
00000000 l    df *ABS*	00000000 strcasecmp.c
00000000 l    df *ABS*	00000000 strpbrk.c
00000000 l    df *ABS*	00000000 strspn.c
00000000 l    df *ABS*	00000000 vfprintf.c
0080668c l     F .text	00000058 __sprint_r
00818346 l     O .rodata	00000010 blanks.3452
00818336 l     O .rodata	00000010 zeroes.3453
00000000 l    df *ABS*	00000000 wsetup.c
00000000 l    df *ABS*	00000000 ctype_.c
00818457 l     O .rodata	00000180 _ctype_b
00000000 l    df *ABS*	00000000 dtoa.c
00808708 l     F .text	00000244 quorem
00000000 l    df *ABS*	00000000 fflush.c
00000000 l    df *ABS*	00000000 findfp.c
0080a130 l     F .text	00000058 std
0080a23c l     F .text	00000008 __fp_lock
0080a244 l     F .text	00000008 __fp_unlock
00000000 l    df *ABS*	00000000 mallocr.c
00000000 l    df *ABS*	00000000 fvwrite.c
00000000 l    df *ABS*	00000000 fwalk.c
00000000 l    df *ABS*	00000000 impure.c
008189d0 l     O .rwdata	00000400 impure_data
00000000 l    df *ABS*	00000000 locale.c
0081a4d0 l     O .rwdata	00000004 charset
008185fc l     O .rodata	00000030 lconv
00000000 l    df *ABS*	00000000 makebuf.c
00000000 l    df *ABS*	00000000 mallocr.c
00000000 l    df *ABS*	00000000 memchr.c
00000000 l    df *ABS*	00000000 memcpy.c
00000000 l    df *ABS*	00000000 memmove.c
00000000 l    df *ABS*	00000000 memset.c
00000000 l    df *ABS*	00000000 mprec.c
00818744 l     O .rodata	0000000c p05.2458
00000000 l    df *ABS*	00000000 mallocr.c
00000000 l    df *ABS*	00000000 s_isinfd.c
00000000 l    df *ABS*	00000000 s_isnand.c
00000000 l    df *ABS*	00000000 sbrkr.c
00000000 l    df *ABS*	00000000 stdio.c
00000000 l    df *ABS*	00000000 strcmp.c
00000000 l    df *ABS*	00000000 strlen.c
00000000 l    df *ABS*	00000000 writer.c
00000000 l    df *ABS*	00000000 mallocr.c
00000000 l    df *ABS*	00000000 closer.c
00000000 l    df *ABS*	00000000 fclose.c
00000000 l    df *ABS*	00000000 fstatr.c
00000000 l    df *ABS*	00000000 int_errno.c
00000000 l    df *ABS*	00000000 isattyr.c
00000000 l    df *ABS*	00000000 lseekr.c
00000000 l    df *ABS*	00000000 readr.c
00000000 l    df *ABS*	00000000 libgcc2.c
00000000 l    df *ABS*	00000000 libgcc2.c
00000000 l    df *ABS*	00000000 dp-bit.c
0080e664 l     F .text	00000410 _fpadd_parts
00000000 l    df *ABS*	00000000 dp-bit.c
00000000 l    df *ABS*	00000000 dp-bit.c
00000000 l    df *ABS*	00000000 dp-bit.c
00000000 l    df *ABS*	00000000 dp-bit.c
00000000 l    df *ABS*	00000000 dp-bit.c
00000000 l    df *ABS*	00000000 dp-bit.c
00000000 l    df *ABS*	00000000 dp-bit.c
00000000 l    df *ABS*	00000000 dp-bit.c
00000000 l    df *ABS*	00000000 dp-bit.c
00000000 l    df *ABS*	00000000 dp-bit.c
00000000 l    df *ABS*	00000000 dp-bit.c
00000000 l    df *ABS*	00000000 libgcc2.c
00000000 l    df *ABS*	00000000 libgcc2.c
00000000 l    df *ABS*	00000000 libgcc2.c
00000000 l    df *ABS*	00000000 dp-bit.c
00000000 l    df *ABS*	00000000 dp-bit.c
00000000 l    df *ABS*	00000000 dp-bit.c
00000000 l    df *ABS*	00000000 chdynamic.c
00000000 l    df *ABS*	00000000 chevents.c
00000000 l    df *ABS*	00000000 chheap.c
0082e774 l     O .bss	0000001c default_heap
00000000 l    df *ABS*	00000000 chmemcore.c
0081c094 l     O .bss	00000004 nextmem
0081c098 l     O .bss	00000004 endmem
00000000 l    df *ABS*	00000000 chmempools.c
00000000 l    df *ABS*	00000000 chmsg.c
008114fc l     F .text	00000060 queue_insert
008115fc l     F .text	00000050 fifo_remove
00000000 l    df *ABS*	00000000 chmtx.c
008118b0 l     F .text	0000004c dequeue
008118fc l     F .text	00000094 prio_insert
00811bc0 l     F .text	00000050 fifo_remove
00000000 l    df *ABS*	00000000 chschd.c
00812004 l     F .text	00000050 fifo_remove
00812054 l     F .text	000000b8 wakeup
0081210c l     F .text	0000004c dequeue
00000000 l    df *ABS*	00000000 chthreads.c
00812ab8 l     F .text	00000040 list_remove
00812b94 l     F .text	00000040 list_insert
00000000 l    df *ABS*	00000000 chvt.c
00812e8c l       .text	00000000 _port_thread_start_loop
00000000 l    df *ABS*	00000000 alt_close.c
00813008 l     F .text	00000060 alt_get_errno
00000000 l    df *ABS*	00000000 alt_dev.c
00813068 l     F .text	0000002c alt_dev_null_write
00000000 l    df *ABS*	00000000 alt_errno.c
00000000 l    df *ABS*	00000000 alt_fstat.c
0081316c l     F .text	00000060 alt_get_errno
00000000 l    df *ABS*	00000000 alt_getchar.c
00000000 l    df *ABS*	00000000 alt_isatty.c
008132c8 l     F .text	00000060 alt_get_errno
00000000 l    df *ABS*	00000000 alt_load.c
008133a8 l     F .text	0000006c alt_load_section
00000000 l    df *ABS*	00000000 alt_lseek.c
00813508 l     F .text	00000060 alt_get_errno
00000000 l    df *ABS*	00000000 alt_main.c
00000000 l    df *ABS*	00000000 alt_malloc_lock.c
00000000 l    df *ABS*	00000000 alt_printf.c
00000000 l    df *ABS*	00000000 alt_putchar.c
00000000 l    df *ABS*	00000000 alt_read.c
008139ec l     F .text	00000060 alt_get_errno
00000000 l    df *ABS*	00000000 alt_release_fd.c
00000000 l    df *ABS*	00000000 alt_sbrk.c
0081a4f4 l     O .rwdata	00000004 heap_end
00000000 l    df *ABS*	00000000 alt_write.c
00813ca4 l     F .text	00000060 alt_get_errno
00000000 l    df *ABS*	00000000 alt_sys_init.c
0081938c l     O .rwdata	00001060 jtag_uart
0081a3ec l     O .rwdata	000000c4 uart_0
00813dc4 l     F .text	00000038 alt_dev_reg
00000000 l    df *ABS*	00000000 altera_avalon_jtag_uart_fd.c
00000000 l    df *ABS*	00000000 altera_avalon_jtag_uart_init.c
00814004 l     F .text	00000228 altera_avalon_jtag_uart_irq
0081422c l     F .text	000000b0 altera_avalon_jtag_uart_timeout
00000000 l    df *ABS*	00000000 altera_avalon_jtag_uart_ioctl.c
00000000 l    df *ABS*	00000000 altera_avalon_jtag_uart_read.c
00000000 l    df *ABS*	00000000 altera_avalon_jtag_uart_write.c
00000000 l    df *ABS*	00000000 altera_avalon_performance_counter.c
00000000 l    df *ABS*	00000000 altera_avalon_timer_sc.c
00814a30 l     F .text	00000070 alt_avalon_timer_sc_irq
00000000 l    df *ABS*	00000000 altera_avalon_uart_fd.c
00000000 l    df *ABS*	00000000 altera_avalon_uart_init.c
00814cf0 l     F .text	0000009c altera_avalon_uart_irq
00814d8c l     F .text	000000e0 altera_avalon_uart_rxirq
00814e6c l     F .text	0000015c altera_avalon_uart_txirq
00000000 l    df *ABS*	00000000 altera_avalon_uart_read.c
00815258 l     F .text	00000060 alt_get_errno
00000000 l    df *ABS*	00000000 altera_avalon_uart_write.c
00815480 l     F .text	00000060 alt_get_errno
00000000 l    df *ABS*	00000000 perf_print_formatted_report.c
00000000 l    df *ABS*	00000000 chsys.c
0082e790 l     O .bss	00000048 mainthread.2251
00000000 l    df *ABS*	00000000 alt_alarm_start.c
00000000 l    df *ABS*	00000000 alt_dcache_flush_all.c
00000000 l    df *ABS*	00000000 alt_dev_llist_insert.c
00815ba4 l     F .text	00000060 alt_get_errno
00000000 l    df *ABS*	00000000 alt_do_ctors.c
00000000 l    df *ABS*	00000000 alt_do_dtors.c
00000000 l    df *ABS*	00000000 alt_icache_flush_all.c
00000000 l    df *ABS*	00000000 alt_iic.c
00000000 l    df *ABS*	00000000 alt_iic_isr_register.c
00000000 l    df *ABS*	00000000 alt_io_redirect.c
00815fb4 l     F .text	000000d8 alt_open_fd
00000000 l    df *ABS*	00000000 alt_irq_vars.c
00000000 l    df *ABS*	00000000 alt_open.c
00816104 l     F .text	000000f8 alt_file_locked
00816388 l     F .text	00000060 alt_get_errno
00000000 l    df *ABS*	00000000 alt_tick.c
00000000 l    df *ABS*	00000000 altera_nios2_qsys_irq.c
00000000 l    df *ABS*	00000000 chcore.c
00000000 l    df *ABS*	00000000 alt_find_dev.c
00000000 l    df *ABS*	00000000 alt_find_file.c
00000000 l    df *ABS*	00000000 alt_get_fd.c
00000000 l    df *ABS*	00000000 atexit.c
00000000 l    df *ABS*	00000000 exit.c
00000000 l    df *ABS*	00000000 getc.c
00000000 l    df *ABS*	00000000 memcmp.c
00000000 l    df *ABS*	00000000 putc.c
00000000 l    df *ABS*	00000000 rget.c
00000000 l    df *ABS*	00000000 wbuf.c
00000000 l    df *ABS*	00000000 __atexit.c
00000000 l    df *ABS*	00000000 __call_atexit.c
00816f38 l     F .text	00000004 register_fini
00000000 l    df *ABS*	00000000 refill.c
008172b0 l     F .text	0000001c lflush
00000000 l    df *ABS*	00000000 libgcc2.c
00000000 l    df *ABS*	00000000 alt_exit.c
00817354 l     F .text	00000040 alt_sim_halt
00811234 g     F .text	00000060 chPoolInit
0080bf20 g     F .text	00000094 _mprec_log10
00800884 g     F .text	00000058 update_mclk
0080c00c g     F .text	00000088 __any_on
0080d838 g     F .text	00000070 _isatty_r
0081871c g     O .rodata	00000028 __mprec_tinytens
00813568 g     F .text	00000088 alt_main
00810424 g     F .text	000000b4 chEvtSignalFlagsI
00815854 g     F .text	0000012c chSysTimerHandlerI
008129b8 g     F .text	00000048 chThdExit
0081053c g     F .text	00000070 chEvtBroadcastFlagsI
00812158 g     F .text	00000090 chSchGoSleepTimeoutS
0083ec60 g     O .bss	00000100 alt_irq
00800ab8 g     F .text	00000030 prsr_get_bytes_read
0080d8a8 g     F .text	00000078 _lseek_r
00802424 g     F .text	00000184 get_fat
00800f10 g     F .text	00000040 dly_us
0081a504 g       *ABS*	00000000 __flash_rwdata_start
0080f184 g     F .text	00000088 __eqdf2
0081174c g     F .text	00000164 chMtxLockS
008100a4 g     F .text	000000d0 chThdCreateFromMemoryPool
0080096c g     F .text	00000020 disable_dac_drvr
0083eef0 g       *ABS*	00000000 __alt_heap_start
008064bc g     F .text	00000044 printf
008119f0 g     F .text	00000084 chMtxTryLockS
00810e90 g     F .text	00000188 chHeapFree
0080d27c g     F .text	00000068 __sseek
0080a198 g     F .text	000000a4 __sinit
00814a0c g     F .text	00000024 alt_get_cpu_freq
00816cb8 g     F .text	00000130 __swbuf_r
008103c0 g     F .text	00000064 chEvtSignalFlags
0081c070 g     O .bss	00000004 bash_rc
0080aea4 g     F .text	00000084 _setlocale_r
0080a298 g     F .text	0000009c __sfmoreglue
0080504c g     F .text	0000011c splash_ledos
00813610 g     F .text	00000020 __malloc_unlock
00800c0c g     F .text	00000058 sram_read16
008009a4 g     F .text	0000001c is_busy
0081020c g     F .text	000000a4 chEvtUnregister
00805270 g     F .text	00000008 get_usr_bash_config
0080b99c g     F .text	000000e0 memmove
008154e0 g     F .text	00000294 perf_print_formatted_report
0080a288 g     F .text	00000010 _cleanup
0080c094 g     F .text	000000bc _Balloc
00811f6c g     F .text	00000098 chSchGoSleepS
0080f294 g     F .text	00000088 __gtdf2
00000000  w      *UND*	00000000 __errno
00800260 g     F .text	00000050 codec_config_reg
00800000 g     F .entry	0000000c __reset
00800020 g       *ABS*	00000000 __flash_exceptions_start
0080d7c4 g     F .text	00000074 _fstat_r
00800ddc g     F .text	0000001c wait_on_spi
0081c090 g     O .bss	00000004 errno
00816ca4 g     F .text	00000014 __srget
008124f4 g     F .text	00000158 chThdCreateI
0081c0a0 g     O .bss	00000004 alt_argv
008224b0 g       *ABS*	00000000 _gp
0082e7e4 g     O .bss	00010000 bash_Buff
00800404 g     F .text	00000014 codec_dsp_if_inactivate
00800854 g     F .text	00000014 disable_mclk
00804ea4 g     F .text	000000fc printf_wave_hdr
00800328 g     F .text	00000014 codec_pwr_off_n_on
0080353c g     F .text	00000240 f_getcwd
008121e8 g     F .text	000000ac chSchWakeupS
00811e34 g     F .text	00000090 _scheduler_init
00812294 g     F .text	0000004c chSchRescheduleS
0081264c g     F .text	0000008c chThdCreateStatic
0081920c g     O .rwdata	00000180 alt_fd_list
00800b9c g     F .text	00000018 prsr_enable
00800314 g     F .text	00000014 codec_linein_pwr_dwn_n_up
00810344 g     F .text	0000007c chEvtAddFlags
00816968 g     F .text	00000090 _getc_r
00805cdc g     F .text	0000009c acid_thread
008168d0 g     F .text	00000098 getc
00816600 g     F .text	00000094 alt_find_dev
0080b8fc g     F .text	000000a0 memcpy
00800668 g     F .text	00000074 acortex_init
0080a27c g     F .text	0000000c _cleanup_r
0080f42c g     F .text	000000f8 __floatsidf
0081608c g     F .text	00000078 alt_io_redirect
0080f3a4 g     F .text	00000088 __ltdf2
00817428 g       *ABS*	00000000 __DTOR_END__
0080124c g     F .text	00000198 disk_initialize
00800950 g     F .text	0000001c enable_dac_drvr
00811ec4 g     F .text	000000a8 chSchReadyI
00800ae8 g     F .text	0000002c prsr_hdr_ram_read16
008165b0  w    F .text	00000028 port_halt
00812bd4 g     F .text	00000064 _vt_init
0080be70 g     F .text	000000b0 __ratio
0080042c g     F .text	00000070 codec_reset
0081118c g     F .text	0000007c chCoreAllocI
008040c8 g     F .text	00000210 f_rename
00814444 g     F .text	00000224 altera_avalon_jtag_uart_read
00000000  w      *UND*	00000000 malloc
00806500 g     F .text	00000034 _printf_r
00806474 g     F .text	00000008 __udivsi3
00813204 g     F .text	000000c4 isatty
00810bf4 g     F .text	0000005c _heap_init
008052c0 g     F .text	00000070 update_acid
0081862c g     O .rodata	000000c8 __mprec_tens
0080ae80 g     F .text	00000008 __locale_charset
00803d04 g     F .text	000000bc f_chdir
00804c1c g     F .text	00000058 read_fft_cache
0081c084 g     O .bss	00000004 __malloc_top_pad
008013e4 g     F .text	00000064 disk_status
008149ac g     F .text	00000040 perf_get_num_starts
008009c0 g     F .text	00000030 get_i2c_status
00803e8c g     F .text	00000128 f_truncate
0080ffe0 g     F .text	000000c4 chThdCreateFromHeap
0081a4cc g     O .rwdata	00000004 __mb_cur_max
00801968 g     F .text	00000170 decode_fres
0080ae88 g     F .text	0000000c _localeconv_r
0080c7f8 g     F .text	0000003c __i2b
0080a864 g     F .text	0000049c __sfvwrite_r
0080d204 g     F .text	00000070 _sbrk_r
00804c88 g     F .text	00000020 byte_swap16
0080d920 g     F .text	00000078 _read_r
00811018 g     F .text	000000c8 chHeapStatus
00801448 g     F .text	0000015c disk_ioctl
00818dd0 g     O .rwdata	0000000c __lc_ctype
00800bb4 g     F .text	00000058 sram_write16
0081a4ec g     O .rwdata	00000004 alt_max_fd
0080fc48 g     F .text	00000138 __unpack_d
0080d6a0 g     F .text	00000110 _fclose_r
0080a0fc g     F .text	00000034 fflush
0081c088 g     O .bss	00000004 __malloc_max_sbrked_mem
008002c4 g     F .text	00000014 codec_sr_update
0080eaf4 g     F .text	00000074 __adddf3
0080bd50 g     F .text	00000120 __b2d
00812a00 g     F .text	000000b8 chThdExitS
0080e004 g     F .text	00000660 __umoddi3
00813414 g     F .text	000000f4 lseek
0083e7e4 g     O .bss	0000001c bash_dir
0081a4c8 g     O .rwdata	00000004 _global_impure_ptr
0080cba0 g     F .text	000005f4 _realloc_r
0083eef0 g       *ABS*	00000000 __bss_end
00815ebc g     F .text	000000f8 alt_iic_isr_register
008131cc g     F .text	00000038 alt_getchar
00816480 g     F .text	00000110 alt_tick
0081c074 g     O .bss	00000004 shell_terminated
0080d998 g     F .text	0000066c __udivdi3
008186f4 g     O .rodata	00000028 __mprec_bigtens
0080ca80 g     F .text	00000120 __s2b
0080f5fc g     F .text	00000194 __floatunsidf
0080bc70 g     F .text	00000060 __mcmp
00814c28 g     F .text	000000c8 altera_avalon_uart_init
0081a4c0 g     O .rwdata	00000004 __ctype_ptr
0080a264 g     F .text	00000018 __fp_lock_all
00804480 g     F .text	0000017c f_unlink
00815e74 g     F .text	00000048 alt_ic_irq_enabled
00805d78 g     F .text	0000000c shellInit
008163e8 g     F .text	00000098 alt_alarm_stop
0081c0a8 g     O .bss	00000004 alt_irq_active
00804c74 g     F .text	00000014 update_aud_bytes_read
00812c38 g     F .text	00000114 chVTSetI
008000ec g     F .exceptions	000000d8 alt_irq_handler
008191e4 g     O .rwdata	00000028 alt_dev_null
00815ad4 g     F .text	0000001c alt_dcache_flush_all
0080bb3c g     F .text	00000070 __hi0bits
0080f524 g     F .text	000000d8 __fixdfsi
0083e800 g     O .bss	00000018 bash_fno
0081a504 g       *ABS*	00000000 __ram_rwdata_end
0081a4e4 g     O .rwdata	00000008 alt_dev_list
00813b80 g     F .text	00000124 write
00816b70 g     F .text	000000e8 _putc_r
0082e7d8 g     O .bss	0000000c shell_tel
008189b8 g       *ABS*	00000000 __ram_rodata_end
00813094 g     F .text	000000d8 fstat
00800930 g     F .text	00000020 disable_adc_drvr
008116f4 g     F .text	00000058 chMtxLock
00805ec4 g     F .text	00000030 shellCreateStatic
0080c960 g     F .text	00000120 __pow5mult
00811208 g     F .text	0000002c chCoreStatus
0081c078 g     O .bss	00000004 __nlocale_changed
0080647c g     F .text	00000008 __umodsi3
00812360 g     F .text	00000090 chSchDoReschedule
008157a4 g     F .text	000000b0 chSysInit
00801948 g     F .text	00000018 f_chdrive
00812868 g     F .text	0000005c chThdSleep
0083eef0 g       *ABS*	00000000 end
00800200 g     F .text	00000060 codec_dump_regs
00812dd4 g     F .text	000000a8 chTimeIsWithin
008152b8 g     F .text	000001c8 altera_avalon_uart_write
00813f44 g     F .text	000000c0 altera_avalon_jtag_uart_init
00817424 g       *ABS*	00000000 __CTOR_LIST__
01000000 g       *ABS*	00000000 __alt_stack_pointer
00814aa0 g     F .text	00000090 alt_avalon_timer_sc_init
00814b88 g     F .text	00000058 altera_avalon_uart_write_fd
0080f8b4 g     F .text	00000080 __clzsi2
00814be0 g     F .text	00000048 altera_avalon_uart_close_fd
008102b0 g     F .text	00000094 chEvtClearFlags
00814668 g     F .text	00000240 altera_avalon_jtag_uart_write
0080a188 g     F .text	00000004 __sfp_lock_acquire
0080b818 g     F .text	000000e4 memchr
00805264 g     F .text	0000000c get_acid_box
008066e4 g     F .text	00001ec4 ___vfprintf_internal_r
0080a550 g     F .text	00000314 _free_r
00813630 g     F .text	00000258 alt_printf
00811294 g     F .text	00000084 chPoolAllocI
00804fa0 g     F .text	000000ac wave_parse
00800dc0 g     F .text	00000004 disk_timerproc
00816c58 g     F .text	0000004c __srget_r
00816f3c g     F .text	000001b0 __call_exitprocs
00804cd8 g     F .text	000000ac chk_wav_hdr
0081c07c g     O .bss	00000004 __mlocale_changed
008046f4 g     F .text	0000002c f_close
0081a4d8 g     O .rwdata	00000004 __malloc_sbrk_base
008001c4 g     F .text	0000003c _start
008110e0 g     F .text	0000004c _core_init
0081c0ac g     O .bss	00000004 _alt_tick_rate
00811c10 g     F .text	00000120 chMtxUnlockS
00800ce4 g     F .text	00000020 get_fgyrus_status
008165d8 g     F .text	00000028 port_time_tick
008127a8 g     F .text	00000060 chThdResume
008172cc g     F .text	00000088 __floatundidf
00811990 g     F .text	00000060 chMtxTryLock
0080c458 g     F .text	0000014c __lshift
0081c0b0 g     O .bss	00000004 _alt_nticks
008138c8 g     F .text	00000124 read
00813d38 g     F .text	0000008c alt_sys_init
008008dc g     F .text	00000038 configure_dac_drvr_bps
00800b88 g     F .text	00000014 prsr_disable
00816e04 g     F .text	00000134 __register_exitproc
00811d30 g     F .text	00000104 chMtxUnlockAll
00802784 g     F .text	00000240 f_read
00811318 g     F .text	00000060 chPoolAlloc
0080c5a4 g     F .text	00000254 __multiply
00803484 g     F .text	000000b8 f_readdir
00810af4 g     F .text	00000100 chEvtWaitAllTimeout
008142dc g     F .text	00000074 altera_avalon_jtag_uart_close
00806484 g     F .text	00000038 __mulsi3
008189b8 g       *ABS*	00000000 __ram_rwdata_start
00817428 g       *ABS*	00000000 __ram_rodata_start
0082e74c g     O .bss	00000028 __malloc_current_mallinfo
0080c150 g     F .text	0000017c __d2b
00806534 g     F .text	000000b0 strcasecmp
00811438 g     F .text	000000c4 chMsgSend
008043ac g     F .text	000000d4 f_chmod
0080063c g     F .text	00000014 acortex_aud_src_sel
0083ea90 g     O .bss	00000010 vtlist
00813dfc g     F .text	00000058 altera_avalon_jtag_uart_read_fd
008167b4 g     F .text	000000d0 alt_get_fd
0080fd80 g     F .text	000000c8 __fpcmp_parts_d
00805278 g     F .text	00000048 init_bash
0081112c g     F .text	00000060 chCoreAlloc
0080d630 g     F .text	00000070 _close_r
008062e4 g     F .text	00000028 shellCreate
00810cd8 g     F .text	000001b8 chHeapAlloc
0080fe48 g     F .text	00000064 chThdAddRef
008148a8 g     F .text	000000b0 perf_get_section_time
008169f8 g     F .text	00000074 memcmp
00813eac g     F .text	00000048 altera_avalon_jtag_uart_close_fd
0083eef0 g       *ABS*	00000000 __alt_stack_base
00813ef4 g     F .text	00000050 altera_avalon_jtag_uart_ioctl_fd
00812e90 g       .text	00000000 port_switch
008085cc g     F .text	0000013c __swsetup_r
00800d04 g     F .text	0000001c configure_post_norm
0080ef2c g     F .text	00000258 __divdf3
0080a334 g     F .text	000000f0 __sfp
008002ec g     F .text	00000014 codec_adc_hpf_enable
0080bfb4 g     F .text	00000058 __copybits
00814958 g     F .text	00000054 perf_get_total_time
00818ddc g     O .rwdata	00000408 __malloc_av_
0080a194 g     F .text	00000004 __sinit_lock_release
0080eb68 g     F .text	000003c4 __muldf3
0080d360 g     F .text	00000060 __sread
00801960 g     F .text	00000008 get_fattime
00816694 g     F .text	00000120 alt_find_file
00815af0 g     F .text	000000b4 alt_dev_llist_insert
008135f0 g     F .text	00000020 __malloc_lock
00813ac4 g     F .text	000000bc sbrk
00809f00 g     F .text	000001fc _fflush_r
0080d568 g     F .text	000000c8 _calloc_r
00805cb8 g     F .text	00000024 acidThreadCreateStatic
0081155c g     F .text	000000a0 chMsgWait
0081c050 g       *ABS*	00000000 __bss_start
008128c4 g     F .text	00000080 chThdSleepUntil
0080ba7c g     F .text	00000098 memset
0080630c g     F .text	0000002c main
0081c0a4 g     O .bss	00000004 alt_envp
0081c08c g     O .bss	00000004 __malloc_max_total_mem
00813e54 g     F .text	00000058 altera_avalon_jtag_uart_write_fd
0083ea70 g     O .bss	00000020 rlist
00816de8 g     F .text	0000001c __swbuf
008045fc g     F .text	000000f8 f_sync
00800cd0 g     F .text	00000014 get_full_fgyrus_addr
00804ca8 g     F .text	00000030 byte_swap32
0080049c g     F .text	000001a0 codec_init
0080d274 g     F .text	00000008 __sclose
01000000 g       *ABS*	00000000 __alt_heap_limit
008009f0 g     F .text	00000018 configure_i2c_clk
0080d7b0 g     F .text	00000014 fclose
0083ed60 g     O .bss	00000190 _atexit0
0080894c g     F .text	000015b4 _dtoa_r
0080b0d8 g     F .text	00000740 _malloc_r
00805168 g     F .text	000000d4 init_ledos
0081a4f0 g     O .rwdata	00000004 alt_errno
0080191c g     F .text	0000002c f_mount
008003a0 g     F .text	00000064 codec_dac_activate
0080adc8 g     F .text	000000b8 _fwalk
008116ac g     F .text	00000048 chMtxInit
00803c40 g     F .text	000000c4 f_opendir
00800d6c g     F .text	00000030 pwm_paint
00815774 g     F .text	00000030 _idle_thread
008104d8 g     F .text	00000064 chEvtBroadcastFlags
00816a6c g     F .text	00000104 putc
008063b4 g     F .text	00000060 __divsi3
00800d4c g     F .text	00000020 get_fgyrus_fsm_pstate
00818750 g     O .rodata	00000014 __thenan_df
0080a424 g     F .text	0000012c _malloc_trim_r
00817428 g       *ABS*	00000000 __CTOR_END__
0080d3c0 g     F .text	000000bc strcmp
00817428 g       *ABS*	00000000 __flash_rodata_start
00810658 g     F .text	000000dc chEvtWaitOne
00817428 g       *ABS*	00000000 __DTOR_LIST__
00812e7c g       .text	00000000 _port_thread_start
00811378 g     F .text	00000060 chPoolFreeI
0080224c g     F .text	000001d8 put_fat
0080f20c g     F .text	00000088 __nedf2
00800b14 g     F .text	00000074 get_wav_hdr_frm_prsr
00813d04 g     F .text	00000034 alt_irq_init
00813a4c g     F .text	00000078 alt_release_fd
00802c88 g     F .text	00000230 f_lseek
00818764 g     O .rodata	00000100 __clz_tab
0081c080 g     O .bss	00000004 _PathLocale
00816884 g     F .text	00000014 atexit
008107fc g     F .text	000000ac chEvtWaitAll
0080d4f0 g     F .text	00000078 _write_r
0080af28 g     F .text	0000001c setlocale
0081a4c4 g     O .rwdata	00000004 _impure_ptr
0081c09c g     O .bss	00000004 alt_argc
008105ac g     F .text	000000ac chEvtDispatch
00815c68 g     F .text	00000064 _do_dtors
00800418 g     F .text	00000014 codec_dsp_if_activate
00805dd4 g     F .text	000000f0 shellGetLine
0080feac g     F .text	00000134 chThdRelease
008108a8 g     F .text	00000130 chEvtWaitOneTimeout
008170ec g     F .text	000001c4 __srefill_r
00800c64 g     F .text	0000006c cortex_init
00800d20 g     F .text	00000014 disable_fgyrus
00800020 g       .exceptions	00000000 alt_irq_entry
0080098c g     F .text	00000018 get_i2c_clk
0083eaa0 g     O .bss	000001c0 _idle_thread_wa
0080bcd0 g     F .text	00000080 __ulp
0080d194 g     F .text	00000040 __isinfd
00803bb8 g     F .text	00000088 f_stat
0080a24c g     F .text	00000018 __fp_unlock_all
008113d8 g     F .text	00000060 chPoolFree
0081a4dc g     O .rwdata	00000008 alt_fs_list
00800d34 g     F .text	00000018 enable_fgyrus
0081164c g     F .text	00000060 chMsgRelease
0083e818 g     O .bss	00000024 bash_Fil
00800020 g       *ABS*	00000000 __ram_exceptions_start
0080ae94 g     F .text	00000010 localeconv
008017d8 g     F .text	0000004c clust2sect
00811a74 g     F .text	0000014c chMtxUnlock
00800828 g     F .text	0000002c update_fs_div
008109d8 g     F .text	0000011c chEvtWaitAnyTimeout
00815ce8 g     F .text	00000050 alt_ic_isr_register
0081a504 g       *ABS*	00000000 _edata
008042d8 g     F .text	000000d4 f_utime
00814b30 g     F .text	00000058 altera_avalon_uart_read_fd
0083eef0 g       *ABS*	00000000 _end
00810734 g     F .text	000000c8 chEvtWaitAny
008001c4 g       *ABS*	00000000 __ram_exceptions_end
00812d4c g     F .text	00000088 chVTResetI
00802eb8 g     F .text	000002b4 f_write
00814350 g     F .text	000000f4 altera_avalon_jtag_uart_ioctl
008006dc g     F .text	0000014c adc_cap
00800650 g     F .text	00000018 reset_acortex
00800a08 g     F .text	000000b0 i2c_xtn_write16
00815dd4 g     F .text	000000a0 alt_ic_irq_disable
00810174 g     F .text	00000098 chEvtRegisterMask
0080d2e4 g     F .text	0000007c __swrite
0081a4d4 g     O .rwdata	00000004 __malloc_trim_threshold
00804720 g     F .text	00000268 f_open
008149ec g     F .text	00000020 alt_get_performance_counter_base
008015a4 g     F .text	0000010c disk_write
00816590 g     F .text	00000020 altera_nios2_qsys_irq_init
00800dac g     F .text	00000014 enable_vcortex
00816898 g     F .text	00000038 exit
0080ad00 g     F .text	000000c8 _fwalk_reent
0080c2cc g     F .text	0000018c __mdiff
00806414 g     F .text	00000060 __modsi3
01000000 g       *ABS*	00000000 __alt_data_end
00800020 g     F .exceptions	00000000 alt_exception
0080a18c g     F .text	00000004 __sfp_lock_release
00800914 g     F .text	0000001c enable_adc_drvr
00800000 g       *ABS*	00000000 __alt_mem_sdram
008126d8 g     F .text	000000d0 chThdSetPriority
00818356 g     O .rodata	00000101 _ctype_
00812af8 g     F .text	0000009c chThdWait
00804988 g     F .text	00000294 f_mkdir
00814fc8 g     F .text	00000060 altera_avalon_uart_close
008122e0 g     F .text	00000080 chSchIsPreemptionRequired
00817394 g     F .text	00000024 _exit
0080d1d4 g     F .text	00000030 __isnand
00815980 g     F .text	00000154 alt_alarm_start
00806634 g     F .text	00000058 strspn
0080f790 g     F .text	00000124 __muldi3
008002d8 g     F .text	00000014 codec_adc_pwr_dwn_n_up
008123f0 g     F .text	00000104 _thread_init
0080af44 g     F .text	00000194 __smakebuf_r
0080d47c g     F .text	00000074 strlen
008016b0 g     F .text	000000e8 disk_read
008161fc g     F .text	0000018c open
0080f31c g     F .text	00000088 __gedf2
00813888 g     F .text	00000040 alt_putchar
00812944 g     F .text	00000074 chThdYield
00804d84 g     F .text	00000120 prep_cortex
00815ccc g     F .text	0000001c alt_icache_flush_all
008025a8 g     F .text	000001dc f_getfree
0083e83c g     O .bss	00000234 bash_Fatfs
0080033c g     F .text	00000064 codec_dac_inactivate
0081a4f8 g     O .rwdata	00000004 alt_priority_mask
00800868 g     F .text	0000001c enable_mclk
00810c50 g     F .text	00000088 chHeapInit
008002b0 g     F .text	00000014 codec_iwl_update
00815d38 g     F .text	0000009c alt_ic_irq_enable
00800300 g     F .text	00000014 codec_lineout_pwr_dwn_n_up
008085a8 g     F .text	00000024 __vfprintf_internal
00815028 g     F .text	00000230 altera_avalon_uart_read
0080ea74 g     F .text	00000080 __subdf3
0080bbac g     F .text	000000c4 __lo0bits
00800dc4 g     F .text	00000018 init_port
0081a4fc g     O .rwdata	00000008 alt_alarm_list
00815c04 g     F .text	00000064 _do_ctors
00800d9c g     F .text	00000010 disable_vcortex
00812f08 g     F .text	00000100 close
00812808 g     F .text	00000060 chThdTerminate
00813328 g     F .text	00000080 alt_load
0080f934 g     F .text	00000314 __pack_d
008065e4 g     F .text	00000050 strpbrk
00000000  w      *UND*	00000000 free
0080a190 g     F .text	00000004 __sinit_lock_acquire
0080c834 g     F .text	0000012c __multadd
0080bb14 g     F .text	00000028 _Bfree



Disassembly of section .entry:

00800000 <__reset>:
 * Jump to the _start entry point in the .text section if reset code
 * is allowed or if optimizing for RTL simulation.
 */
#if defined(ALT_ALLOW_CODE_AT_RESET) || defined(ALT_SIM_OPTIMIZE)
    /* Jump to the _start entry point in the .text section. */
    movhi r1, %hi(_start)
  800000:	00402034 	movhi	at,128
    ori r1, r1, %lo(_start)
  800004:	08407114 	ori	at,at,452
    jmp r1
  800008:	0800683a 	jmp	at
	...

Disassembly of section .exceptions:

00800020 <alt_exception>:
         * Process an exception.  For all exceptions we must preserve all
         * caller saved registers on the stack (See the Nios2 ABI
         * documentation for details).
         */

        addi  sp, sp, -76
  800020:	deffed04 	addi	sp,sp,-76

#endif

#endif

        stw   ra,  0(sp)
  800024:	dfc00015 	stw	ra,0(sp)
        /*
         * Leave a gap in the stack frame at 4(sp) for the muldiv handler to
         * store zero into.
         */

        stw   r1,   8(sp)
  800028:	d8400215 	stw	at,8(sp)
        stw   r2,  12(sp)
  80002c:	d8800315 	stw	r2,12(sp)
        stw   r3,  16(sp)
  800030:	d8c00415 	stw	r3,16(sp)
        stw   r4,  20(sp)
  800034:	d9000515 	stw	r4,20(sp)
        stw   r5,  24(sp)
  800038:	d9400615 	stw	r5,24(sp)
        stw   r6,  28(sp)
  80003c:	d9800715 	stw	r6,28(sp)
        stw   r7,  32(sp)
  800040:	d9c00815 	stw	r7,32(sp)

        rdctl r5, estatus
  800044:	000b307a 	rdctl	r5,estatus

        stw   r8,  36(sp)
  800048:	da000915 	stw	r8,36(sp)
        stw   r9,  40(sp)
  80004c:	da400a15 	stw	r9,40(sp)
        stw   r10, 44(sp)
  800050:	da800b15 	stw	r10,44(sp)
        stw   r11, 48(sp)
  800054:	dac00c15 	stw	r11,48(sp)
        stw   r12, 52(sp)
  800058:	db000d15 	stw	r12,52(sp)
        stw   r13, 56(sp)
  80005c:	db400e15 	stw	r13,56(sp)
        stw   r14, 60(sp)
  800060:	db800f15 	stw	r14,60(sp)
        stw   r15, 64(sp)
  800064:	dbc01015 	stw	r15,64(sp)
        /*
         * ea-4 contains the address of the instruction being executed
         * when the exception occured. For interrupt exceptions, we will
         * will be re-issue the isntruction. Store it in 72(sp)
         */
        stw   r5,  68(sp)  /* estatus */
  800068:	d9401115 	stw	r5,68(sp)
        addi  r15, ea, -4  /* instruction that caused exception */
  80006c:	ebffff04 	addi	r15,ea,-4
        stw   r15,  72(sp)
  800070:	dbc01215 	stw	r15,72(sp)
#else
        /*
         * Test to see if the exception was a software exception or caused 
         * by an external interrupt, and vector accordingly.
         */
        rdctl r4, ipending
  800074:	0009313a 	rdctl	r4,ipending
        andi  r2, r5, 1
  800078:	2880004c 	andi	r2,r5,1
        beq   r2, zero, .Lnot_irq
  80007c:	10000326 	beq	r2,zero,80008c <alt_exception+0x6c>
        beq   r4, zero, .Lnot_irq
  800080:	20000226 	beq	r4,zero,80008c <alt_exception+0x6c>
        /*
         * Now that all necessary registers have been preserved, call 
         * alt_irq_handler() to process the interrupts.
         */

        call alt_irq_handler
  800084:	08000ec0 	call	8000ec <alt_irq_handler>

        .section .exceptions.irqreturn, "xa"

        br    .Lexception_exit
  800088:	00000306 	br	800098 <alt_exception+0x78>
         * upon completion, so we write ea (address of instruction *after*
         * the one where the exception occured) into 72(sp). The actual
         * instruction that caused the exception is written in r2, which these
         * handlers will utilize.
         */
        stw   ea,  72(sp)  /* Don't re-issue */
  80008c:	df401215 	stw	ea,72(sp)
        ldw   r2, -4(ea)   /* Instruction that caused exception */
  800090:	e8bfff17 	ldw	r2,-4(ea)
#ifdef NIOS2_HAS_DEBUG_STUB
       /*
        *  Either tell the user now (if there is a debugger attached) or go into
        *  the debug monitor which will loop until a debugger is attached.
        */
        break
  800094:	003da03a 	break	0
        /* 
         * Restore the saved registers, so that all general purpose registers 
         * have been restored to their state at the time the interrupt occured.
         */

        ldw   r5,  68(sp)
  800098:	d9401117 	ldw	r5,68(sp)
        ldw   ea,  72(sp)  /* This becomes the PC once eret is executed */
  80009c:	df401217 	ldw	ea,72(sp)
        ldw   ra,   0(sp)
  8000a0:	dfc00017 	ldw	ra,0(sp)

        wrctl estatus, r5
  8000a4:	2801707a 	wrctl	estatus,r5

        ldw   r1,   8(sp)
  8000a8:	d8400217 	ldw	at,8(sp)
        ldw   r2,  12(sp)
  8000ac:	d8800317 	ldw	r2,12(sp)
        ldw   r3,  16(sp)
  8000b0:	d8c00417 	ldw	r3,16(sp)
        ldw   r4,  20(sp)
  8000b4:	d9000517 	ldw	r4,20(sp)
        ldw   r5,  24(sp)
  8000b8:	d9400617 	ldw	r5,24(sp)
        ldw   r6,  28(sp)
  8000bc:	d9800717 	ldw	r6,28(sp)
        ldw   r7,  32(sp)
  8000c0:	d9c00817 	ldw	r7,32(sp)
#ifdef ALT_STACK_CHECK
        ldw   et, %gprel(alt_exception_old_stack_limit)(gp)
#endif
#endif

        ldw   r8,  36(sp)
  8000c4:	da000917 	ldw	r8,36(sp)
        ldw   r9,  40(sp)
  8000c8:	da400a17 	ldw	r9,40(sp)
        ldw   r10, 44(sp)
  8000cc:	da800b17 	ldw	r10,44(sp)
        ldw   r11, 48(sp)
  8000d0:	dac00c17 	ldw	r11,48(sp)
        ldw   r12, 52(sp)
  8000d4:	db000d17 	ldw	r12,52(sp)
        ldw   r13, 56(sp)
  8000d8:	db400e17 	ldw	r13,56(sp)
        ldw   r14, 60(sp)
  8000dc:	db800f17 	ldw	r14,60(sp)
        ldw   r15, 64(sp)
  8000e0:	dbc01017 	ldw	r15,64(sp)
#endif

        ldw   sp,  76(sp)

#else
        addi  sp, sp, 76
  8000e4:	dec01304 	addi	sp,sp,76

        /*
         * Return to the interrupted instruction.
         */

        eret
  8000e8:	ef80083a 	eret

008000ec <alt_irq_handler>:
 * instruction is present if the macro ALT_CI_INTERRUPT_VECTOR defined.
 */

void alt_irq_handler (void) __attribute__ ((section (".exceptions")));
void alt_irq_handler (void)
{
  8000ec:	defff904 	addi	sp,sp,-28
  8000f0:	dfc00615 	stw	ra,24(sp)
  8000f4:	df000515 	stw	fp,20(sp)
  8000f8:	df000504 	addi	fp,sp,20
#ifndef NIOS2_EIC_PRESENT
static ALT_INLINE alt_u32 ALT_ALWAYS_INLINE alt_irq_pending (void)
{
  alt_u32 active;

  NIOS2_READ_IPENDING (active);
  8000fc:	0005313a 	rdctl	r2,ipending
  800100:	e0bffc15 	stw	r2,-16(fp)

  return active;
  800104:	e0bffc17 	ldw	r2,-16(fp)
   * Consider the case where the high priority interupt is asserted during
   * the interrupt entry sequence for a lower priority interrupt to see why
   * this is the case.
   */

  active = alt_irq_pending ();
  800108:	e0bfff15 	stw	r2,-4(fp)

  do
  {
    i = 0;
  80010c:	e03ffd15 	stw	zero,-12(fp)
    mask = 1;
  800110:	00800044 	movi	r2,1
  800114:	e0bffe15 	stw	r2,-8(fp)
     * called to clear the interrupt condition.
     */

    do
    {
      if (active & mask)
  800118:	e0ffff17 	ldw	r3,-4(fp)
  80011c:	e0bffe17 	ldw	r2,-8(fp)
  800120:	1884703a 	and	r2,r3,r2
  800124:	1005003a 	cmpeq	r2,r2,zero
  800128:	1000161e 	bne	r2,zero,800184 <alt_irq_handler+0x98>
      { 
#ifdef ALT_ENHANCED_INTERRUPT_API_PRESENT
        alt_irq[i].handler(alt_irq[i].context); 
  80012c:	e0bffd17 	ldw	r2,-12(fp)
  800130:	00c02134 	movhi	r3,132
  800134:	18fb1804 	addi	r3,r3,-5024
  800138:	100490fa 	slli	r2,r2,3
  80013c:	10c5883a 	add	r2,r2,r3
  800140:	11400017 	ldw	r5,0(r2)
  800144:	e0bffd17 	ldw	r2,-12(fp)
  800148:	00c02134 	movhi	r3,132
  80014c:	18fb1804 	addi	r3,r3,-5024
  800150:	100490fa 	slli	r2,r2,3
  800154:	10c5883a 	add	r2,r2,r3
  800158:	10800104 	addi	r2,r2,4
  80015c:	11000017 	ldw	r4,0(r2)
  800160:	283ee83a 	callr	r5
#ifndef NIOS2_EIC_PRESENT
static ALT_INLINE alt_u32 ALT_ALWAYS_INLINE alt_irq_pending (void)
{
  alt_u32 active;

  NIOS2_READ_IPENDING (active);
  800164:	0005313a 	rdctl	r2,ipending
  800168:	e0bffb15 	stw	r2,-20(fp)

  return active;
  80016c:	e0bffb17 	ldw	r2,-20(fp)
      mask <<= 1;
      i++;

    } while (1);

    active = alt_irq_pending ();
  800170:	e0bfff15 	stw	r2,-4(fp)
    
  } while (active);
  800174:	e0bfff17 	ldw	r2,-4(fp)
  800178:	1004c03a 	cmpne	r2,r2,zero
  80017c:	103fe31e 	bne	r2,zero,80010c <alt_irq_handler+0x20>
  800180:	00000706 	br	8001a0 <alt_irq_handler+0xb4>
#else
        alt_irq[i].handler(alt_irq[i].context, i); 
#endif
        break;
      }
      mask <<= 1;
  800184:	e0bffe17 	ldw	r2,-8(fp)
  800188:	1085883a 	add	r2,r2,r2
  80018c:	e0bffe15 	stw	r2,-8(fp)
      i++;
  800190:	e0bffd17 	ldw	r2,-12(fp)
  800194:	10800044 	addi	r2,r2,1
  800198:	e0bffd15 	stw	r2,-12(fp)

    } while (1);
  80019c:	003fde06 	br	800118 <alt_irq_handler+0x2c>

  /*
   * Notify the operating system that interrupt processing is complete.
   */ 

  ALT_OS_INT_EXIT();
  8001a0:	08122e00 	call	8122e0 <chSchIsPreemptionRequired>
  8001a4:	1005003a 	cmpeq	r2,r2,zero
  8001a8:	1000011e 	bne	r2,zero,8001b0 <alt_irq_handler+0xc4>
  8001ac:	08123600 	call	812360 <chSchDoReschedule>
}
  8001b0:	e037883a 	mov	sp,fp
  8001b4:	dfc00117 	ldw	ra,4(sp)
  8001b8:	df000017 	ldw	fp,0(sp)
  8001bc:	dec00204 	addi	sp,sp,8
  8001c0:	f800283a 	ret

Disassembly of section .text:

008001c4 <_start>:
#if (NIOS2_NUM_OF_SHADOW_REG_SETS == 0)    
    /*
     * Now that the caches are initialized, set up the stack pointer.
     * The value provided by the linker is assumed to be correctly aligned.
     */
    movhi sp, %hi(__alt_stack_pointer)
  8001c4:	06c04034 	movhi	sp,256
    ori sp, sp, %lo(__alt_stack_pointer)
  8001c8:	dec00014 	ori	sp,sp,0

    /* Set up the global pointer. */
    movhi gp, %hi(_gp)
  8001cc:	068020b4 	movhi	gp,130
    ori gp, gp, %lo(_gp)
  8001d0:	d6892c14 	ori	gp,gp,9392
 */
#ifndef ALT_SIM_OPTIMIZE
    /* Log that the BSS is about to be cleared. */
    ALT_LOG_PUTS(alt_log_msg_bss)

    movhi r2, %hi(__bss_start)
  8001d4:	00802074 	movhi	r2,129
    ori r2, r2, %lo(__bss_start)
  8001d8:	10b01414 	ori	r2,r2,49232

    movhi r3, %hi(__bss_end)
  8001dc:	00c020f4 	movhi	r3,131
    ori r3, r3, %lo(__bss_end)
  8001e0:	18fbbc14 	ori	r3,r3,61168

    beq r2, r3, 1f
  8001e4:	10c00326 	beq	r2,r3,8001f4 <_start+0x30>

0:
    stw zero, (r2)
  8001e8:	10000015 	stw	zero,0(r2)
    addi r2, r2, 4
  8001ec:	10800104 	addi	r2,r2,4
    bltu r2, r3, 0b
  8001f0:	10fffd36 	bltu	r2,r3,8001e8 <_start+0x24>
     * section aren't defined until alt_load() has been called).
     */
    mov   et, zero
#endif

    call alt_load
  8001f4:	08133280 	call	813328 <alt_load>

    /* Log that alt_main is about to be called. */
    ALT_LOG_PUTS(alt_log_msg_alt_main)

    /* Call the C entry point. It should never return. */
    call alt_main
  8001f8:	08135680 	call	813568 <alt_main>

008001fc <alt_after_alt_main>:

    /* Wait in infinite loop in case alt_main does return. */
alt_after_alt_main:
    br alt_after_alt_main
  8001fc:	003fff06 	br	8001fc <alt_after_alt_main>

00800200 <codec_dump_regs>:

I2C_RES codec_iwl_update(CODEC_IWL val){
	return codec_config_reg(CODEC_IWL_IDX, CODEC_IWL_OFFST, CODEC_IWL_MSK, val);
}

void codec_dump_regs(){
  800200:	defffd04 	addi	sp,sp,-12
	alt_u8 i;

	alt_printf("CODEC Regs - \r\n");
  800204:	01002074 	movhi	r4,129
  800208:	211d0a04 	addi	r4,r4,29736

I2C_RES codec_iwl_update(CODEC_IWL val){
	return codec_config_reg(CODEC_IWL_IDX, CODEC_IWL_OFFST, CODEC_IWL_MSK, val);
}

void codec_dump_regs(){
  80020c:	dc400115 	stw	r17,4(sp)
  800210:	dc000015 	stw	r16,0(sp)
  800214:	dfc00215 	stw	ra,8(sp)
	alt_u8 i;

	alt_printf("CODEC Regs - \r\n");
  800218:	0021883a 	mov	r16,zero
  80021c:	08136300 	call	813630 <alt_printf>
  800220:	044020b4 	movhi	r17,130
  800224:	8c702d04 	addi	r17,r17,-16204

	for(i=0; i<NO_OF_CODEC_REGS; i++){
		alt_printf("REG[0x%x] - 0x%x\r\n",i,codec_shadow_reg[i]);
  800228:	8980000b 	ldhu	r6,0(r17)
  80022c:	800b883a 	mov	r5,r16
  800230:	01002074 	movhi	r4,129
  800234:	211d0e04 	addi	r4,r4,29752
  800238:	08136300 	call	813630 <alt_printf>
  80023c:	84000044 	addi	r16,r16,1
void codec_dump_regs(){
	alt_u8 i;

	alt_printf("CODEC Regs - \r\n");

	for(i=0; i<NO_OF_CODEC_REGS; i++){
  800240:	008002c4 	movi	r2,11
		alt_printf("REG[0x%x] - 0x%x\r\n",i,codec_shadow_reg[i]);
  800244:	8c400084 	addi	r17,r17,2
void codec_dump_regs(){
	alt_u8 i;

	alt_printf("CODEC Regs - \r\n");

	for(i=0; i<NO_OF_CODEC_REGS; i++){
  800248:	80bff71e 	bne	r16,r2,800228 <codec_dump_regs+0x28>
		alt_printf("REG[0x%x] - 0x%x\r\n",i,codec_shadow_reg[i]);
	}

	return;
}
  80024c:	dfc00217 	ldw	ra,8(sp)
  800250:	dc400117 	ldw	r17,4(sp)
  800254:	dc000017 	ldw	r16,0(sp)
  800258:	dec00304 	addi	sp,sp,12
  80025c:	f800283a 	ret

00800260 <codec_config_reg>:
	return I2C_OK;

}

I2C_RES	codec_config_reg(alt_u8 idx, alt_u8 offst, alt_u8 msk, alt_u8 val){
	codec_shadow_reg[idx]	&=	~(alt_u16)(msk	<<	offst);
  800260:	22003fcc 	andi	r8,r4,255
  800264:	29403fcc 	andi	r5,r5,255
  800268:	30803fcc 	andi	r2,r6,255
  80026c:	00c020b4 	movhi	r3,130
  800270:	18f02d04 	addi	r3,r3,-16204
  800274:	4211883a 	add	r8,r8,r8
  800278:	40d1883a 	add	r8,r8,r3
	codec_shadow_reg[idx]	|=	(alt_u16)((val & msk)	<<	offst);
  80027c:	398e703a 	and	r7,r7,r6
	return I2C_OK;

}

I2C_RES	codec_config_reg(alt_u8 idx, alt_u8 offst, alt_u8 msk, alt_u8 val){
	codec_shadow_reg[idx]	&=	~(alt_u16)(msk	<<	offst);
  800280:	1144983a 	sll	r2,r2,r5
  800284:	40c0000b 	ldhu	r3,0(r8)
	codec_shadow_reg[idx]	|=	(alt_u16)((val & msk)	<<	offst);
  800288:	39c03fcc 	andi	r7,r7,255
  80028c:	394e983a 	sll	r7,r7,r5
	return I2C_OK;

}

I2C_RES	codec_config_reg(alt_u8 idx, alt_u8 offst, alt_u8 msk, alt_u8 val){
	codec_shadow_reg[idx]	&=	~(alt_u16)(msk	<<	offst);
  800290:	0084303a 	nor	r2,zero,r2
  800294:	10c4703a 	and	r2,r2,r3
	codec_shadow_reg[idx]	|=	(alt_u16)((val & msk)	<<	offst);
  800298:	11c4b03a 	or	r2,r2,r7

	return	i2c_xtn_write16(CORTEX_MM_SL_BASE, CODEC_I2C_WRITE_ADDR, codec_shadow_reg[idx]);
  80029c:	11bfffcc 	andi	r6,r2,65535
  8002a0:	01004034 	movhi	r4,256
  8002a4:	01400d04 	movi	r5,52

}

I2C_RES	codec_config_reg(alt_u8 idx, alt_u8 offst, alt_u8 msk, alt_u8 val){
	codec_shadow_reg[idx]	&=	~(alt_u16)(msk	<<	offst);
	codec_shadow_reg[idx]	|=	(alt_u16)((val & msk)	<<	offst);
  8002a8:	4080000d 	sth	r2,0(r8)

	return	i2c_xtn_write16(CORTEX_MM_SL_BASE, CODEC_I2C_WRITE_ADDR, codec_shadow_reg[idx]);
  8002ac:	0800a081 	jmpi	800a08 <i2c_xtn_write16>

008002b0 <codec_iwl_update>:
I2C_RES codec_sr_update(SR_SEL val){
	return codec_config_reg(CODEC_SR_IDX, CODEC_SR_OFFST, CODEC_SR_MSK, val);
}

I2C_RES codec_iwl_update(CODEC_IWL val){
	return codec_config_reg(CODEC_IWL_IDX, CODEC_IWL_OFFST, CODEC_IWL_MSK, val);
  8002b0:	21c03fcc 	andi	r7,r4,255
  8002b4:	01400084 	movi	r5,2
  8002b8:	010001c4 	movi	r4,7
  8002bc:	018000c4 	movi	r6,3
  8002c0:	08002601 	jmpi	800260 <codec_config_reg>

008002c4 <codec_sr_update>:
I2C_RES codec_adc_pwr_dwn_n_up(CODEC_PWR_ON_OFF val){
	return codec_config_reg(CODEC_ADCPD_IDX, CODEC_ADCPD_OFFST, CODEC_ADCPD_MSK, val);
}

I2C_RES codec_sr_update(SR_SEL val){
	return codec_config_reg(CODEC_SR_IDX, CODEC_SR_OFFST, CODEC_SR_MSK, val);
  8002c4:	21c03fcc 	andi	r7,r4,255
  8002c8:	01400084 	movi	r5,2
  8002cc:	01000204 	movi	r4,8
  8002d0:	018003c4 	movi	r6,15
  8002d4:	08002601 	jmpi	800260 <codec_config_reg>

008002d8 <codec_adc_pwr_dwn_n_up>:
I2C_RES codec_adc_hpf_enable(CODEC_PWR_ON_OFF val){
	return codec_config_reg(CODEC_ADC_HPD_IDX, CODEC_ADC_HPD_OFFST, CODEC_ADC_HPD_MSK, val);
}

I2C_RES codec_adc_pwr_dwn_n_up(CODEC_PWR_ON_OFF val){
	return codec_config_reg(CODEC_ADCPD_IDX, CODEC_ADCPD_OFFST, CODEC_ADCPD_MSK, val);
  8002d8:	21c03fcc 	andi	r7,r4,255
  8002dc:	01400084 	movi	r5,2
  8002e0:	01000184 	movi	r4,6
  8002e4:	01800044 	movi	r6,1
  8002e8:	08002601 	jmpi	800260 <codec_config_reg>

008002ec <codec_adc_hpf_enable>:
I2C_RES codec_lineout_pwr_dwn_n_up(CODEC_PWR_ON_OFF val){
	return codec_config_reg(CODEC_OUTPD_IDX, CODEC_OUTPD_OFFST, CODEC_OUTPD_MSK, val);
}

I2C_RES codec_adc_hpf_enable(CODEC_PWR_ON_OFF val){
	return codec_config_reg(CODEC_ADC_HPD_IDX, CODEC_ADC_HPD_OFFST, CODEC_ADC_HPD_MSK, val);
  8002ec:	21c03fcc 	andi	r7,r4,255
  8002f0:	000b883a 	mov	r5,zero
  8002f4:	01000144 	movi	r4,5
  8002f8:	01800044 	movi	r6,1
  8002fc:	08002601 	jmpi	800260 <codec_config_reg>

00800300 <codec_lineout_pwr_dwn_n_up>:
I2C_RES codec_linein_pwr_dwn_n_up(CODEC_PWR_ON_OFF val){	//0->Power up, 1->Power Down
	return codec_config_reg(CODEC_LINEINPD_IDX, CODEC_LINEINPD_OFFST, CODEC_LINEINPD_MSK, val);
}

I2C_RES codec_lineout_pwr_dwn_n_up(CODEC_PWR_ON_OFF val){
	return codec_config_reg(CODEC_OUTPD_IDX, CODEC_OUTPD_OFFST, CODEC_OUTPD_MSK, val);
  800300:	21c03fcc 	andi	r7,r4,255
  800304:	01400104 	movi	r5,4
  800308:	01000184 	movi	r4,6
  80030c:	01800044 	movi	r6,1
  800310:	08002601 	jmpi	800260 <codec_config_reg>

00800314 <codec_linein_pwr_dwn_n_up>:
I2C_RES codec_pwr_off_n_on(CODEC_PWR_ON_OFF val){	//0->Power up, 1->Power Down
	return codec_config_reg(CODEC_PWROFF_IDX, CODEC_PWROFF_OFFST, CODEC_PWROFF_MSK, val);
}

I2C_RES codec_linein_pwr_dwn_n_up(CODEC_PWR_ON_OFF val){	//0->Power up, 1->Power Down
	return codec_config_reg(CODEC_LINEINPD_IDX, CODEC_LINEINPD_OFFST, CODEC_LINEINPD_MSK, val);
  800314:	21c03fcc 	andi	r7,r4,255
  800318:	000b883a 	mov	r5,zero
  80031c:	01000184 	movi	r4,6
  800320:	01800044 	movi	r6,1
  800324:	08002601 	jmpi	800260 <codec_config_reg>

00800328 <codec_pwr_off_n_on>:
	return I2C_OK;

}

I2C_RES codec_pwr_off_n_on(CODEC_PWR_ON_OFF val){	//0->Power up, 1->Power Down
	return codec_config_reg(CODEC_PWROFF_IDX, CODEC_PWROFF_OFFST, CODEC_PWROFF_MSK, val);
  800328:	21c03fcc 	andi	r7,r4,255
  80032c:	014001c4 	movi	r5,7
  800330:	01000184 	movi	r4,6
  800334:	01800044 	movi	r6,1
  800338:	08002601 	jmpi	800260 <codec_config_reg>

0080033c <codec_dac_inactivate>:
	return I2C_OK;
}

I2C_RES codec_dac_inactivate(){

	if(codec_config_reg(CODEC_DAC_MU_IDX, CODEC_DAC_MU_OFFST, CODEC_DAC_MU_MSK, 0x1))	return	I2C_NACK_DETECTED;
  80033c:	01800044 	movi	r6,1
  800340:	300f883a 	mov	r7,r6
	if(codec_config_reg(CODEC_DAC_MU_IDX, CODEC_DAC_MU_OFFST, CODEC_DAC_MU_MSK, 0x0))	return	I2C_NACK_DETECTED;

	return I2C_OK;
}

I2C_RES codec_dac_inactivate(){
  800344:	deffff04 	addi	sp,sp,-4

	if(codec_config_reg(CODEC_DAC_MU_IDX, CODEC_DAC_MU_OFFST, CODEC_DAC_MU_MSK, 0x1))	return	I2C_NACK_DETECTED;
  800348:	01000144 	movi	r4,5
  80034c:	014000c4 	movi	r5,3
	if(codec_config_reg(CODEC_DAC_MU_IDX, CODEC_DAC_MU_OFFST, CODEC_DAC_MU_MSK, 0x0))	return	I2C_NACK_DETECTED;

	return I2C_OK;
}

I2C_RES codec_dac_inactivate(){
  800350:	dfc00015 	stw	ra,0(sp)

	if(codec_config_reg(CODEC_DAC_MU_IDX, CODEC_DAC_MU_OFFST, CODEC_DAC_MU_MSK, 0x1))	return	I2C_NACK_DETECTED;
  800354:	08002600 	call	800260 <codec_config_reg>

	//Refer pg26 of WM8731 datasheet
	if(codec_config_reg(CODEC_DAC_SEL_IDX, CODEC_DAC_SEL_OFFST, CODEC_DAC_SEL_MSK, 0x0))	return	I2C_NACK_DETECTED;
  800358:	01000104 	movi	r4,4
  80035c:	200b883a 	mov	r5,r4
  800360:	01800044 	movi	r6,1
  800364:	000f883a 	mov	r7,zero
	return I2C_OK;
}

I2C_RES codec_dac_inactivate(){

	if(codec_config_reg(CODEC_DAC_MU_IDX, CODEC_DAC_MU_OFFST, CODEC_DAC_MU_MSK, 0x1))	return	I2C_NACK_DETECTED;
  800368:	1000091e 	bne	r2,zero,800390 <codec_dac_inactivate+0x54>

	//Refer pg26 of WM8731 datasheet
	if(codec_config_reg(CODEC_DAC_SEL_IDX, CODEC_DAC_SEL_OFFST, CODEC_DAC_SEL_MSK, 0x0))	return	I2C_NACK_DETECTED;
  80036c:	08002600 	call	800260 <codec_config_reg>

	//Referpg44 of WM8731 datasheet
	if(codec_config_reg(CODEC_DACPD_IDX, CODEC_DACPD_OFFST, CODEC_DACPD_MSK, 0x1))	return	I2C_NACK_DETECTED;
  800370:	01800044 	movi	r6,1
  800374:	01000184 	movi	r4,6
  800378:	014000c4 	movi	r5,3
  80037c:	300f883a 	mov	r7,r6
I2C_RES codec_dac_inactivate(){

	if(codec_config_reg(CODEC_DAC_MU_IDX, CODEC_DAC_MU_OFFST, CODEC_DAC_MU_MSK, 0x1))	return	I2C_NACK_DETECTED;

	//Refer pg26 of WM8731 datasheet
	if(codec_config_reg(CODEC_DAC_SEL_IDX, CODEC_DAC_SEL_OFFST, CODEC_DAC_SEL_MSK, 0x0))	return	I2C_NACK_DETECTED;
  800380:	1000031e 	bne	r2,zero,800390 <codec_dac_inactivate+0x54>

	//Referpg44 of WM8731 datasheet
	if(codec_config_reg(CODEC_DACPD_IDX, CODEC_DACPD_OFFST, CODEC_DACPD_MSK, 0x1))	return	I2C_NACK_DETECTED;
  800384:	08002600 	call	800260 <codec_config_reg>
  800388:	1004c03a 	cmpne	r2,r2,zero
  80038c:	00000106 	br	800394 <codec_dac_inactivate+0x58>
  800390:	00800044 	movi	r2,1

	return I2C_OK;

}
  800394:	dfc00017 	ldw	ra,0(sp)
  800398:	dec00104 	addi	sp,sp,4
  80039c:	f800283a 	ret

008003a0 <codec_dac_activate>:

I2C_RES codec_dsp_if_inactivate(){
	return codec_config_reg(CODEC_ACTIVE_IDX, CODEC_ACTIVE_OFFST, CODEC_ACTIVE_MSK, 0x0);
}

I2C_RES codec_dac_activate(){
  8003a0:	deffff04 	addi	sp,sp,-4
	//Referpg44 of WM8731 datasheet
	if(codec_config_reg(CODEC_DACPD_IDX, CODEC_DACPD_OFFST, CODEC_DACPD_MSK, 0x0))	return	I2C_NACK_DETECTED;
  8003a4:	01000184 	movi	r4,6
  8003a8:	014000c4 	movi	r5,3
  8003ac:	01800044 	movi	r6,1
  8003b0:	000f883a 	mov	r7,zero

I2C_RES codec_dsp_if_inactivate(){
	return codec_config_reg(CODEC_ACTIVE_IDX, CODEC_ACTIVE_OFFST, CODEC_ACTIVE_MSK, 0x0);
}

I2C_RES codec_dac_activate(){
  8003b4:	dfc00015 	stw	ra,0(sp)
	//Referpg44 of WM8731 datasheet
	if(codec_config_reg(CODEC_DACPD_IDX, CODEC_DACPD_OFFST, CODEC_DACPD_MSK, 0x0))	return	I2C_NACK_DETECTED;
  8003b8:	08002600 	call	800260 <codec_config_reg>

	//Refer pg26 of WM8731 datasheet
	if(codec_config_reg(CODEC_DAC_SEL_IDX, CODEC_DAC_SEL_OFFST, CODEC_DAC_SEL_MSK, 0x1))	return	I2C_NACK_DETECTED;
  8003bc:	01000104 	movi	r4,4
  8003c0:	01800044 	movi	r6,1
  8003c4:	200b883a 	mov	r5,r4
  8003c8:	300f883a 	mov	r7,r6
	return codec_config_reg(CODEC_ACTIVE_IDX, CODEC_ACTIVE_OFFST, CODEC_ACTIVE_MSK, 0x0);
}

I2C_RES codec_dac_activate(){
	//Referpg44 of WM8731 datasheet
	if(codec_config_reg(CODEC_DACPD_IDX, CODEC_DACPD_OFFST, CODEC_DACPD_MSK, 0x0))	return	I2C_NACK_DETECTED;
  8003cc:	1000091e 	bne	r2,zero,8003f4 <codec_dac_activate+0x54>

	//Refer pg26 of WM8731 datasheet
	if(codec_config_reg(CODEC_DAC_SEL_IDX, CODEC_DAC_SEL_OFFST, CODEC_DAC_SEL_MSK, 0x1))	return	I2C_NACK_DETECTED;
  8003d0:	08002600 	call	800260 <codec_config_reg>

	if(codec_config_reg(CODEC_DAC_MU_IDX, CODEC_DAC_MU_OFFST, CODEC_DAC_MU_MSK, 0x0))	return	I2C_NACK_DETECTED;
  8003d4:	01000144 	movi	r4,5
  8003d8:	014000c4 	movi	r5,3
  8003dc:	01800044 	movi	r6,1
  8003e0:	000f883a 	mov	r7,zero
I2C_RES codec_dac_activate(){
	//Referpg44 of WM8731 datasheet
	if(codec_config_reg(CODEC_DACPD_IDX, CODEC_DACPD_OFFST, CODEC_DACPD_MSK, 0x0))	return	I2C_NACK_DETECTED;

	//Refer pg26 of WM8731 datasheet
	if(codec_config_reg(CODEC_DAC_SEL_IDX, CODEC_DAC_SEL_OFFST, CODEC_DAC_SEL_MSK, 0x1))	return	I2C_NACK_DETECTED;
  8003e4:	1000031e 	bne	r2,zero,8003f4 <codec_dac_activate+0x54>

	if(codec_config_reg(CODEC_DAC_MU_IDX, CODEC_DAC_MU_OFFST, CODEC_DAC_MU_MSK, 0x0))	return	I2C_NACK_DETECTED;
  8003e8:	08002600 	call	800260 <codec_config_reg>
  8003ec:	1004c03a 	cmpne	r2,r2,zero
  8003f0:	00000106 	br	8003f8 <codec_dac_activate+0x58>
  8003f4:	00800044 	movi	r2,1

	return I2C_OK;
}
  8003f8:	dfc00017 	ldw	ra,0(sp)
  8003fc:	dec00104 	addi	sp,sp,4
  800400:	f800283a 	ret

00800404 <codec_dsp_if_inactivate>:
I2C_RES codec_dsp_if_activate(){
	return codec_config_reg(CODEC_ACTIVE_IDX, CODEC_ACTIVE_OFFST, CODEC_ACTIVE_MSK, 0x1);
}

I2C_RES codec_dsp_if_inactivate(){
	return codec_config_reg(CODEC_ACTIVE_IDX, CODEC_ACTIVE_OFFST, CODEC_ACTIVE_MSK, 0x0);
  800404:	01000244 	movi	r4,9
  800408:	000b883a 	mov	r5,zero
  80040c:	01800044 	movi	r6,1
  800410:	000f883a 	mov	r7,zero
  800414:	08002601 	jmpi	800260 <codec_config_reg>

00800418 <codec_dsp_if_activate>:

	return I2C_OK;
}

I2C_RES codec_dsp_if_activate(){
	return codec_config_reg(CODEC_ACTIVE_IDX, CODEC_ACTIVE_OFFST, CODEC_ACTIVE_MSK, 0x1);
  800418:	01800044 	movi	r6,1
  80041c:	01000244 	movi	r4,9
  800420:	000b883a 	mov	r5,zero
  800424:	300f883a 	mov	r7,r6
  800428:	08002601 	jmpi	800260 <codec_config_reg>

0080042c <codec_reset>:
	codec_shadow_reg[9]   = 0x1200;
	codec_shadow_reg[10]  = 0x1e00;
*/

	//All the below values are default values given in spec
	codec_shadow_reg[0]	  =	0x97;
  80042c:	00c020b4 	movhi	r3,130
  800430:	18f02d04 	addi	r3,r3,-16204
	codec_shadow_reg[5]   = 0xa08;
	codec_shadow_reg[6]   = 0xc9f;
	codec_shadow_reg[7]   = 0xe0a;
	codec_shadow_reg[8]   = 0x1000;
	codec_shadow_reg[9]   = 0x1200;
	codec_shadow_reg[10]  = 0x1e00;
  800434:	00878004 	movi	r2,7680
  800438:	1880050d 	sth	r2,20(r3)
	codec_shadow_reg[9]   = 0x1200;
	codec_shadow_reg[10]  = 0x1e00;
*/

	//All the below values are default values given in spec
	codec_shadow_reg[0]	  =	0x97;
  80043c:	008025c4 	movi	r2,151
  800440:	1880000d 	sth	r2,0(r3)
	codec_shadow_reg[1]   = 0x297;
  800444:	0080a5c4 	movi	r2,663
  800448:	1880008d 	sth	r2,2(r3)
	codec_shadow_reg[2]   = 0x479;
  80044c:	00811e44 	movi	r2,1145
  800450:	1880010d 	sth	r2,4(r3)
	codec_shadow_reg[3]   = 0x679;
  800454:	00819e44 	movi	r2,1657
  800458:	1880018d 	sth	r2,6(r3)
	codec_shadow_reg[4]   = 0x80a;
  80045c:	00820284 	movi	r2,2058
  800460:	1880020d 	sth	r2,8(r3)
	codec_shadow_reg[5]   = 0xa08;
  800464:	00828204 	movi	r2,2568
  800468:	1880028d 	sth	r2,10(r3)
	codec_shadow_reg[6]   = 0xc9f;
  80046c:	008327c4 	movi	r2,3231
  800470:	1880030d 	sth	r2,12(r3)
	codec_shadow_reg[7]   = 0xe0a;
  800474:	00838284 	movi	r2,3594
  800478:	1880038d 	sth	r2,14(r3)
	codec_shadow_reg[8]   = 0x1000;
  80047c:	00840004 	movi	r2,4096
  800480:	1880040d 	sth	r2,16(r3)
	codec_shadow_reg[9]   = 0x1200;
	codec_shadow_reg[10]  = 0x1e00;

	return	i2c_xtn_write16(CORTEX_MM_SL_BASE, CODEC_I2C_WRITE_ADDR, codec_shadow_reg[CODEC_RESET_IDX]);
  800484:	01004034 	movhi	r4,256
	codec_shadow_reg[4]   = 0x80a;
	codec_shadow_reg[5]   = 0xa08;
	codec_shadow_reg[6]   = 0xc9f;
	codec_shadow_reg[7]   = 0xe0a;
	codec_shadow_reg[8]   = 0x1000;
	codec_shadow_reg[9]   = 0x1200;
  800488:	00848004 	movi	r2,4608
	codec_shadow_reg[10]  = 0x1e00;

	return	i2c_xtn_write16(CORTEX_MM_SL_BASE, CODEC_I2C_WRITE_ADDR, codec_shadow_reg[CODEC_RESET_IDX]);
  80048c:	01400d04 	movi	r5,52
  800490:	01878004 	movi	r6,7680
	codec_shadow_reg[4]   = 0x80a;
	codec_shadow_reg[5]   = 0xa08;
	codec_shadow_reg[6]   = 0xc9f;
	codec_shadow_reg[7]   = 0xe0a;
	codec_shadow_reg[8]   = 0x1000;
	codec_shadow_reg[9]   = 0x1200;
  800494:	1880048d 	sth	r2,18(r3)
	codec_shadow_reg[10]  = 0x1e00;

	return	i2c_xtn_write16(CORTEX_MM_SL_BASE, CODEC_I2C_WRITE_ADDR, codec_shadow_reg[CODEC_RESET_IDX]);
  800498:	0800a081 	jmpi	800a08 <i2c_xtn_write16>

0080049c <codec_init>:
	codec_shadow_reg[idx]	|=	(alt_u16)((val & msk)	<<	offst);

	return	i2c_xtn_write16(CORTEX_MM_SL_BASE, CODEC_I2C_WRITE_ADDR, codec_shadow_reg[idx]);
}

I2C_RES codec_init(BPS_T bps, FS_T fs){
  80049c:	defffc04 	addi	sp,sp,-16
  8004a0:	dc800215 	stw	r18,8(sp)
  8004a4:	dc400115 	stw	r17,4(sp)
  8004a8:	dfc00315 	stw	ra,12(sp)
  8004ac:	dc000015 	stw	r16,0(sp)
  8004b0:	2023883a 	mov	r17,r4
  8004b4:	2825883a 	mov	r18,r5

	if(codec_reset())	return I2C_NACK_DETECTED;
  8004b8:	080042c0 	call	80042c <codec_reset>
  8004bc:	1000581e 	bne	r2,zero,800620 <codec_init+0x184>

	chThdSleepMilliseconds(100);
  8004c0:	01001904 	movi	r4,100
  8004c4:	08128680 	call	812868 <chThdSleep>

	//Read Power On Sequence spec

	codec_shadow_reg[CODEC_POWER_DOWN_REG_IDX]	=	0xc10;
  8004c8:	040020b4 	movhi	r16,130
  8004cc:	84302d04 	addi	r16,r16,-16204
  8004d0:	00830404 	movi	r2,3088
	if(i2c_xtn_write16(CORTEX_MM_SL_BASE, CODEC_I2C_WRITE_ADDR, codec_shadow_reg[CODEC_POWER_DOWN_REG_IDX]))	return I2C_NACK_DETECTED;
  8004d4:	01004034 	movhi	r4,256
  8004d8:	01400d04 	movi	r5,52
  8004dc:	01830404 	movi	r6,3088

	chThdSleepMilliseconds(100);

	//Read Power On Sequence spec

	codec_shadow_reg[CODEC_POWER_DOWN_REG_IDX]	=	0xc10;
  8004e0:	8080030d 	sth	r2,12(r16)
	if(i2c_xtn_write16(CORTEX_MM_SL_BASE, CODEC_I2C_WRITE_ADDR, codec_shadow_reg[CODEC_POWER_DOWN_REG_IDX]))	return I2C_NACK_DETECTED;
  8004e4:	0800a080 	call	800a08 <i2c_xtn_write16>
  8004e8:	10004d1e 	bne	r2,zero,800620 <codec_init+0x184>


	codec_shadow_reg[CODEC_LEFT_LINE_IN_REG_IDX]=	0x17;
  8004ec:	008005c4 	movi	r2,23
	if(i2c_xtn_write16(CORTEX_MM_SL_BASE, CODEC_I2C_WRITE_ADDR, codec_shadow_reg[CODEC_LEFT_LINE_IN_REG_IDX]))	return I2C_NACK_DETECTED;
  8004f0:	01004034 	movhi	r4,256
  8004f4:	01400d04 	movi	r5,52
  8004f8:	018005c4 	movi	r6,23

	codec_shadow_reg[CODEC_POWER_DOWN_REG_IDX]	=	0xc10;
	if(i2c_xtn_write16(CORTEX_MM_SL_BASE, CODEC_I2C_WRITE_ADDR, codec_shadow_reg[CODEC_POWER_DOWN_REG_IDX]))	return I2C_NACK_DETECTED;


	codec_shadow_reg[CODEC_LEFT_LINE_IN_REG_IDX]=	0x17;
  8004fc:	8080000d 	sth	r2,0(r16)
	if(i2c_xtn_write16(CORTEX_MM_SL_BASE, CODEC_I2C_WRITE_ADDR, codec_shadow_reg[CODEC_LEFT_LINE_IN_REG_IDX]))	return I2C_NACK_DETECTED;
  800500:	0800a080 	call	800a08 <i2c_xtn_write16>
  800504:	1000461e 	bne	r2,zero,800620 <codec_init+0x184>


	codec_shadow_reg[CODEC_RIGHT_LINE_IN_REG_IDX]=	0x217;
  800508:	008085c4 	movi	r2,535
	if(i2c_xtn_write16(CORTEX_MM_SL_BASE, CODEC_I2C_WRITE_ADDR, codec_shadow_reg[CODEC_RIGHT_LINE_IN_REG_IDX]))	return I2C_NACK_DETECTED;
  80050c:	01004034 	movhi	r4,256
  800510:	01400d04 	movi	r5,52
  800514:	018085c4 	movi	r6,535

	codec_shadow_reg[CODEC_LEFT_LINE_IN_REG_IDX]=	0x17;
	if(i2c_xtn_write16(CORTEX_MM_SL_BASE, CODEC_I2C_WRITE_ADDR, codec_shadow_reg[CODEC_LEFT_LINE_IN_REG_IDX]))	return I2C_NACK_DETECTED;


	codec_shadow_reg[CODEC_RIGHT_LINE_IN_REG_IDX]=	0x217;
  800518:	8080008d 	sth	r2,2(r16)
	if(i2c_xtn_write16(CORTEX_MM_SL_BASE, CODEC_I2C_WRITE_ADDR, codec_shadow_reg[CODEC_RIGHT_LINE_IN_REG_IDX]))	return I2C_NACK_DETECTED;
  80051c:	0800a080 	call	800a08 <i2c_xtn_write16>
  800520:	10003f1e 	bne	r2,zero,800620 <codec_init+0x184>


	codec_shadow_reg[CODEC_LEFT_HP_OUT_REG_IDX]=	0x4f9;
  800524:	00813e44 	movi	r2,1273
	if(i2c_xtn_write16(CORTEX_MM_SL_BASE, CODEC_I2C_WRITE_ADDR, codec_shadow_reg[CODEC_LEFT_HP_OUT_REG_IDX]))	return I2C_NACK_DETECTED;
  800528:	01004034 	movhi	r4,256
  80052c:	01400d04 	movi	r5,52
  800530:	01813e44 	movi	r6,1273

	codec_shadow_reg[CODEC_RIGHT_LINE_IN_REG_IDX]=	0x217;
	if(i2c_xtn_write16(CORTEX_MM_SL_BASE, CODEC_I2C_WRITE_ADDR, codec_shadow_reg[CODEC_RIGHT_LINE_IN_REG_IDX]))	return I2C_NACK_DETECTED;


	codec_shadow_reg[CODEC_LEFT_HP_OUT_REG_IDX]=	0x4f9;
  800534:	8080010d 	sth	r2,4(r16)
	if(i2c_xtn_write16(CORTEX_MM_SL_BASE, CODEC_I2C_WRITE_ADDR, codec_shadow_reg[CODEC_LEFT_HP_OUT_REG_IDX]))	return I2C_NACK_DETECTED;
  800538:	0800a080 	call	800a08 <i2c_xtn_write16>
  80053c:	1000381e 	bne	r2,zero,800620 <codec_init+0x184>


	codec_shadow_reg[CODEC_RIGHT_HP_OUT_REG_IDX]=	0x6f9;
  800540:	0081be44 	movi	r2,1785
	if(i2c_xtn_write16(CORTEX_MM_SL_BASE, CODEC_I2C_WRITE_ADDR, codec_shadow_reg[CODEC_RIGHT_HP_OUT_REG_IDX]))	return I2C_NACK_DETECTED;
  800544:	01004034 	movhi	r4,256
  800548:	01400d04 	movi	r5,52
  80054c:	0181be44 	movi	r6,1785

	codec_shadow_reg[CODEC_LEFT_HP_OUT_REG_IDX]=	0x4f9;
	if(i2c_xtn_write16(CORTEX_MM_SL_BASE, CODEC_I2C_WRITE_ADDR, codec_shadow_reg[CODEC_LEFT_HP_OUT_REG_IDX]))	return I2C_NACK_DETECTED;


	codec_shadow_reg[CODEC_RIGHT_HP_OUT_REG_IDX]=	0x6f9;
  800550:	8080018d 	sth	r2,6(r16)
	if(i2c_xtn_write16(CORTEX_MM_SL_BASE, CODEC_I2C_WRITE_ADDR, codec_shadow_reg[CODEC_RIGHT_HP_OUT_REG_IDX]))	return I2C_NACK_DETECTED;
  800554:	0800a080 	call	800a08 <i2c_xtn_write16>
  800558:	1000311e 	bne	r2,zero,800620 <codec_init+0x184>


	codec_shadow_reg[CODEC_DIGITAL_AUD_PATH_REG_IDX]=	0xa00;
  80055c:	00828004 	movi	r2,2560
	if(i2c_xtn_write16(CORTEX_MM_SL_BASE, CODEC_I2C_WRITE_ADDR, codec_shadow_reg[CODEC_DIGITAL_AUD_PATH_REG_IDX]))	return I2C_NACK_DETECTED;
  800560:	01004034 	movhi	r4,256
  800564:	01400d04 	movi	r5,52
  800568:	01828004 	movi	r6,2560

	codec_shadow_reg[CODEC_RIGHT_HP_OUT_REG_IDX]=	0x6f9;
	if(i2c_xtn_write16(CORTEX_MM_SL_BASE, CODEC_I2C_WRITE_ADDR, codec_shadow_reg[CODEC_RIGHT_HP_OUT_REG_IDX]))	return I2C_NACK_DETECTED;


	codec_shadow_reg[CODEC_DIGITAL_AUD_PATH_REG_IDX]=	0xa00;
  80056c:	8080028d 	sth	r2,10(r16)
	if(i2c_xtn_write16(CORTEX_MM_SL_BASE, CODEC_I2C_WRITE_ADDR, codec_shadow_reg[CODEC_DIGITAL_AUD_PATH_REG_IDX]))	return I2C_NACK_DETECTED;
  800570:	0800a080 	call	800a08 <i2c_xtn_write16>
  800574:	10002a1e 	bne	r2,zero,800620 <codec_init+0x184>


	codec_shadow_reg[CODEC_DIGITAL_AUD_IF_FMT_REG_IDX]=	0xe0f;
  800578:	008383c4 	movi	r2,3599
	if(i2c_xtn_write16(CORTEX_MM_SL_BASE, CODEC_I2C_WRITE_ADDR, codec_shadow_reg[CODEC_DIGITAL_AUD_IF_FMT_REG_IDX]))	return I2C_NACK_DETECTED;
  80057c:	01004034 	movhi	r4,256
  800580:	01400d04 	movi	r5,52
  800584:	018383c4 	movi	r6,3599

	codec_shadow_reg[CODEC_DIGITAL_AUD_PATH_REG_IDX]=	0xa00;
	if(i2c_xtn_write16(CORTEX_MM_SL_BASE, CODEC_I2C_WRITE_ADDR, codec_shadow_reg[CODEC_DIGITAL_AUD_PATH_REG_IDX]))	return I2C_NACK_DETECTED;


	codec_shadow_reg[CODEC_DIGITAL_AUD_IF_FMT_REG_IDX]=	0xe0f;
  800588:	8080038d 	sth	r2,14(r16)
	if(i2c_xtn_write16(CORTEX_MM_SL_BASE, CODEC_I2C_WRITE_ADDR, codec_shadow_reg[CODEC_DIGITAL_AUD_IF_FMT_REG_IDX]))	return I2C_NACK_DETECTED;
  80058c:	0800a080 	call	800a08 <i2c_xtn_write16>
  800590:	1000231e 	bne	r2,zero,800620 <codec_init+0x184>


	//Misc
	if(codec_iwl_update(bps2iwl_lookup[bps]))	return I2C_NACK_DETECTED;
  800594:	8c45883a 	add	r2,r17,r17
  800598:	1085883a 	add	r2,r2,r2
  80059c:	d0e00004 	addi	r3,gp,-32768
  8005a0:	10c5883a 	add	r2,r2,r3
  8005a4:	11000017 	ldw	r4,0(r2)
  8005a8:	08002b00 	call	8002b0 <codec_iwl_update>
  8005ac:	10001c1e 	bne	r2,zero,800620 <codec_init+0x184>

	if(codec_sr_update(fs2sr_lookup[fs]))	return I2C_NACK_DETECTED;
  8005b0:	9485883a 	add	r2,r18,r18
  8005b4:	1085883a 	add	r2,r2,r2
  8005b8:	00c02074 	movhi	r3,129
  8005bc:	18dd1904 	addi	r3,r3,29796
  8005c0:	10c5883a 	add	r2,r2,r3
  8005c4:	11000017 	ldw	r4,0(r2)
  8005c8:	08002c40 	call	8002c4 <codec_sr_update>
  8005cc:	1000141e 	bne	r2,zero,800620 <codec_init+0x184>


	codec_shadow_reg[CODEC_ACTIVE_CTRL_REG_IDX]=	0x1201;
  8005d0:	00848044 	movi	r2,4609
	if(i2c_xtn_write16(CORTEX_MM_SL_BASE, CODEC_I2C_WRITE_ADDR, codec_shadow_reg[CODEC_ACTIVE_CTRL_REG_IDX]))	return I2C_NACK_DETECTED;
  8005d4:	01004034 	movhi	r4,256
  8005d8:	01400d04 	movi	r5,52
  8005dc:	01848044 	movi	r6,4609
	if(codec_iwl_update(bps2iwl_lookup[bps]))	return I2C_NACK_DETECTED;

	if(codec_sr_update(fs2sr_lookup[fs]))	return I2C_NACK_DETECTED;


	codec_shadow_reg[CODEC_ACTIVE_CTRL_REG_IDX]=	0x1201;
  8005e0:	8080048d 	sth	r2,18(r16)
	if(i2c_xtn_write16(CORTEX_MM_SL_BASE, CODEC_I2C_WRITE_ADDR, codec_shadow_reg[CODEC_ACTIVE_CTRL_REG_IDX]))	return I2C_NACK_DETECTED;
  8005e4:	0800a080 	call	800a08 <i2c_xtn_write16>
  8005e8:	10000d1e 	bne	r2,zero,800620 <codec_init+0x184>


	codec_shadow_reg[CODEC_POWER_DOWN_REG_IDX]	=	0xc00;
  8005ec:	00830004 	movi	r2,3072
	if(i2c_xtn_write16(CORTEX_MM_SL_BASE, CODEC_I2C_WRITE_ADDR, codec_shadow_reg[CODEC_POWER_DOWN_REG_IDX]))	return I2C_NACK_DETECTED;
  8005f0:	01004034 	movhi	r4,256
  8005f4:	01400d04 	movi	r5,52
  8005f8:	01830004 	movi	r6,3072

	codec_shadow_reg[CODEC_ACTIVE_CTRL_REG_IDX]=	0x1201;
	if(i2c_xtn_write16(CORTEX_MM_SL_BASE, CODEC_I2C_WRITE_ADDR, codec_shadow_reg[CODEC_ACTIVE_CTRL_REG_IDX]))	return I2C_NACK_DETECTED;


	codec_shadow_reg[CODEC_POWER_DOWN_REG_IDX]	=	0xc00;
  8005fc:	8080030d 	sth	r2,12(r16)
	if(i2c_xtn_write16(CORTEX_MM_SL_BASE, CODEC_I2C_WRITE_ADDR, codec_shadow_reg[CODEC_POWER_DOWN_REG_IDX]))	return I2C_NACK_DETECTED;
  800600:	0800a080 	call	800a08 <i2c_xtn_write16>
  800604:	1000061e 	bne	r2,zero,800620 <codec_init+0x184>

	//Debug ...
	codec_dump_regs();
  800608:	08002000 	call	800200 <codec_dump_regs>

	alt_printf("[codec_init] Success\r\n");
  80060c:	01002074 	movhi	r4,129
  800610:	211d1304 	addi	r4,r4,29772
  800614:	08136300 	call	813630 <alt_printf>
  800618:	0005883a 	mov	r2,zero
  80061c:	00000106 	br	800624 <codec_init+0x188>

	return I2C_OK;
  800620:	00800044 	movi	r2,1
}
  800624:	dfc00317 	ldw	ra,12(sp)
  800628:	dc800217 	ldw	r18,8(sp)
  80062c:	dc400117 	ldw	r17,4(sp)
  800630:	dc000017 	ldw	r16,0(sp)
  800634:	dec00404 	addi	sp,sp,16
  800638:	f800283a 	ret

0080063c <acortex_aud_src_sel>:

    return;
}

void acortex_aud_src_sel(alt_u32 base,ACORTEX_AUDIO_SRC_SEL_VAL val){
	IOWR_ACORTEX_AUDIO_SRC_SEL_REG(base,val);
  80063c:	008000b4 	movhi	r2,2
  800640:	109c0004 	addi	r2,r2,28672
  800644:	2089883a 	add	r4,r4,r2
  800648:	21400035 	stwio	r5,0(r4)
}
  80064c:	f800283a 	ret

00800650 <reset_acortex>:
#include "ch.h"
#include "sys/alt_stdio.h"


void reset_acortex(alt_u32 base){
	IOWR_32DIRECT(base, ACORTEX_RESET_ADDR, 0x0);	//a write to this address resets the acortex
  800650:	008000f4 	movhi	r2,3
  800654:	10a00004 	addi	r2,r2,-32768
  800658:	2089883a 	add	r4,r4,r2
  80065c:	20000035 	stwio	zero,0(r4)

    chThdSleepMilliseconds(1);
  800660:	01000044 	movi	r4,1
  800664:	08128681 	jmpi	812868 <chThdSleep>

00800668 <acortex_init>:
		rcap_bffr[i]	+=	(IORD_ADC_RCAPTURE_DATA(base)	&	0xffff)	<<	16;	//Read MS 16b
	}

}

void acortex_init(alt_32 base, FS_T fs, BPS_T bps){
  800668:	defffc04 	addi	sp,sp,-16
  80066c:	dfc00315 	stw	ra,12(sp)
  800670:	dc800215 	stw	r18,8(sp)
  800674:	dc400115 	stw	r17,4(sp)
  800678:	2825883a 	mov	r18,r5
  80067c:	3023883a 	mov	r17,r6
  800680:	dc000015 	stw	r16,0(sp)
  800684:	2021883a 	mov	r16,r4
	reset_acortex(base);
  800688:	08006500 	call	800650 <reset_acortex>

	configure_i2c_clk(base, ACORTEX_I2C_CLK_DIV_VAL);
  80068c:	01401904 	movi	r5,100
  800690:	8009883a 	mov	r4,r16
  800694:	08009f00 	call	8009f0 <configure_i2c_clk>

	configure_dac_drvr_bps(base,bps);
  800698:	8009883a 	mov	r4,r16
  80069c:	880b883a 	mov	r5,r17
  8006a0:	08008dc0 	call	8008dc <configure_dac_drvr_bps>

	update_fs_div(base,fs);
  8006a4:	8009883a 	mov	r4,r16
  8006a8:	900b883a 	mov	r5,r18
  8006ac:	08008280 	call	800828 <update_fs_div>

	update_mclk(base,fs);
  8006b0:	8009883a 	mov	r4,r16
  8006b4:	900b883a 	mov	r5,r18
  8006b8:	08008840 	call	800884 <update_mclk>


	alt_printf("ACORTEX Init done\r\n");
  8006bc:	01002074 	movhi	r4,129
  8006c0:	211d1f04 	addi	r4,r4,29820

	return;
}
  8006c4:	dfc00317 	ldw	ra,12(sp)
  8006c8:	dc800217 	ldw	r18,8(sp)
  8006cc:	dc400117 	ldw	r17,4(sp)
  8006d0:	dc000017 	ldw	r16,0(sp)
  8006d4:	dec00404 	addi	sp,sp,16
	update_fs_div(base,fs);

	update_mclk(base,fs);


	alt_printf("ACORTEX Init done\r\n");
  8006d8:	08136301 	jmpi	813630 <alt_printf>

008006dc <adc_cap>:

void acortex_aud_src_sel(alt_u32 base,ACORTEX_AUDIO_SRC_SEL_VAL val){
	IOWR_ACORTEX_AUDIO_SRC_SEL_REG(base,val);
}

void adc_cap(alt_u32 base, alt_u32 * lcap_bffr, alt_u32 * rcap_bffr){
  8006dc:	defffb04 	addi	sp,sp,-20
	alt_u8 i,cap_addr;

	IOWR_ADC_START_CAPTURE_REG(base, ADC_START_CAPTURE_EN_MSK);	//trigger ADC capture
  8006e0:	008000b4 	movhi	r2,2
  8006e4:	10980004 	addi	r2,r2,24576

void acortex_aud_src_sel(alt_u32 base,ACORTEX_AUDIO_SRC_SEL_VAL val){
	IOWR_ACORTEX_AUDIO_SRC_SEL_REG(base,val);
}

void adc_cap(alt_u32 base, alt_u32 * lcap_bffr, alt_u32 * rcap_bffr){
  8006e8:	dcc00315 	stw	r19,12(sp)
  8006ec:	dc800215 	stw	r18,8(sp)
  8006f0:	dc400115 	stw	r17,4(sp)
  8006f4:	dc000015 	stw	r16,0(sp)
  8006f8:	2023883a 	mov	r17,r4
	alt_u8 i,cap_addr;

	IOWR_ADC_START_CAPTURE_REG(base, ADC_START_CAPTURE_EN_MSK);	//trigger ADC capture
  8006fc:	20a1883a 	add	r16,r4,r2

void acortex_aud_src_sel(alt_u32 base,ACORTEX_AUDIO_SRC_SEL_VAL val){
	IOWR_ACORTEX_AUDIO_SRC_SEL_REG(base,val);
}

void adc_cap(alt_u32 base, alt_u32 * lcap_bffr, alt_u32 * rcap_bffr){
  800700:	2825883a 	mov	r18,r5
  800704:	3027883a 	mov	r19,r6
	alt_u8 i,cap_addr;

	IOWR_ADC_START_CAPTURE_REG(base, ADC_START_CAPTURE_EN_MSK);	//trigger ADC capture
  800708:	00800044 	movi	r2,1

void acortex_aud_src_sel(alt_u32 base,ACORTEX_AUDIO_SRC_SEL_VAL val){
	IOWR_ACORTEX_AUDIO_SRC_SEL_REG(base,val);
}

void adc_cap(alt_u32 base, alt_u32 * lcap_bffr, alt_u32 * rcap_bffr){
  80070c:	dfc00415 	stw	ra,16(sp)
	alt_u8 i,cap_addr;

	IOWR_ADC_START_CAPTURE_REG(base, ADC_START_CAPTURE_EN_MSK);	//trigger ADC capture
  800710:	80800035 	stwio	r2,0(r16)
  800714:	00000306 	br	800724 <adc_cap+0x48>

	while(IORD_ADC_START_CAPTURE_REG(base)	&	ADC_CAPTURE_BUSY_MSK){	//wait for capture to complete
	    alt_printf("[adc_cap] capture busy\n");
  800718:	08136300 	call	813630 <alt_printf>
		chThdSleepMilliseconds(1);
  80071c:	01000044 	movi	r4,1
  800720:	08128680 	call	812868 <chThdSleep>
void adc_cap(alt_u32 base, alt_u32 * lcap_bffr, alt_u32 * rcap_bffr){
	alt_u8 i,cap_addr;

	IOWR_ADC_START_CAPTURE_REG(base, ADC_START_CAPTURE_EN_MSK);	//trigger ADC capture

	while(IORD_ADC_START_CAPTURE_REG(base)	&	ADC_CAPTURE_BUSY_MSK){	//wait for capture to complete
  800724:	80800037 	ldwio	r2,0(r16)
	    alt_printf("[adc_cap] capture busy\n");
  800728:	01002074 	movhi	r4,129
  80072c:	211d2404 	addi	r4,r4,29840
void adc_cap(alt_u32 base, alt_u32 * lcap_bffr, alt_u32 * rcap_bffr){
	alt_u8 i,cap_addr;

	IOWR_ADC_START_CAPTURE_REG(base, ADC_START_CAPTURE_EN_MSK);	//trigger ADC capture

	while(IORD_ADC_START_CAPTURE_REG(base)	&	ADC_CAPTURE_BUSY_MSK){	//wait for capture to complete
  800730:	1080004c 	andi	r2,r2,1
  800734:	103ff81e 	bne	r2,zero,800718 <adc_cap+0x3c>
	    alt_printf("[adc_cap] capture busy\n");
		chThdSleepMilliseconds(1);
	}

    alt_printf("[adc_cap] capture completed\n");
  800738:	01002074 	movhi	r4,129
  80073c:	211d2a04 	addi	r4,r4,29864
  800740:	08136300 	call	813630 <alt_printf>
  800744:	008000b4 	movhi	r2,2
  800748:	10900004 	addi	r2,r2,16384
  80074c:	888b883a 	add	r5,r17,r2
  800750:	000d883a 	mov	r6,zero
  800754:	01c02004 	movi	r7,128

	for(i=0; i<ACORTEX_ADC_CAP_DEPTH; i++){
		cap_addr	=	i << 1;
  800758:	3189883a 	add	r4,r6,r6

		IOWR_ADC_LCAPTURE_DATA(base, cap_addr);	//point to LS 16b
  80075c:	20803fcc 	andi	r2,r4,255
  800760:	28800035 	stwio	r2,0(r5)

		lcap_bffr[i]	=	IORD_ADC_LCAPTURE_DATA(base)	&	0xffff;	//Read LS 16b
  800764:	30c03fcc 	andi	r3,r6,255
  800768:	18c7883a 	add	r3,r3,r3
  80076c:	18c7883a 	add	r3,r3,r3
  800770:	90c7883a 	add	r3,r18,r3
  800774:	28800037 	ldwio	r2,0(r5)

		cap_addr++;

		IOWR_ADC_LCAPTURE_DATA(base, cap_addr);	//point to MS 16b
  800778:	21000044 	addi	r4,r4,1
	for(i=0; i<ACORTEX_ADC_CAP_DEPTH; i++){
		cap_addr	=	i << 1;

		IOWR_ADC_LCAPTURE_DATA(base, cap_addr);	//point to LS 16b

		lcap_bffr[i]	=	IORD_ADC_LCAPTURE_DATA(base)	&	0xffff;	//Read LS 16b
  80077c:	10bfffcc 	andi	r2,r2,65535

		cap_addr++;

		IOWR_ADC_LCAPTURE_DATA(base, cap_addr);	//point to MS 16b
  800780:	21003fcc 	andi	r4,r4,255
	for(i=0; i<ACORTEX_ADC_CAP_DEPTH; i++){
		cap_addr	=	i << 1;

		IOWR_ADC_LCAPTURE_DATA(base, cap_addr);	//point to LS 16b

		lcap_bffr[i]	=	IORD_ADC_LCAPTURE_DATA(base)	&	0xffff;	//Read LS 16b
  800784:	18800015 	stw	r2,0(r3)

		cap_addr++;

		IOWR_ADC_LCAPTURE_DATA(base, cap_addr);	//point to MS 16b
  800788:	29000035 	stwio	r4,0(r5)

		lcap_bffr[i]	+=	(IORD_ADC_LCAPTURE_DATA(base)	&	0xffff)	<<	16;	//Read MS 16b
  80078c:	19000017 	ldw	r4,0(r3)
  800790:	28800037 	ldwio	r2,0(r5)
  800794:	1004943a 	slli	r2,r2,16
  800798:	31800044 	addi	r6,r6,1
  80079c:	2089883a 	add	r4,r4,r2
  8007a0:	19000015 	stw	r4,0(r3)
		chThdSleepMilliseconds(1);
	}

    alt_printf("[adc_cap] capture completed\n");

	for(i=0; i<ACORTEX_ADC_CAP_DEPTH; i++){
  8007a4:	31ffec1e 	bne	r6,r7,800758 <adc_cap+0x7c>
  8007a8:	008000b4 	movhi	r2,2
  8007ac:	10940004 	addi	r2,r2,20480
  8007b0:	888b883a 	add	r5,r17,r2
  8007b4:	000d883a 	mov	r6,zero
  8007b8:	01c02004 	movi	r7,128

		lcap_bffr[i]	+=	(IORD_ADC_LCAPTURE_DATA(base)	&	0xffff)	<<	16;	//Read MS 16b
	}

	for(i=0; i<ACORTEX_ADC_CAP_DEPTH; i++){
		cap_addr	=	i << 1;
  8007bc:	3189883a 	add	r4,r6,r6

		IOWR_ADC_RCAPTURE_DATA(base, cap_addr);	//point to LS 16b
  8007c0:	20803fcc 	andi	r2,r4,255
  8007c4:	28800035 	stwio	r2,0(r5)

		rcap_bffr[i]	=	IORD_ADC_RCAPTURE_DATA(base)	&	0xffff;	//Read LS 16b
  8007c8:	30c03fcc 	andi	r3,r6,255
  8007cc:	18c7883a 	add	r3,r3,r3
  8007d0:	18c7883a 	add	r3,r3,r3
  8007d4:	98c7883a 	add	r3,r19,r3
  8007d8:	28800037 	ldwio	r2,0(r5)

		cap_addr++;

		IOWR_ADC_RCAPTURE_DATA(base, cap_addr);	//point to MS 16b
  8007dc:	21000044 	addi	r4,r4,1
	for(i=0; i<ACORTEX_ADC_CAP_DEPTH; i++){
		cap_addr	=	i << 1;

		IOWR_ADC_RCAPTURE_DATA(base, cap_addr);	//point to LS 16b

		rcap_bffr[i]	=	IORD_ADC_RCAPTURE_DATA(base)	&	0xffff;	//Read LS 16b
  8007e0:	10bfffcc 	andi	r2,r2,65535

		cap_addr++;

		IOWR_ADC_RCAPTURE_DATA(base, cap_addr);	//point to MS 16b
  8007e4:	21003fcc 	andi	r4,r4,255
	for(i=0; i<ACORTEX_ADC_CAP_DEPTH; i++){
		cap_addr	=	i << 1;

		IOWR_ADC_RCAPTURE_DATA(base, cap_addr);	//point to LS 16b

		rcap_bffr[i]	=	IORD_ADC_RCAPTURE_DATA(base)	&	0xffff;	//Read LS 16b
  8007e8:	18800015 	stw	r2,0(r3)

		cap_addr++;

		IOWR_ADC_RCAPTURE_DATA(base, cap_addr);	//point to MS 16b
  8007ec:	29000035 	stwio	r4,0(r5)

		rcap_bffr[i]	+=	(IORD_ADC_RCAPTURE_DATA(base)	&	0xffff)	<<	16;	//Read MS 16b
  8007f0:	19000017 	ldw	r4,0(r3)
  8007f4:	28800037 	ldwio	r2,0(r5)
  8007f8:	1004943a 	slli	r2,r2,16
  8007fc:	31800044 	addi	r6,r6,1
  800800:	2089883a 	add	r4,r4,r2
  800804:	19000015 	stw	r4,0(r3)
		IOWR_ADC_LCAPTURE_DATA(base, cap_addr);	//point to MS 16b

		lcap_bffr[i]	+=	(IORD_ADC_LCAPTURE_DATA(base)	&	0xffff)	<<	16;	//Read MS 16b
	}

	for(i=0; i<ACORTEX_ADC_CAP_DEPTH; i++){
  800808:	31ffec1e 	bne	r6,r7,8007bc <adc_cap+0xe0>
		IOWR_ADC_RCAPTURE_DATA(base, cap_addr);	//point to MS 16b

		rcap_bffr[i]	+=	(IORD_ADC_RCAPTURE_DATA(base)	&	0xffff)	<<	16;	//Read MS 16b
	}

}
  80080c:	dfc00417 	ldw	ra,16(sp)
  800810:	dcc00317 	ldw	r19,12(sp)
  800814:	dc800217 	ldw	r18,8(sp)
  800818:	dc400117 	ldw	r17,4(sp)
  80081c:	dc000017 	ldw	r16,0(sp)
  800820:	dec00504 	addi	sp,sp,20
  800824:	f800283a 	ret

00800828 <update_fs_div>:

	enable_mclk(base);
}

void update_fs_div(alt_u32 base, FS_T val){
	IOWR_DAC_DRVR_FS_DIV(base, fs2div_lookup[val]);
  800828:	294b883a 	add	r5,r5,r5
  80082c:	00802074 	movhi	r2,129
  800830:	109d3204 	addi	r2,r2,29896
  800834:	294b883a 	add	r5,r5,r5
  800838:	288b883a 	add	r5,r5,r2
  80083c:	28c00017 	ldw	r3,0(r5)
  800840:	008000b4 	movhi	r2,2
  800844:	108c0804 	addi	r2,r2,12320
  800848:	2089883a 	add	r4,r4,r2
  80084c:	20c00035 	stwio	r3,0(r4)
}
  800850:	f800283a 	ret

00800854 <disable_mclk>:
	//alt_printf("[enable_mclk] Reg post - 0x%x\n",IORD_DAC_DRVR_MCLK_SEL(base));

}

void disable_mclk(alt_u32 base){
	IOWR_DAC_DRVR_MCLK_SEL(base, 0x0);
  800854:	008000b4 	movhi	r2,2
  800858:	108c0c04 	addi	r2,r2,12336
  80085c:	2089883a 	add	r4,r4,r2
  800860:	20000035 	stwio	zero,0(r4)

	//alt_printf("[disable_mclk] Reg - 0x%x\n",IORD_DAC_DRVR_MCLK_SEL(base));

}
  800864:	f800283a 	ret

00800868 <enable_mclk>:
}

void enable_mclk(alt_u32 base){
	//alt_printf("[enable_mclk] Reg pre - 0x%x\n",IORD_DAC_DRVR_MCLK_SEL(base));

	IOWR_DAC_DRVR_MCLK_SEL(base, IORD_DAC_DRVR_MCLK_SEL(base)	|	DAC_DRVR_MCLK_EN_MSK);
  800868:	008000b4 	movhi	r2,2
  80086c:	108c0c04 	addi	r2,r2,12336
  800870:	2089883a 	add	r4,r4,r2
  800874:	20800037 	ldwio	r2,0(r4)
  800878:	10a00014 	ori	r2,r2,32768
  80087c:	20800035 	stwio	r2,0(r4)

	//alt_printf("[enable_mclk] Reg post - 0x%x\n",IORD_DAC_DRVR_MCLK_SEL(base));

}
  800880:	f800283a 	ret

00800884 <update_mclk>:

	//alt_printf("[disable_mclk] Reg - 0x%x\n",IORD_DAC_DRVR_MCLK_SEL(base));

}

void update_mclk(alt_u32 base, FS_T val){
  800884:	defffd04 	addi	sp,sp,-12
  800888:	dc000115 	stw	r16,4(sp)
	disable_mclk(base);
  80088c:	d9400015 	stw	r5,0(sp)

	//alt_printf("[disable_mclk] Reg - 0x%x\n",IORD_DAC_DRVR_MCLK_SEL(base));

}

void update_mclk(alt_u32 base, FS_T val){
  800890:	2021883a 	mov	r16,r4
  800894:	dfc00215 	stw	ra,8(sp)
	disable_mclk(base);
  800898:	08008540 	call	800854 <disable_mclk>

	IOWR_DAC_DRVR_MCLK_SEL(base, fs2mclk_lookup[val]);
  80089c:	d9400017 	ldw	r5,0(sp)
  8008a0:	00802074 	movhi	r2,129
  8008a4:	109d3804 	addi	r2,r2,29920
  8008a8:	294b883a 	add	r5,r5,r5
  8008ac:	294b883a 	add	r5,r5,r5
  8008b0:	288b883a 	add	r5,r5,r2
  8008b4:	28c00017 	ldw	r3,0(r5)
  8008b8:	008000b4 	movhi	r2,2
  8008bc:	108c0c04 	addi	r2,r2,12336
  8008c0:	8085883a 	add	r2,r16,r2
  8008c4:	10c00035 	stwio	r3,0(r2)

	enable_mclk(base);
  8008c8:	8009883a 	mov	r4,r16
}
  8008cc:	dfc00217 	ldw	ra,8(sp)
  8008d0:	dc000117 	ldw	r16,4(sp)
  8008d4:	dec00304 	addi	sp,sp,12
void update_mclk(alt_u32 base, FS_T val){
	disable_mclk(base);

	IOWR_DAC_DRVR_MCLK_SEL(base, fs2mclk_lookup[val]);

	enable_mclk(base);
  8008d8:	08008681 	jmpi	800868 <enable_mclk>

008008dc <configure_dac_drvr_bps>:
	IOWR_DAC_DRVR_CTRL(base, IORD_DAC_DRVR_CTRL(base) |	ADC_DRVR_EN_MSK);
}

void configure_dac_drvr_bps(alt_u32 base, BPS_T val){
	if(val){	//32bps
		IOWR_DAC_DRVR_CTRL(base, IORD_DAC_DRVR_CTRL(base) |	DAC_DRVR_BPS_MSK);
  8008dc:	008000b4 	movhi	r2,2
  8008e0:	108c0004 	addi	r2,r2,12288
  8008e4:	2087883a 	add	r3,r4,r2
	}
	else{		//16bps
		IOWR_DAC_DRVR_CTRL(base, IORD_DAC_DRVR_CTRL(base) &	~DAC_DRVR_BPS_MSK);
  8008e8:	1809883a 	mov	r4,r3
void enable_adc_drvr(alt_u32 base){
	IOWR_DAC_DRVR_CTRL(base, IORD_DAC_DRVR_CTRL(base) |	ADC_DRVR_EN_MSK);
}

void configure_dac_drvr_bps(alt_u32 base, BPS_T val){
	if(val){	//32bps
  8008ec:	28000426 	beq	r5,zero,800900 <configure_dac_drvr_bps+0x24>
		IOWR_DAC_DRVR_CTRL(base, IORD_DAC_DRVR_CTRL(base) |	DAC_DRVR_BPS_MSK);
  8008f0:	18800037 	ldwio	r2,0(r3)
  8008f4:	10800114 	ori	r2,r2,4
  8008f8:	18800035 	stwio	r2,0(r3)
  8008fc:	f800283a 	ret
	}
	else{		//16bps
		IOWR_DAC_DRVR_CTRL(base, IORD_DAC_DRVR_CTRL(base) &	~DAC_DRVR_BPS_MSK);
  800900:	18800037 	ldwio	r2,0(r3)
  800904:	00fffec4 	movi	r3,-5
  800908:	10c4703a 	and	r2,r2,r3
  80090c:	20800035 	stwio	r2,0(r4)
  800910:	f800283a 	ret

00800914 <enable_adc_drvr>:
void disable_adc_drvr(alt_u32 base){
	IOWR_DAC_DRVR_CTRL(base, IORD_DAC_DRVR_CTRL(base) & ~ADC_DRVR_EN_MSK);
}

void enable_adc_drvr(alt_u32 base){
	IOWR_DAC_DRVR_CTRL(base, IORD_DAC_DRVR_CTRL(base) |	ADC_DRVR_EN_MSK);
  800914:	008000b4 	movhi	r2,2
  800918:	108c0004 	addi	r2,r2,12288
  80091c:	2089883a 	add	r4,r4,r2
  800920:	20800037 	ldwio	r2,0(r4)
  800924:	10800094 	ori	r2,r2,2
  800928:	20800035 	stwio	r2,0(r4)
}
  80092c:	f800283a 	ret

00800930 <disable_adc_drvr>:
void enable_dac_drvr(alt_u32 base){
	IOWR_DAC_DRVR_CTRL(base, IORD_DAC_DRVR_CTRL(base) |	DAC_DRVR_EN_MSK);
}

void disable_adc_drvr(alt_u32 base){
	IOWR_DAC_DRVR_CTRL(base, IORD_DAC_DRVR_CTRL(base) & ~ADC_DRVR_EN_MSK);
  800930:	008000b4 	movhi	r2,2
  800934:	108c0004 	addi	r2,r2,12288
  800938:	2089883a 	add	r4,r4,r2
  80093c:	20800037 	ldwio	r2,0(r4)
  800940:	00ffff44 	movi	r3,-3
  800944:	10c4703a 	and	r2,r2,r3
  800948:	20800035 	stwio	r2,0(r4)
}
  80094c:	f800283a 	ret

00800950 <enable_dac_drvr>:
void disable_dac_drvr(alt_u32 base){
	IOWR_DAC_DRVR_CTRL(base, IORD_DAC_DRVR_CTRL(base) & ~DAC_DRVR_EN_MSK);
}

void enable_dac_drvr(alt_u32 base){
	IOWR_DAC_DRVR_CTRL(base, IORD_DAC_DRVR_CTRL(base) |	DAC_DRVR_EN_MSK);
  800950:	008000b4 	movhi	r2,2
  800954:	108c0004 	addi	r2,r2,12288
  800958:	2089883a 	add	r4,r4,r2
  80095c:	20800037 	ldwio	r2,0(r4)
  800960:	10800054 	ori	r2,r2,1
  800964:	20800035 	stwio	r2,0(r4)
}
  800968:	f800283a 	ret

0080096c <disable_dac_drvr>:
#include "alt_types.h"
#include "sys/alt_stdio.h"


void disable_dac_drvr(alt_u32 base){
	IOWR_DAC_DRVR_CTRL(base, IORD_DAC_DRVR_CTRL(base) & ~DAC_DRVR_EN_MSK);
  80096c:	008000b4 	movhi	r2,2
  800970:	108c0004 	addi	r2,r2,12288
  800974:	2089883a 	add	r4,r4,r2
  800978:	20800037 	ldwio	r2,0(r4)
  80097c:	00ffff84 	movi	r3,-2
  800980:	10c4703a 	and	r2,r2,r3
  800984:	20800035 	stwio	r2,0(r4)
}
  800988:	f800283a 	ret

0080098c <get_i2c_clk>:
	return;
}


alt_u8 	get_i2c_clk(alt_u32 base){
	return IORD_I2C_CLK_DIV(base);
  80098c:	008000b4 	movhi	r2,2
  800990:	10800c04 	addi	r2,r2,48
  800994:	2089883a 	add	r4,r4,r2
  800998:	20800037 	ldwio	r2,0(r4)
}
  80099c:	10803fcc 	andi	r2,r2,255
  8009a0:	f800283a 	ret

008009a4 <is_busy>:
	return I2C_IDLE;
}


I2C_RES	is_busy(alt_u32 base){
	alt_u16	reg	=	IORD_I2C_STATUS(base);
  8009a4:	008000b4 	movhi	r2,2
  8009a8:	2089883a 	add	r4,r4,r2
  8009ac:	20800037 	ldwio	r2,0(r4)

	if(reg	&	I2C_DRIVER_STATUS_BUSY_MSK){
  8009b0:	0084303a 	nor	r2,zero,r2
  8009b4:	1080004c 	andi	r2,r2,1
		return I2C_BUSY;
	}

	return I2C_IDLE;

}
  8009b8:	10800084 	addi	r2,r2,2
  8009bc:	f800283a 	ret

008009c0 <get_i2c_status>:
#include "ch.h"
#include "sys/alt_stdio.h"


I2C_RES	get_i2c_status(alt_u32 base){
	alt_u16	reg	=	IORD_I2C_STATUS(base);
  8009c0:	008000b4 	movhi	r2,2
  8009c4:	2089883a 	add	r4,r4,r2
  8009c8:	20800037 	ldwio	r2,0(r4)

	if(reg	&	I2C_DRIVER_STATUS_NACK_MSK){
  8009cc:	00c00044 	movi	r3,1
  8009d0:	10bfffcc 	andi	r2,r2,65535
		return I2C_NACK_DETECTED;
	}
	else if(reg	&	I2C_DRIVER_STATUS_BUSY_MSK){
  8009d4:	0088303a 	nor	r4,zero,r2


I2C_RES	get_i2c_status(alt_u32 base){
	alt_u16	reg	=	IORD_I2C_STATUS(base);

	if(reg	&	I2C_DRIVER_STATUS_NACK_MSK){
  8009d8:	1080008c 	andi	r2,r2,2
  8009dc:	1000021e 	bne	r2,zero,8009e8 <get_i2c_status+0x28>
		return I2C_NACK_DETECTED;
	}
	else if(reg	&	I2C_DRIVER_STATUS_BUSY_MSK){
  8009e0:	20c0004c 	andi	r3,r4,1
  8009e4:	18c00084 	addi	r3,r3,2
		return I2C_BUSY;
	}

	return I2C_IDLE;
}
  8009e8:	1805883a 	mov	r2,r3
  8009ec:	f800283a 	ret

008009f0 <configure_i2c_clk>:
	return I2C_OK;
}


void configure_i2c_clk(alt_u32 base, alt_u8 clk_val){
	IOWR_I2C_CLK_DIV(base, clk_val);
  8009f0:	008000b4 	movhi	r2,2
  8009f4:	10800c04 	addi	r2,r2,48
  8009f8:	2089883a 	add	r4,r4,r2
  8009fc:	29403fcc 	andi	r5,r5,255
  800a00:	21400035 	stwio	r5,0(r4)

	return;
}
  800a04:	f800283a 	ret

00800a08 <i2c_xtn_write16>:
	return I2C_IDLE;

}


I2C_RES	i2c_xtn_write16(alt_u32 base, alt_u8 addr, alt_u16 data){
  800a08:	defffb04 	addi	sp,sp,-20
  800a0c:	dcc00315 	stw	r19,12(sp)
  800a10:	dc800215 	stw	r18,8(sp)
  800a14:	dc400115 	stw	r17,4(sp)
  800a18:	2827883a 	mov	r19,r5
  800a1c:	2023883a 	mov	r17,r4
  800a20:	3025883a 	mov	r18,r6
  800a24:	dfc00415 	stw	ra,16(sp)
  800a28:	dc000015 	stw	r16,0(sp)
  800a2c:	00000106 	br	800a34 <i2c_xtn_write16+0x2c>

	while(IORD_I2C_STATUS(base) & I2C_DRIVER_STATUS_BUSY_MSK){
		//alt_printf("Waiting for I2C driver to be free\n");
	    chThdSleepMilliseconds(1);	//wait for I2C driver to be free
  800a30:	08128680 	call	812868 <chThdSleep>
}


I2C_RES	i2c_xtn_write16(alt_u32 base, alt_u8 addr, alt_u16 data){

	while(IORD_I2C_STATUS(base) & I2C_DRIVER_STATUS_BUSY_MSK){
  800a34:	008000b4 	movhi	r2,2
  800a38:	88a1883a 	add	r16,r17,r2
  800a3c:	80800037 	ldwio	r2,0(r16)
		//alt_printf("Waiting for I2C driver to be free\n");
	    chThdSleepMilliseconds(1);	//wait for I2C driver to be free
  800a40:	01000044 	movi	r4,1
}


I2C_RES	i2c_xtn_write16(alt_u32 base, alt_u8 addr, alt_u16 data){

	while(IORD_I2C_STATUS(base) & I2C_DRIVER_STATUS_BUSY_MSK){
  800a44:	1104703a 	and	r2,r2,r4
  800a48:	103ff91e 	bne	r2,zero,800a30 <i2c_xtn_write16+0x28>
	    chThdSleepMilliseconds(1);	//wait for I2C driver to be free
	}
	//alt_printf("I2C driver is free\n");


	IOWR_I2C_DATA(base, data);
  800a4c:	008000b4 	movhi	r2,2
  800a50:	10800804 	addi	r2,r2,32
  800a54:	8885883a 	add	r2,r17,r2
  800a58:	90ffffcc 	andi	r3,r18,65535
  800a5c:	10c00035 	stwio	r3,0(r2)
	IOWR_I2C_ADDR(base, addr	&	0xfe);	//forcing bit[0] to ground for write op
  800a60:	008000b4 	movhi	r2,2
  800a64:	10800404 	addi	r2,r2,16
  800a68:	8885883a 	add	r2,r17,r2
  800a6c:	98c03f8c 	andi	r3,r19,254
  800a70:	10c00035 	stwio	r3,0(r2)

	IOWR_I2C_STATUS(base, 0x0);	//writing to Status register triggers I2C xtn
  800a74:	80000035 	stwio	zero,0(r16)
  800a78:	00000106 	br	800a80 <i2c_xtn_write16+0x78>

	while(IORD_I2C_STATUS(base) & I2C_DRIVER_STATUS_BUSY_MSK){
		//alt_printf("Waiting for I2C driver to be free\n");

		chThdSleepMilliseconds(1);	//wait for I2C driver to be free
  800a7c:	08128680 	call	812868 <chThdSleep>
	IOWR_I2C_DATA(base, data);
	IOWR_I2C_ADDR(base, addr	&	0xfe);	//forcing bit[0] to ground for write op

	IOWR_I2C_STATUS(base, 0x0);	//writing to Status register triggers I2C xtn

	while(IORD_I2C_STATUS(base) & I2C_DRIVER_STATUS_BUSY_MSK){
  800a80:	80800037 	ldwio	r2,0(r16)
		//alt_printf("Waiting for I2C driver to be free\n");

		chThdSleepMilliseconds(1);	//wait for I2C driver to be free
  800a84:	01000044 	movi	r4,1
	IOWR_I2C_DATA(base, data);
	IOWR_I2C_ADDR(base, addr	&	0xfe);	//forcing bit[0] to ground for write op

	IOWR_I2C_STATUS(base, 0x0);	//writing to Status register triggers I2C xtn

	while(IORD_I2C_STATUS(base) & I2C_DRIVER_STATUS_BUSY_MSK){
  800a88:	1104703a 	and	r2,r2,r4
  800a8c:	103ffb1e 	bne	r2,zero,800a7c <i2c_xtn_write16+0x74>

	//alt_printf("I2C driver is free\n");
	//alt_printf("I2C status 0x%x\n",IORD_I2C_STATUS(base));


	if(IORD_I2C_STATUS(base)	&	I2C_DRIVER_STATUS_NACK_MSK){
  800a90:	80800037 	ldwio	r2,0(r16)
  800a94:	1104d83a 	srl	r2,r2,r4

		return I2C_NACK_DETECTED;
	}

	return I2C_OK;
}
  800a98:	1104703a 	and	r2,r2,r4
  800a9c:	dfc00417 	ldw	ra,16(sp)
  800aa0:	dcc00317 	ldw	r19,12(sp)
  800aa4:	dc800217 	ldw	r18,8(sp)
  800aa8:	dc400117 	ldw	r17,4(sp)
  800aac:	dc000017 	ldw	r16,0(sp)
  800ab0:	dec00504 	addi	sp,sp,20
  800ab4:	f800283a 	ret

00800ab8 <prsr_get_bytes_read>:

	return;
}

alt_u32	prsr_get_bytes_read(alt_u32 base){
	return	(alt_u32)(((IORD_PRSR_BYTES_READ_H(base) & 0xffff) << 16) + (IORD_PRSR_BYTES_READ_L(base) & 0xffff));
  800ab8:	008000b4 	movhi	r2,2
  800abc:	10880804 	addi	r2,r2,8224
  800ac0:	2085883a 	add	r2,r4,r2
  800ac4:	10c00037 	ldwio	r3,0(r2)
  800ac8:	008000b4 	movhi	r2,2
  800acc:	10880c04 	addi	r2,r2,8240
  800ad0:	2089883a 	add	r4,r4,r2
  800ad4:	20800037 	ldwio	r2,0(r4)
  800ad8:	1806943a 	slli	r3,r3,16
  800adc:	10bfffcc 	andi	r2,r2,65535
}
  800ae0:	1885883a 	add	r2,r3,r2
  800ae4:	f800283a 	ret

00800ae8 <prsr_hdr_ram_read16>:
	IOWR_PRSR_CTRL(base, 0x0);
	return;
}

alt_u16 prsr_hdr_ram_read16(alt_u32 base, alt_u8 addr){
	IOWR_PRSR_HDR_RAM_RD_ADDR(base, addr);
  800ae8:	008000b4 	movhi	r2,2
  800aec:	10881004 	addi	r2,r2,8256
  800af0:	2085883a 	add	r2,r4,r2
  800af4:	29403fcc 	andi	r5,r5,255
  800af8:	11400035 	stwio	r5,0(r2)

	return (alt_u16)(IORD_PRSR_HDR_RAM_RD_DATA(base)	&	0xffff);
  800afc:	008000b4 	movhi	r2,2
  800b00:	10881404 	addi	r2,r2,8272
  800b04:	2089883a 	add	r4,r4,r2
  800b08:	20800037 	ldwio	r2,0(r4)
}
  800b0c:	10bfffcc 	andi	r2,r2,65535
  800b10:	f800283a 	ret

00800b14 <get_wav_hdr_frm_prsr>:

void	get_wav_hdr_frm_prsr(alt_u32 base, alt_u16 *bffr){
  800b14:	defffc04 	addi	sp,sp,-16
  800b18:	dc800215 	stw	r18,8(sp)
  800b1c:	dc000015 	stw	r16,0(sp)
  800b20:	2025883a 	mov	r18,r4
  800b24:	2821883a 	mov	r16,r5
  800b28:	dfc00315 	stw	ra,12(sp)
  800b2c:	dc400115 	stw	r17,4(sp)
  800b30:	00000106 	br	800b38 <get_wav_hdr_frm_prsr+0x24>
	alt_u8	i;

	while(prsr_get_bytes_read(base) < 48){
		chThdSleepMilliseconds(1);	//wait for sufficient data to be read
  800b34:	08128680 	call	812868 <chThdSleep>
}

void	get_wav_hdr_frm_prsr(alt_u32 base, alt_u16 *bffr){
	alt_u8	i;

	while(prsr_get_bytes_read(base) < 48){
  800b38:	9009883a 	mov	r4,r18
  800b3c:	0800ab80 	call	800ab8 <prsr_get_bytes_read>
  800b40:	00c00bc4 	movi	r3,47
		chThdSleepMilliseconds(1);	//wait for sufficient data to be read
  800b44:	01000044 	movi	r4,1
}

void	get_wav_hdr_frm_prsr(alt_u32 base, alt_u16 *bffr){
	alt_u8	i;

	while(prsr_get_bytes_read(base) < 48){
  800b48:	18bffa2e 	bgeu	r3,r2,800b34 <get_wav_hdr_frm_prsr+0x20>
  800b4c:	0023883a 	mov	r17,zero
		chThdSleepMilliseconds(1);	//wait for sufficient data to be read
	}

	for(i=0;i<23;i++){
		bffr[i]	=	prsr_hdr_ram_read16(base, i);
  800b50:	880b883a 	mov	r5,r17
  800b54:	9009883a 	mov	r4,r18
  800b58:	0800ae80 	call	800ae8 <prsr_hdr_ram_read16>
  800b5c:	8080000d 	sth	r2,0(r16)
  800b60:	8c400044 	addi	r17,r17,1

	while(prsr_get_bytes_read(base) < 48){
		chThdSleepMilliseconds(1);	//wait for sufficient data to be read
	}

	for(i=0;i<23;i++){
  800b64:	008005c4 	movi	r2,23
		bffr[i]	=	prsr_hdr_ram_read16(base, i);
  800b68:	84000084 	addi	r16,r16,2

	while(prsr_get_bytes_read(base) < 48){
		chThdSleepMilliseconds(1);	//wait for sufficient data to be read
	}

	for(i=0;i<23;i++){
  800b6c:	88bff81e 	bne	r17,r2,800b50 <get_wav_hdr_frm_prsr+0x3c>
		bffr[i]	=	prsr_hdr_ram_read16(base, i);
	}

	return;
}
  800b70:	dfc00317 	ldw	ra,12(sp)
  800b74:	dc800217 	ldw	r18,8(sp)
  800b78:	dc400117 	ldw	r17,4(sp)
  800b7c:	dc000017 	ldw	r16,0(sp)
  800b80:	dec00404 	addi	sp,sp,16
  800b84:	f800283a 	ret

00800b88 <prsr_disable>:
	IOWR_PRSR_CTRL(base, PRSR_EN_MSK);
	return;
}

void	prsr_disable(alt_u32 base){
	IOWR_PRSR_CTRL(base, 0x0);
  800b88:	008000b4 	movhi	r2,2
  800b8c:	10880004 	addi	r2,r2,8192
  800b90:	2089883a 	add	r4,r4,r2
  800b94:	20000035 	stwio	zero,0(r4)
	return;
}
  800b98:	f800283a 	ret

00800b9c <prsr_enable>:
 */
#include "prsr.h"
#include "alt_types.h"

void	prsr_enable(alt_u32 base){
	IOWR_PRSR_CTRL(base, PRSR_EN_MSK);
  800b9c:	008000b4 	movhi	r2,2
  800ba0:	10880004 	addi	r2,r2,8192
  800ba4:	2089883a 	add	r4,r4,r2
  800ba8:	00800044 	movi	r2,1
  800bac:	20800035 	stwio	r2,0(r4)
	return;
}
  800bb0:	f800283a 	ret

00800bb4 <sram_write16>:
	return IORD_SRAM_ACC_DATA(base);
}

void	sram_write16(alt_u32 base, alt_u32 addr, alt_u16 data){

	IOWR_SRAM_ACC_ADDR_H(base, (addr >> 16) & SRAM_ADDR_H_MSK);
  800bb4:	2806d43a 	srli	r3,r5,16
  800bb8:	008000b4 	movhi	r2,2
  800bbc:	10840804 	addi	r2,r2,4128
  800bc0:	2085883a 	add	r2,r4,r2
  800bc4:	18c000cc 	andi	r3,r3,3
  800bc8:	10c00035 	stwio	r3,0(r2)
	IOWR_SRAM_ACC_ADDR_L(base, addr & SRAM_ADDR_L_MSK);
  800bcc:	008000b4 	movhi	r2,2
  800bd0:	10840c04 	addi	r2,r2,4144
  800bd4:	2085883a 	add	r2,r4,r2
  800bd8:	297fffcc 	andi	r5,r5,65535
  800bdc:	11400035 	stwio	r5,0(r2)

	IOWR_SRAM_ACC_DATA(base, data);
  800be0:	008000b4 	movhi	r2,2
  800be4:	10841004 	addi	r2,r2,4160
  800be8:	2085883a 	add	r2,r4,r2
  800bec:	31bfffcc 	andi	r6,r6,65535
  800bf0:	11800035 	stwio	r6,0(r2)

	IOWR_SRAM_ACC_CTRL(base, SRAM_MM_WR_EN_MSK);
  800bf4:	008000b4 	movhi	r2,2
  800bf8:	10840404 	addi	r2,r2,4112
  800bfc:	2089883a 	add	r4,r4,r2
  800c00:	00800084 	movi	r2,2
  800c04:	20800035 	stwio	r2,0(r4)

	return;
}
  800c08:	f800283a 	ret

00800c0c <sram_read16>:
#include "sram.h"
#include "alt_types.h"

alt_u16 sram_read16(alt_u32 base, alt_u32 addr){

	IOWR_SRAM_ACC_ADDR_H(base, (addr >> 16) & SRAM_ADDR_H_MSK);
  800c0c:	2806d43a 	srli	r3,r5,16
  800c10:	008000b4 	movhi	r2,2
  800c14:	10840804 	addi	r2,r2,4128
  800c18:	2085883a 	add	r2,r4,r2
  800c1c:	18c000cc 	andi	r3,r3,3
  800c20:	10c00035 	stwio	r3,0(r2)
	IOWR_SRAM_ACC_ADDR_L(base, addr & SRAM_ADDR_L_MSK);
  800c24:	008000b4 	movhi	r2,2
  800c28:	10840c04 	addi	r2,r2,4144
  800c2c:	2085883a 	add	r2,r4,r2
  800c30:	297fffcc 	andi	r5,r5,65535
  800c34:	11400035 	stwio	r5,0(r2)

	IOWR_SRAM_ACC_CTRL(base, SRAM_MM_RD_EN_MSK);
  800c38:	008000b4 	movhi	r2,2
  800c3c:	10840404 	addi	r2,r2,4112
  800c40:	2085883a 	add	r2,r4,r2
  800c44:	00c00044 	movi	r3,1
  800c48:	10c00035 	stwio	r3,0(r2)

	return IORD_SRAM_ACC_DATA(base);
  800c4c:	008000b4 	movhi	r2,2
  800c50:	10841004 	addi	r2,r2,4160
  800c54:	2089883a 	add	r4,r4,r2
  800c58:	20800037 	ldwio	r2,0(r4)
}
  800c5c:	10bfffcc 	andi	r2,r2,65535
  800c60:	f800283a 	ret

00800c64 <cortex_init>:
 *      Author: Gregory
 */
#include "cortex.h"
#include "sys/alt_stdio.h"

void cortex_init(alt_32 base, FS_T fs, BPS_T bps){
  800c64:	defffc04 	addi	sp,sp,-16
  800c68:	dc400115 	stw	r17,4(sp)
  800c6c:	dc000015 	stw	r16,0(sp)
	acortex_init(base,fs,bps);

	//Fgyrus
	configure_post_norm(CORTEX_MM_SL_BASE, LCHNL, NORM_64k);
  800c70:	04400144 	movi	r17,5
  800c74:	04004034 	movhi	r16,256
 *      Author: Gregory
 */
#include "cortex.h"
#include "sys/alt_stdio.h"

void cortex_init(alt_32 base, FS_T fs, BPS_T bps){
  800c78:	dfc00315 	stw	ra,12(sp)
  800c7c:	dc800215 	stw	r18,8(sp)
  800c80:	2025883a 	mov	r18,r4
	acortex_init(base,fs,bps);
  800c84:	08006680 	call	800668 <acortex_init>

	//Fgyrus
	configure_post_norm(CORTEX_MM_SL_BASE, LCHNL, NORM_64k);
  800c88:	880d883a 	mov	r6,r17
  800c8c:	8009883a 	mov	r4,r16
  800c90:	000b883a 	mov	r5,zero
  800c94:	0800d040 	call	800d04 <configure_post_norm>
	configure_post_norm(CORTEX_MM_SL_BASE, RCHNL, NORM_64k);
  800c98:	8009883a 	mov	r4,r16
  800c9c:	880d883a 	mov	r6,r17
  800ca0:	01400044 	movi	r5,1
  800ca4:	0800d040 	call	800d04 <configure_post_norm>

	enable_vcortex(base);
  800ca8:	9009883a 	mov	r4,r18
  800cac:	0800dac0 	call	800dac <enable_vcortex>

	alt_printf("Cortex Init done\r\n");
  800cb0:	01002074 	movhi	r4,129
  800cb4:	211d3e04 	addi	r4,r4,29944

	return;
}
  800cb8:	dfc00317 	ldw	ra,12(sp)
  800cbc:	dc800217 	ldw	r18,8(sp)
  800cc0:	dc400117 	ldw	r17,4(sp)
  800cc4:	dc000017 	ldw	r16,0(sp)
  800cc8:	dec00404 	addi	sp,sp,16
	configure_post_norm(CORTEX_MM_SL_BASE, LCHNL, NORM_64k);
	configure_post_norm(CORTEX_MM_SL_BASE, RCHNL, NORM_64k);

	enable_vcortex(base);

	alt_printf("Cortex Init done\r\n");
  800ccc:	08136301 	jmpi	813630 <alt_printf>

00800cd0 <get_full_fgyrus_addr>:
#include "fgyrus.h"
#include "alt_types.h"


alt_u32	get_full_fgyrus_addr(FGYRUS_TYPE fg, alt_u32 addr){
	return	(fg == LCHNL) ? addr + FGYRUS_LCHNL_BLK_CODE : addr + FGYRUS_RCHNL_BLK_CODE;
  800cd0:	20000226 	beq	r4,zero,800cdc <get_full_fgyrus_addr+0xc>
  800cd4:	00800074 	movhi	r2,1
  800cd8:	288b883a 	add	r5,r5,r2
}
  800cdc:	2805883a 	mov	r2,r5
  800ce0:	f800283a 	ret

00800ce4 <get_fgyrus_status>:
#include "fgyrus.h"
#include "alt_types.h"


alt_u32	get_full_fgyrus_addr(FGYRUS_TYPE fg, alt_u32 addr){
	return	(fg == LCHNL) ? addr + FGYRUS_LCHNL_BLK_CODE : addr + FGYRUS_RCHNL_BLK_CODE;
  800ce4:	00801004 	movi	r2,64
  800ce8:	28000226 	beq	r5,zero,800cf4 <get_fgyrus_status+0x10>
  800cec:	00800074 	movhi	r2,1
  800cf0:	10801004 	addi	r2,r2,64
}


FGYRUS_STATUS_TYPE	get_fgyrus_status(alt_u32 base, FGYRUS_TYPE fg){
	if(IORD_FGYRUS_STATUS(base, fg) & FGYRUS_BUSY_MSK){
  800cf4:	2085883a 	add	r2,r4,r2
  800cf8:	10800037 	ldwio	r2,0(r2)
		return DECIMATE; //As long as its not idle
	}
	else{
		return IDLE;
	}
}
  800cfc:	1080004c 	andi	r2,r2,1
  800d00:	f800283a 	ret

00800d04 <configure_post_norm>:
#include "fgyrus.h"
#include "alt_types.h"


alt_u32	get_full_fgyrus_addr(FGYRUS_TYPE fg, alt_u32 addr){
	return	(fg == LCHNL) ? addr + FGYRUS_LCHNL_BLK_CODE : addr + FGYRUS_RCHNL_BLK_CODE;
  800d04:	00801804 	movi	r2,96
  800d08:	28000226 	beq	r5,zero,800d14 <configure_post_norm+0x10>
  800d0c:	00800074 	movhi	r2,1
  800d10:	10801804 	addi	r2,r2,96
void disable_fgyrus(alt_u32 base, FGYRUS_TYPE fg){
	IOWR_FGYRUS_CTRL(base, fg, 0x0);
}

void configure_post_norm(alt_u32 base, FGYRUS_TYPE fg, FGYRUS_POST_NORM_TYPE val){
	IOWR_FGYRUS_POST_NORM(base, fg, val);
  800d14:	2085883a 	add	r2,r4,r2
  800d18:	11800035 	stwio	r6,0(r2)
}
  800d1c:	f800283a 	ret

00800d20 <disable_fgyrus>:
#include "fgyrus.h"
#include "alt_types.h"


alt_u32	get_full_fgyrus_addr(FGYRUS_TYPE fg, alt_u32 addr){
	return	(fg == LCHNL) ? addr + FGYRUS_LCHNL_BLK_CODE : addr + FGYRUS_RCHNL_BLK_CODE;
  800d20:	280ac03a 	cmpne	r5,r5,zero
  800d24:	280a943a 	slli	r5,r5,16
void enable_fgyrus(alt_u32 base, FGYRUS_TYPE fg){
	IOWR_FGYRUS_CTRL(base, fg, FGYRUS_EN_MSK);
}

void disable_fgyrus(alt_u32 base, FGYRUS_TYPE fg){
	IOWR_FGYRUS_CTRL(base, fg, 0x0);
  800d28:	2149883a 	add	r4,r4,r5
  800d2c:	20000035 	stwio	zero,0(r4)
}
  800d30:	f800283a 	ret

00800d34 <enable_fgyrus>:
#include "fgyrus.h"
#include "alt_types.h"


alt_u32	get_full_fgyrus_addr(FGYRUS_TYPE fg, alt_u32 addr){
	return	(fg == LCHNL) ? addr + FGYRUS_LCHNL_BLK_CODE : addr + FGYRUS_RCHNL_BLK_CODE;
  800d34:	280ac03a 	cmpne	r5,r5,zero
  800d38:	280a943a 	slli	r5,r5,16
FGYRUS_STATUS_TYPE	get_fgyrus_fsm_pstate(alt_u32 base, FGYRUS_TYPE fg){
	return IORD_FGYRUS_FSM_PSTATE(base, fg) & FGYRUS_FSM_PSTATE_MSK;
}

void enable_fgyrus(alt_u32 base, FGYRUS_TYPE fg){
	IOWR_FGYRUS_CTRL(base, fg, FGYRUS_EN_MSK);
  800d3c:	00800044 	movi	r2,1
  800d40:	2149883a 	add	r4,r4,r5
  800d44:	20800035 	stwio	r2,0(r4)
}
  800d48:	f800283a 	ret

00800d4c <get_fgyrus_fsm_pstate>:
#include "fgyrus.h"
#include "alt_types.h"


alt_u32	get_full_fgyrus_addr(FGYRUS_TYPE fg, alt_u32 addr){
	return	(fg == LCHNL) ? addr + FGYRUS_LCHNL_BLK_CODE : addr + FGYRUS_RCHNL_BLK_CODE;
  800d4c:	00800804 	movi	r2,32
  800d50:	28000226 	beq	r5,zero,800d5c <get_fgyrus_fsm_pstate+0x10>
  800d54:	00800074 	movhi	r2,1
  800d58:	10800804 	addi	r2,r2,32
	}
}


FGYRUS_STATUS_TYPE	get_fgyrus_fsm_pstate(alt_u32 base, FGYRUS_TYPE fg){
	return IORD_FGYRUS_FSM_PSTATE(base, fg) & FGYRUS_FSM_PSTATE_MSK;
  800d5c:	2085883a 	add	r2,r4,r2
  800d60:	10800037 	ldwio	r2,0(r2)
}
  800d64:	108001cc 	andi	r2,r2,7
  800d68:	f800283a 	ret

00800d6c <pwm_paint>:

void disable_vcortex(alt_u32 base){
	IOWR_VCORTEX_CTRL(base, 0x0);
}

void pwm_paint(alt_u32 base, alt_u16 * bffr){
  800d6c:	008000f4 	movhi	r2,3
  800d70:	10840004 	addi	r2,r2,4096
  800d74:	2089883a 	add	r4,r4,r2
  800d78:	0007883a 	mov	r3,zero
  800d7c:	01800404 	movi	r6,16


	for(i=0; i<VCORTEX_PWM_CHNNLS; i++){
		//alt_printf("[%x] = 0x%x | ",i,(alt_u32)bffr[i]);

		IOWR_32DIRECT(base, VCORTEX_PWM_RAM_BASE + (i<<4), (alt_u32)bffr[i]);
  800d80:	2880000b 	ldhu	r2,0(r5)
  800d84:	20800035 	stwio	r2,0(r4)
  800d88:	18c00044 	addi	r3,r3,1
  800d8c:	21000404 	addi	r4,r4,16
  800d90:	29400084 	addi	r5,r5,2

void pwm_paint(alt_u32 base, alt_u16 * bffr){
	alt_u8 i;


	for(i=0; i<VCORTEX_PWM_CHNNLS; i++){
  800d94:	19bffa1e 	bne	r3,r6,800d80 <pwm_paint+0x14>

		IOWR_32DIRECT(base, VCORTEX_PWM_RAM_BASE + (i<<4), (alt_u32)bffr[i]);
	}

	//alt_printf("\n");
}
  800d98:	f800283a 	ret

00800d9c <disable_vcortex>:
void enable_vcortex(alt_u32 base){
	IOWR_VCORTEX_CTRL(base, VCORTEX_CTRL_EN_MSK);
}

void disable_vcortex(alt_u32 base){
	IOWR_VCORTEX_CTRL(base, 0x0);
  800d9c:	008000f4 	movhi	r2,3
  800da0:	2089883a 	add	r4,r4,r2
  800da4:	20000035 	stwio	zero,0(r4)
}
  800da8:	f800283a 	ret

00800dac <enable_vcortex>:
#include "alt_types.h"
#include "sys/alt_stdio.h"


void enable_vcortex(alt_u32 base){
	IOWR_VCORTEX_CTRL(base, VCORTEX_CTRL_EN_MSK);
  800dac:	008000f4 	movhi	r2,3
  800db0:	2089883a 	add	r4,r4,r2
  800db4:	00800044 	movi	r2,1
  800db8:	20800035 	stwio	r2,0(r4)
}
  800dbc:	f800283a 	ret

00800dc0 <disk_timerproc>:
/* This function is defined for only project compatibility               */

void disk_timerproc (void)
{
	/* Nothing to do */
}
  800dc0:	f800283a 	ret

00800dc4 <init_port>:
#define DI_H()		PORT |= 0x04	/* Set MMC DI "high" */
#define DI_L()		PORT &= 0xFB	/* Set MMC DI "low" */
#define DO			(PORT &	0x08)	/* Test for MMC DO ('H':true, 'L':false) */

void init_port(){
	IOWR_ALTERA_AVALON_SPI_SLAVE_SEL(SDCARD_SPI_BASE,0x0);
  800dc4:	00804434 	movhi	r2,272
  800dc8:	10882504 	addi	r2,r2,8340
  800dcc:	10000035 	stwio	zero,0(r2)
	IOWR_ALTERA_AVALON_SPI_STATUS(SDCARD_SPI_BASE,0x0);
  800dd0:	10bffd04 	addi	r2,r2,-12
  800dd4:	10000035 	stwio	zero,0(r2)
}
  800dd8:	f800283a 	ret

00800ddc <wait_on_spi>:
	}

	return;
}

void wait_on_spi(BYTE mask){
  800ddc:	21003fcc 	andi	r4,r4,255
  800de0:	00c04434 	movhi	r3,272
  800de4:	18c82204 	addi	r3,r3,8328
	//alt_printf("waiting on spi\n");

	//DLY_US(1);

	//wait for TRDY & RRDY bits to be set in SPI driver.
	while(!(IORD_ALTERA_AVALON_SPI_STATUS(SDCARD_SPI_BASE) & mask));
  800de8:	18800037 	ldwio	r2,0(r3)
  800dec:	1104703a 	and	r2,r2,r4
  800df0:	103ffd26 	beq	r2,zero,800de8 <wait_on_spi+0xc>
}
  800df4:	f800283a 	ret

00800df8 <rcvr_mmc>:
static
void rcvr_mmc (
	BYTE *buff,	/* Pointer to read buffer */
	UINT bc		/* Number of bytes to receive */
)
{
  800df8:	defffd04 	addi	sp,sp,-12
  800dfc:	dc400115 	stw	r17,4(sp)
  800e00:	dc000015 	stw	r16,0(sp)
  800e04:	dfc00215 	stw	ra,8(sp)
  800e08:	2023883a 	mov	r17,r4
  800e0c:	2821883a 	mov	r16,r5
	/*
		   * Discard any stale data present in the RXDATA register, in case
		   * previous communication was interrupted and stale data was left
		   * behind.
		   */
		  IORD_ALTERA_AVALON_SPI_RXDATA(SDCARD_SPI_BASE);
  800e10:	00804434 	movhi	r2,272
  800e14:	10882004 	addi	r2,r2,8320
  800e18:	10800037 	ldwio	r2,0(r2)

		do{
			wait_on_spi(ALTERA_AVALON_SPI_STATUS_TRDY_MSK);
  800e1c:	01001004 	movi	r4,64
  800e20:	0800ddc0 	call	800ddc <wait_on_spi>

	        IOWR_ALTERA_AVALON_SPI_TXDATA(SDCARD_SPI_BASE, 0xff);
  800e24:	00c03fc4 	movi	r3,255
  800e28:	00804434 	movhi	r2,272
  800e2c:	10882104 	addi	r2,r2,8324
  800e30:	10c00035 	stwio	r3,0(r2)

			wait_on_spi(ALTERA_AVALON_SPI_STATUS_RRDY_MSK);
  800e34:	01002004 	movi	r4,128
  800e38:	0800ddc0 	call	800ddc <wait_on_spi>
	        *buff++ = IORD_ALTERA_AVALON_SPI_RXDATA(SDCARD_SPI_BASE);
  800e3c:	00804434 	movhi	r2,272
  800e40:	10882004 	addi	r2,r2,8320
  800e44:	10800037 	ldwio	r2,0(r2)
	        --bc;
  800e48:	843fffc4 	addi	r16,r16,-1
			wait_on_spi(ALTERA_AVALON_SPI_STATUS_TRDY_MSK);

	        IOWR_ALTERA_AVALON_SPI_TXDATA(SDCARD_SPI_BASE, 0xff);

			wait_on_spi(ALTERA_AVALON_SPI_STATUS_RRDY_MSK);
	        *buff++ = IORD_ALTERA_AVALON_SPI_RXDATA(SDCARD_SPI_BASE);
  800e4c:	88800005 	stb	r2,0(r17)
  800e50:	8c400044 	addi	r17,r17,1
	        --bc;

		}while(bc>0);
  800e54:	803ff11e 	bne	r16,zero,800e1c <rcvr_mmc+0x24>


		/* Wait until the interface has finished transmitting */
		wait_on_spi(ALTERA_AVALON_SPI_STATUS_TMT_MSK);
  800e58:	01000804 	movi	r4,32

}
  800e5c:	dfc00217 	ldw	ra,8(sp)
  800e60:	dc400117 	ldw	r17,4(sp)
  800e64:	dc000017 	ldw	r16,0(sp)
  800e68:	dec00304 	addi	sp,sp,12

		}while(bc>0);


		/* Wait until the interface has finished transmitting */
		wait_on_spi(ALTERA_AVALON_SPI_STATUS_TMT_MSK);
  800e6c:	0800ddc1 	jmpi	800ddc <wait_on_spi>

00800e70 <deselect>:
/* Deselect the card and release SPI bus                                 */
/*-----------------------------------------------------------------------*/

static
void deselect (void)
{
  800e70:	defffe04 	addi	sp,sp,-8
	BYTE d;

	IOWR_ALTERA_AVALON_SPI_SLAVE_SEL(SDCARD_SPI_BASE,0x0);
  800e74:	00804434 	movhi	r2,272
  800e78:	10882504 	addi	r2,r2,8340
/* Deselect the card and release SPI bus                                 */
/*-----------------------------------------------------------------------*/

static
void deselect (void)
{
  800e7c:	dfc00115 	stw	ra,4(sp)
	BYTE d;

	IOWR_ALTERA_AVALON_SPI_SLAVE_SEL(SDCARD_SPI_BASE,0x0);
  800e80:	10000035 	stwio	zero,0(r2)
	rcvr_mmc(&d, 1);	/* Dummy clock (force DO hi-z for multiple slave SPI) */
  800e84:	d809883a 	mov	r4,sp
  800e88:	01400044 	movi	r5,1
  800e8c:	0800df80 	call	800df8 <rcvr_mmc>

	//alt_printf("SD Card deselected\n");
}
  800e90:	dfc00117 	ldw	ra,4(sp)
  800e94:	dec00204 	addi	sp,sp,8
  800e98:	f800283a 	ret

00800e9c <xmit_mmc>:
static
void xmit_mmc (
	const BYTE* buff,	/* Data to be sent */
	UINT bc				/* Number of bytes to send */
)
{
  800e9c:	defffd04 	addi	sp,sp,-12
  800ea0:	dc400115 	stw	r17,4(sp)
  800ea4:	dc000015 	stw	r16,0(sp)
  800ea8:	dfc00215 	stw	ra,8(sp)
  800eac:	2023883a 	mov	r17,r4
  800eb0:	2821883a 	mov	r16,r5
	/*
	   * Discard any stale data present in the RXDATA register, in case
	   * previous communication was interrupted and stale data was left
	   * behind.
	   */
	  IORD_ALTERA_AVALON_SPI_RXDATA(SDCARD_SPI_BASE);
  800eb4:	00804434 	movhi	r2,272
  800eb8:	10882004 	addi	r2,r2,8320
  800ebc:	10800037 	ldwio	r2,0(r2)

	do{
		wait_on_spi(ALTERA_AVALON_SPI_STATUS_TRDY_MSK);
  800ec0:	01001004 	movi	r4,64
  800ec4:	0800ddc0 	call	800ddc <wait_on_spi>

        IOWR_ALTERA_AVALON_SPI_TXDATA(SDCARD_SPI_BASE, *buff++);
  800ec8:	88c00003 	ldbu	r3,0(r17)
  800ecc:	00804434 	movhi	r2,272
  800ed0:	10882104 	addi	r2,r2,8324
  800ed4:	8c400044 	addi	r17,r17,1
  800ed8:	10c00035 	stwio	r3,0(r2)
        --bc;

		wait_on_spi(ALTERA_AVALON_SPI_STATUS_RRDY_MSK);
  800edc:	01002004 	movi	r4,128
  800ee0:	0800ddc0 	call	800ddc <wait_on_spi>

	do{
		wait_on_spi(ALTERA_AVALON_SPI_STATUS_TRDY_MSK);

        IOWR_ALTERA_AVALON_SPI_TXDATA(SDCARD_SPI_BASE, *buff++);
        --bc;
  800ee4:	843fffc4 	addi	r16,r16,-1

		wait_on_spi(ALTERA_AVALON_SPI_STATUS_RRDY_MSK);
        IORD_ALTERA_AVALON_SPI_RXDATA(SDCARD_SPI_BASE); //flush out RX data
  800ee8:	00804434 	movhi	r2,272
  800eec:	10882004 	addi	r2,r2,8320
  800ef0:	10800037 	ldwio	r2,0(r2)

	}while(bc>0);
  800ef4:	803ff21e 	bne	r16,zero,800ec0 <xmit_mmc+0x24>


	/* Wait until the interface has finished transmitting */
	wait_on_spi(ALTERA_AVALON_SPI_STATUS_TMT_MSK);
  800ef8:	01000804 	movi	r4,32

}
  800efc:	dfc00217 	ldw	ra,8(sp)
  800f00:	dc400117 	ldw	r17,4(sp)
  800f04:	dc000017 	ldw	r16,0(sp)
  800f08:	dec00304 	addi	sp,sp,12

	}while(bc>0);


	/* Wait until the interface has finished transmitting */
	wait_on_spi(ALTERA_AVALON_SPI_STATUS_TMT_MSK);
  800f0c:	0800ddc1 	jmpi	800ddc <wait_on_spi>

00800f10 <dly_us>:
void init_port(){
	IOWR_ALTERA_AVALON_SPI_SLAVE_SEL(SDCARD_SPI_BASE,0x0);
	IOWR_ALTERA_AVALON_SPI_STATUS(SDCARD_SPI_BASE,0x0);
}

void dly_us(USHORT n){
  800f10:	213fffcc 	andi	r4,r4,65535
  800f14:	0007883a 	mov	r3,zero
  800f18:	01c04434 	movhi	r7,272
  800f1c:	39c82904 	addi	r7,r7,8356
  800f20:	01800104 	movi	r6,4
  800f24:	00000706 	br	800f44 <dly_us+0x34>
	USHORT i;

	for(i=0;i<n;i++){
		//start the timer
		IOWR_ALTERA_AVALON_TIMER_CONTROL(TIMER_1US_BASE,ALTERA_AVALON_TIMER_CONTROL_START_MSK);
  800f28:	39800035 	stwio	r6,0(r7)
  800f2c:	01404434 	movhi	r5,272
  800f30:	29482804 	addi	r5,r5,8352

		//loop as long as RUN bit is set in timer status register
		while(IORD_ALTERA_AVALON_TIMER_STATUS(TIMER_1US_BASE)	&	ALTERA_AVALON_TIMER_STATUS_RUN_MSK);
  800f34:	28800037 	ldwio	r2,0(r5)
  800f38:	1080008c 	andi	r2,r2,2
  800f3c:	103ffd1e 	bne	r2,zero,800f34 <dly_us+0x24>
}

void dly_us(USHORT n){
	USHORT i;

	for(i=0;i<n;i++){
  800f40:	18c00044 	addi	r3,r3,1
  800f44:	18bfffcc 	andi	r2,r3,65535
  800f48:	113ff71e 	bne	r2,r4,800f28 <dly_us+0x18>
		//loop as long as RUN bit is set in timer status register
		while(IORD_ALTERA_AVALON_TIMER_STATUS(TIMER_1US_BASE)	&	ALTERA_AVALON_TIMER_STATUS_RUN_MSK);
	}

	return;
}
  800f4c:	f800283a 	ret

00800f50 <rcvr_datablock>:
static
int rcvr_datablock (	/* 1:OK, 0:Failed */
	BYTE *buff,			/* Data buffer to store received data */
	UINT btr			/* Byte count */
)
{
  800f50:	defffb04 	addi	sp,sp,-20
  800f54:	dc800315 	stw	r18,12(sp)
  800f58:	dc400215 	stw	r17,8(sp)
  800f5c:	dc000115 	stw	r16,4(sp)
  800f60:	dfc00415 	stw	ra,16(sp)
  800f64:	2025883a 	mov	r18,r4
  800f68:	2823883a 	mov	r17,r5
  800f6c:	0400fa04 	movi	r16,1000
	BYTE d[2];
	UINT tmr;


	for (tmr = 1000; tmr; tmr--) {	/* Wait for data packet in timeout of 100ms */
		rcvr_mmc(d, 1);
  800f70:	d809883a 	mov	r4,sp
  800f74:	01400044 	movi	r5,1
  800f78:	0800df80 	call	800df8 <rcvr_mmc>
		if (d[0] != 0xFF) break;
  800f7c:	d8c00003 	ldbu	r3,0(sp)
  800f80:	00803fc4 	movi	r2,255
{
	BYTE d[2];
	UINT tmr;


	for (tmr = 1000; tmr; tmr--) {	/* Wait for data packet in timeout of 100ms */
  800f84:	843fffc4 	addi	r16,r16,-1
		rcvr_mmc(d, 1);
		if (d[0] != 0xFF) break;
		DLY_US(100);
  800f88:	01001904 	movi	r4,100
	UINT tmr;


	for (tmr = 1000; tmr; tmr--) {	/* Wait for data packet in timeout of 100ms */
		rcvr_mmc(d, 1);
		if (d[0] != 0xFF) break;
  800f8c:	1880021e 	bne	r3,r2,800f98 <rcvr_datablock+0x48>
		DLY_US(100);
  800f90:	0800f100 	call	800f10 <dly_us>
{
	BYTE d[2];
	UINT tmr;


	for (tmr = 1000; tmr; tmr--) {	/* Wait for data packet in timeout of 100ms */
  800f94:	803ff61e 	bne	r16,zero,800f70 <rcvr_datablock+0x20>
		rcvr_mmc(d, 1);
		if (d[0] != 0xFF) break;
		DLY_US(100);
	}
	if (d[0] != 0xFE) return 0;		/* If not valid data token, return with error */
  800f98:	d8c00003 	ldbu	r3,0(sp)
  800f9c:	00803f84 	movi	r2,254
  800fa0:	18800226 	beq	r3,r2,800fac <rcvr_datablock+0x5c>
  800fa4:	0005883a 	mov	r2,zero
  800fa8:	00000706 	br	800fc8 <rcvr_datablock+0x78>

	rcvr_mmc(buff, btr);			/* Receive the data block into buffer */
  800fac:	880b883a 	mov	r5,r17
  800fb0:	9009883a 	mov	r4,r18
  800fb4:	0800df80 	call	800df8 <rcvr_mmc>
	rcvr_mmc(d, 2);					/* Discard CRC */
  800fb8:	d809883a 	mov	r4,sp
  800fbc:	01400084 	movi	r5,2
  800fc0:	0800df80 	call	800df8 <rcvr_mmc>
  800fc4:	00800044 	movi	r2,1

	return 1;						/* Return with success */
}
  800fc8:	dfc00417 	ldw	ra,16(sp)
  800fcc:	dc800317 	ldw	r18,12(sp)
  800fd0:	dc400217 	ldw	r17,8(sp)
  800fd4:	dc000117 	ldw	r16,4(sp)
  800fd8:	dec00504 	addi	sp,sp,20
  800fdc:	f800283a 	ret

00800fe0 <wait_ready>:
/* Wait for card ready                                                   */
/*-----------------------------------------------------------------------*/

static
int wait_ready (void)	/* 1:OK, 0:Timeout */
{
  800fe0:	defffd04 	addi	sp,sp,-12
  800fe4:	dc000115 	stw	r16,4(sp)
  800fe8:	dfc00215 	stw	ra,8(sp)
  800fec:	0404e204 	movi	r16,5000
	BYTE d;
	UINT tmr;


	for (tmr = 5000; tmr; tmr--) {	/* Wait for ready in timeout of 500ms */
		rcvr_mmc(&d, 1);
  800ff0:	d809883a 	mov	r4,sp
  800ff4:	01400044 	movi	r5,1
  800ff8:	0800df80 	call	800df8 <rcvr_mmc>
		if (d == 0xFF) break;
  800ffc:	d8c00003 	ldbu	r3,0(sp)
  801000:	00803fc4 	movi	r2,255
		DLY_US(100);
  801004:	01001904 	movi	r4,100
	UINT tmr;


	for (tmr = 5000; tmr; tmr--) {	/* Wait for ready in timeout of 500ms */
		rcvr_mmc(&d, 1);
		if (d == 0xFF) break;
  801008:	18800326 	beq	r3,r2,801018 <wait_ready+0x38>
{
	BYTE d;
	UINT tmr;


	for (tmr = 5000; tmr; tmr--) {	/* Wait for ready in timeout of 500ms */
  80100c:	843fffc4 	addi	r16,r16,-1
		rcvr_mmc(&d, 1);
		if (d == 0xFF) break;
		DLY_US(100);
  801010:	0800f100 	call	800f10 <dly_us>
{
	BYTE d;
	UINT tmr;


	for (tmr = 5000; tmr; tmr--) {	/* Wait for ready in timeout of 500ms */
  801014:	803ff61e 	bne	r16,zero,800ff0 <wait_ready+0x10>
		if (d == 0xFF) break;
		DLY_US(100);
	}

	return tmr ? 1 : 0;
}
  801018:	8004c03a 	cmpne	r2,r16,zero
  80101c:	dfc00217 	ldw	ra,8(sp)
  801020:	dc000117 	ldw	r16,4(sp)
  801024:	dec00304 	addi	sp,sp,12
  801028:	f800283a 	ret

0080102c <xmit_datablock>:
static
int xmit_datablock (	/* 1:OK, 0:Failed */
	const BYTE *buff,	/* 512 byte data block to be transmitted */
	BYTE token			/* Data/Stop token */
)
{
  80102c:	defffb04 	addi	sp,sp,-20
  801030:	dc400215 	stw	r17,8(sp)
  801034:	dc000115 	stw	r16,4(sp)
  801038:	2023883a 	mov	r17,r4
  80103c:	2821883a 	mov	r16,r5
  801040:	dfc00415 	stw	ra,16(sp)
  801044:	dc800315 	stw	r18,12(sp)
	BYTE d[2];


	if (!wait_ready()) return 0;
  801048:	0800fe00 	call	800fe0 <wait_ready>

	d[0] = token;
	xmit_mmc(d, 1);				/* Xmit a token */
  80104c:	d809883a 	mov	r4,sp
  801050:	01400044 	movi	r5,1
)
{
	BYTE d[2];


	if (!wait_ready()) return 0;
  801054:	000d883a 	mov	r6,zero
  801058:	10001226 	beq	r2,zero,8010a4 <xmit_datablock+0x78>

	d[0] = token;
  80105c:	dc000005 	stb	r16,0(sp)
	xmit_mmc(d, 1);				/* Xmit a token */
  801060:	0800e9c0 	call	800e9c <xmit_mmc>
	if (token != 0xFD) {		/* Is it data token? */
  801064:	80c03fcc 	andi	r3,r16,255
  801068:	00803f44 	movi	r2,253
		xmit_mmc(buff, 512);	/* Xmit the 512 byte data block to MMC */
  80106c:	8809883a 	mov	r4,r17
  801070:	01408004 	movi	r5,512

	if (!wait_ready()) return 0;

	d[0] = token;
	xmit_mmc(d, 1);				/* Xmit a token */
	if (token != 0xFD) {		/* Is it data token? */
  801074:	01800044 	movi	r6,1
  801078:	18800a26 	beq	r3,r2,8010a4 <xmit_datablock+0x78>
		xmit_mmc(buff, 512);	/* Xmit the 512 byte data block to MMC */
  80107c:	0800e9c0 	call	800e9c <xmit_mmc>
		rcvr_mmc(d, 2);			/* Xmit dummy CRC (0xFF,0xFF) */
  801080:	d809883a 	mov	r4,sp
  801084:	01400084 	movi	r5,2
  801088:	0800df80 	call	800df8 <rcvr_mmc>
		rcvr_mmc(d, 1);			/* Receive data response */
  80108c:	d809883a 	mov	r4,sp
  801090:	01400044 	movi	r5,1
  801094:	0800df80 	call	800df8 <rcvr_mmc>
  801098:	d8800003 	ldbu	r2,0(sp)
  80109c:	108007cc 	andi	r2,r2,31
  8010a0:	11800160 	cmpeqi	r6,r2,5
		if ((d[0] & 0x1F) != 0x05)	/* If not accepted, return with error */
			return 0;
	}

	return 1;
}
  8010a4:	3005883a 	mov	r2,r6
  8010a8:	dfc00417 	ldw	ra,16(sp)
  8010ac:	dc800317 	ldw	r18,12(sp)
  8010b0:	dc400217 	ldw	r17,8(sp)
  8010b4:	dc000117 	ldw	r16,4(sp)
  8010b8:	dec00504 	addi	sp,sp,20
  8010bc:	f800283a 	ret

008010c0 <select>:
/* Select the card and wait for ready                                    */
/*-----------------------------------------------------------------------*/

static
int select (void)	/* 1:OK, 0:Timeout */
{
  8010c0:	defffd04 	addi	sp,sp,-12
  8010c4:	dc000115 	stw	r16,4(sp)
	BYTE d;

	IOWR_ALTERA_AVALON_SPI_SLAVE_SEL(SDCARD_SPI_BASE,0x1);
  8010c8:	00804434 	movhi	r2,272
  8010cc:	10882504 	addi	r2,r2,8340
  8010d0:	04000044 	movi	r16,1
/* Select the card and wait for ready                                    */
/*-----------------------------------------------------------------------*/

static
int select (void)	/* 1:OK, 0:Timeout */
{
  8010d4:	dfc00215 	stw	ra,8(sp)
	BYTE d;

	IOWR_ALTERA_AVALON_SPI_SLAVE_SEL(SDCARD_SPI_BASE,0x1);
  8010d8:	14000035 	stwio	r16,0(r2)
	rcvr_mmc(&d, 1);	/* Dummy clock (force DO enabled) */
  8010dc:	d809883a 	mov	r4,sp
  8010e0:	800b883a 	mov	r5,r16
  8010e4:	0800df80 	call	800df8 <rcvr_mmc>

	if (wait_ready()){
  8010e8:	0800fe00 	call	800fe0 <wait_ready>
  8010ec:	8007883a 	mov	r3,r16
  8010f0:	1000021e 	bne	r2,zero,8010fc <select+0x3c>
		//alt_printf("SD Card selected\n");
		return 1;	/* OK */
	}
	deselect();
  8010f4:	0800e700 	call	800e70 <deselect>
  8010f8:	0007883a 	mov	r3,zero
	return 0;			/* Failed */
}
  8010fc:	1805883a 	mov	r2,r3
  801100:	dfc00217 	ldw	ra,8(sp)
  801104:	dc000117 	ldw	r16,4(sp)
  801108:	dec00304 	addi	sp,sp,12
  80110c:	f800283a 	ret

00801110 <send_cmd>:
)
{
	BYTE n, d, buf[6];


	if (cmd & 0x80) {	/* ACMD<n> is the command sequense of CMD55-CMD<n> */
  801110:	20803fcc 	andi	r2,r4,255
  801114:	1080201c 	xori	r2,r2,128
static
BYTE send_cmd (		/* Returns command response (bit7==1:Send failed)*/
	BYTE cmd,		/* Command byte */
	DWORD arg		/* Argument */
)
{
  801118:	defffa04 	addi	sp,sp,-24
	BYTE n, d, buf[6];


	if (cmd & 0x80) {	/* ACMD<n> is the command sequense of CMD55-CMD<n> */
  80111c:	10bfe004 	addi	r2,r2,-128
static
BYTE send_cmd (		/* Returns command response (bit7==1:Send failed)*/
	BYTE cmd,		/* Command byte */
	DWORD arg		/* Argument */
)
{
  801120:	dc800415 	stw	r18,16(sp)
  801124:	dc400315 	stw	r17,12(sp)
  801128:	dc000215 	stw	r16,8(sp)
  80112c:	dfc00515 	stw	ra,20(sp)
  801130:	2023883a 	mov	r17,r4
  801134:	2021883a 	mov	r16,r4
  801138:	2825883a 	mov	r18,r5
	BYTE n, d, buf[6];


	if (cmd & 0x80) {	/* ACMD<n> is the command sequense of CMD55-CMD<n> */
  80113c:	10000a0e 	bge	r2,zero,801168 <send_cmd+0x58>
		cmd &= 0x7F;
		n = send_cmd(CMD55, 0);
  801140:	01000dc4 	movi	r4,55
  801144:	000b883a 	mov	r5,zero
  801148:	08011100 	call	801110 <send_cmd>
		if (n > 1) return n;
  80114c:	10c03fcc 	andi	r3,r2,255
  801150:	00800044 	movi	r2,1
  801154:	10c00236 	bltu	r2,r3,801160 <send_cmd+0x50>
{
	BYTE n, d, buf[6];


	if (cmd & 0x80) {	/* ACMD<n> is the command sequense of CMD55-CMD<n> */
		cmd &= 0x7F;
  801158:	8c001fcc 	andi	r16,r17,127
  80115c:	00000206 	br	801168 <send_cmd+0x58>
		n = send_cmd(CMD55, 0);
		if (n > 1) return n;
  801160:	1805883a 	mov	r2,r3
  801164:	00003306 	br	801234 <send_cmd+0x124>
	}

	/* Select the card and wait for ready */
	deselect();
  801168:	0800e700 	call	800e70 <deselect>
	if (!select()) return 0xFF;
  80116c:	08010c00 	call	8010c0 <select>
  801170:	1000021e 	bne	r2,zero,80117c <send_cmd+0x6c>
  801174:	00803fc4 	movi	r2,255
  801178:	00002e06 	br	801234 <send_cmd+0x124>

	/* Send a command packet */
	buf[0] = 0x40 | cmd;			/* Start + Command index */
	buf[1] = (BYTE)(arg >> 24);		/* Argument[31..24] */
  80117c:	9006d63a 	srli	r3,r18,24
	buf[2] = (BYTE)(arg >> 16);		/* Argument[23..16] */
  801180:	9008d43a 	srli	r4,r18,16
	buf[3] = (BYTE)(arg >> 8);		/* Argument[15..8] */
  801184:	900ad23a 	srli	r5,r18,8
	/* Select the card and wait for ready */
	deselect();
	if (!select()) return 0xFF;

	/* Send a command packet */
	buf[0] = 0x40 | cmd;			/* Start + Command index */
  801188:	80801014 	ori	r2,r16,64
	buf[2] = (BYTE)(arg >> 16);		/* Argument[23..16] */
	buf[3] = (BYTE)(arg >> 8);		/* Argument[15..8] */
	buf[4] = (BYTE)arg;				/* Argument[7..0] */
	n = 0x01;						/* Dummy CRC + Stop */
	//n = 0xff;						/* Dummy CRC + Stop */
	if (cmd == CMD0) n = 0x95;		/* (valid CRC for CMD0(0)) */
  80118c:	84403fcc 	andi	r17,r16,255
	/* Select the card and wait for ready */
	deselect();
	if (!select()) return 0xFF;

	/* Send a command packet */
	buf[0] = 0x40 | cmd;			/* Start + Command index */
  801190:	d8800045 	stb	r2,1(sp)
	buf[1] = (BYTE)(arg >> 24);		/* Argument[31..24] */
  801194:	d8c00085 	stb	r3,2(sp)
	buf[2] = (BYTE)(arg >> 16);		/* Argument[23..16] */
  801198:	d90000c5 	stb	r4,3(sp)
	buf[3] = (BYTE)(arg >> 8);		/* Argument[15..8] */
  80119c:	d9400105 	stb	r5,4(sp)
	buf[4] = (BYTE)arg;				/* Argument[7..0] */
  8011a0:	dc800145 	stb	r18,5(sp)
	n = 0x01;						/* Dummy CRC + Stop */
	//n = 0xff;						/* Dummy CRC + Stop */
	if (cmd == CMD0) n = 0x95;		/* (valid CRC for CMD0(0)) */
  8011a4:	88001a26 	beq	r17,zero,801210 <send_cmd+0x100>
	if (cmd == CMD8) n = 0x87;		/* (valid CRC for CMD8(0x1AA)) */
  8011a8:	00800204 	movi	r2,8
  8011ac:	d9000044 	addi	r4,sp,1
  8011b0:	88801b26 	beq	r17,r2,801220 <send_cmd+0x110>
	buf[5] = n;
  8011b4:	00800044 	movi	r2,1
	xmit_mmc(buf, 6);
  8011b8:	01400184 	movi	r5,6
	buf[4] = (BYTE)arg;				/* Argument[7..0] */
	n = 0x01;						/* Dummy CRC + Stop */
	//n = 0xff;						/* Dummy CRC + Stop */
	if (cmd == CMD0) n = 0x95;		/* (valid CRC for CMD0(0)) */
	if (cmd == CMD8) n = 0x87;		/* (valid CRC for CMD8(0x1AA)) */
	buf[5] = n;
  8011bc:	d8800185 	stb	r2,6(sp)
	xmit_mmc(buf, 6);
  8011c0:	0800e9c0 	call	800e9c <xmit_mmc>

	/* Receive command response */
	if (cmd == CMD12) rcvr_mmc(&d, 1);	/* Skip a stuff byte when stop reading */
  8011c4:	00800304 	movi	r2,12
  8011c8:	8880031e 	bne	r17,r2,8011d8 <send_cmd+0xc8>
  8011cc:	d809883a 	mov	r4,sp
  8011d0:	01400044 	movi	r5,1
  8011d4:	0800df80 	call	800df8 <rcvr_mmc>
  8011d8:	04000284 	movi	r16,10
	n = 10;								/* Wait for a valid response in timeout of 10 attempts */
	do
		rcvr_mmc(&d, 1);
  8011dc:	d809883a 	mov	r4,sp
  8011e0:	01400044 	movi	r5,1
  8011e4:	0800df80 	call	800df8 <rcvr_mmc>
	while ((d & 0x80) && --n);
  8011e8:	d9000003 	ldbu	r4,0(sp)
  8011ec:	843fffc4 	addi	r16,r16,-1
  8011f0:	80c03fcc 	andi	r3,r16,255
  8011f4:	20803fcc 	andi	r2,r4,255
  8011f8:	1080201c 	xori	r2,r2,128
  8011fc:	10bfe004 	addi	r2,r2,-128
  801200:	1000010e 	bge	r2,zero,801208 <send_cmd+0xf8>
  801204:	183ff51e 	bne	r3,zero,8011dc <send_cmd+0xcc>

	return d;			/* Return with the response value */
  801208:	20803fcc 	andi	r2,r4,255
  80120c:	00000906 	br	801234 <send_cmd+0x124>
	n = 0x01;						/* Dummy CRC + Stop */
	//n = 0xff;						/* Dummy CRC + Stop */
	if (cmd == CMD0) n = 0x95;		/* (valid CRC for CMD0(0)) */
	if (cmd == CMD8) n = 0x87;		/* (valid CRC for CMD8(0x1AA)) */
	buf[5] = n;
	xmit_mmc(buf, 6);
  801210:	d9000044 	addi	r4,sp,1
  801214:	01400184 	movi	r5,6
	buf[4] = (BYTE)arg;				/* Argument[7..0] */
	n = 0x01;						/* Dummy CRC + Stop */
	//n = 0xff;						/* Dummy CRC + Stop */
	if (cmd == CMD0) n = 0x95;		/* (valid CRC for CMD0(0)) */
	if (cmd == CMD8) n = 0x87;		/* (valid CRC for CMD8(0x1AA)) */
	buf[5] = n;
  801218:	00bfe544 	movi	r2,-107
  80121c:	00000206 	br	801228 <send_cmd+0x118>
	xmit_mmc(buf, 6);
  801220:	01400184 	movi	r5,6
	buf[4] = (BYTE)arg;				/* Argument[7..0] */
	n = 0x01;						/* Dummy CRC + Stop */
	//n = 0xff;						/* Dummy CRC + Stop */
	if (cmd == CMD0) n = 0x95;		/* (valid CRC for CMD0(0)) */
	if (cmd == CMD8) n = 0x87;		/* (valid CRC for CMD8(0x1AA)) */
	buf[5] = n;
  801224:	00bfe1c4 	movi	r2,-121
  801228:	d8800185 	stb	r2,6(sp)
	xmit_mmc(buf, 6);
  80122c:	0800e9c0 	call	800e9c <xmit_mmc>
  801230:	003fe906 	br	8011d8 <send_cmd+0xc8>
	do
		rcvr_mmc(&d, 1);
	while ((d & 0x80) && --n);

	return d;			/* Return with the response value */
}
  801234:	dfc00517 	ldw	ra,20(sp)
  801238:	dc800417 	ldw	r18,16(sp)
  80123c:	dc400317 	ldw	r17,12(sp)
  801240:	dc000217 	ldw	r16,8(sp)
  801244:	dec00604 	addi	sp,sp,24
  801248:	f800283a 	ret

0080124c <disk_initialize>:
/*-----------------------------------------------------------------------*/

DSTATUS disk_initialize (
	BYTE drv		/* Physical drive nmuber (0) */
)
{
  80124c:	defffb04 	addi	sp,sp,-20
	BYTE n, ty, cmd, buf[4];
	UINT tmr;
	DSTATUS s;


	if (drv) return RES_NOTRDY;
  801250:	21003fcc 	andi	r4,r4,255
/*-----------------------------------------------------------------------*/

DSTATUS disk_initialize (
	BYTE drv		/* Physical drive nmuber (0) */
)
{
  801254:	dfc00415 	stw	ra,16(sp)
  801258:	dc800315 	stw	r18,12(sp)
  80125c:	dc400215 	stw	r17,8(sp)
  801260:	dc000115 	stw	r16,4(sp)
	BYTE n, ty, cmd, buf[4];
	UINT tmr;
	DSTATUS s;


	if (drv) return RES_NOTRDY;
  801264:	20000226 	beq	r4,zero,801270 <disk_initialize+0x24>
  801268:	008000c4 	movi	r2,3
  80126c:	00005706 	br	8013cc <disk_initialize+0x180>

	INIT_PORT();				/* Initialize control port */
  801270:	0800dc40 	call	800dc4 <init_port>
  801274:	04000284 	movi	r16,10
	for (n = 10; n; n--) rcvr_mmc(buf, 1);	/* 80 dummy clocks */
  801278:	04400044 	movi	r17,1
  80127c:	d809883a 	mov	r4,sp
  801280:	880b883a 	mov	r5,r17
  801284:	843fffc4 	addi	r16,r16,-1
  801288:	0800df80 	call	800df8 <rcvr_mmc>
  80128c:	80803fcc 	andi	r2,r16,255
  801290:	103ff91e 	bne	r2,zero,801278 <disk_initialize+0x2c>

	ty = 0;
	if (send_cmd(CMD0, 0) == 1) {			/* Enter Idle state */
  801294:	0009883a 	mov	r4,zero
  801298:	000b883a 	mov	r5,zero
  80129c:	08011100 	call	801110 <send_cmd>
  8012a0:	14003fcc 	andi	r16,r2,255
  8012a4:	8440411e 	bne	r16,r17,8013ac <disk_initialize+0x160>
		if (send_cmd(CMD8, 0x1AA) == 1) {	/* SDv2? */
  8012a8:	01000204 	movi	r4,8
  8012ac:	01406a84 	movi	r5,426
  8012b0:	08011100 	call	801110 <send_cmd>
  8012b4:	10803fcc 	andi	r2,r2,255
  8012b8:	1400221e 	bne	r2,r16,801344 <disk_initialize+0xf8>
			rcvr_mmc(buf, 4);							/* Get trailing return value of R7 resp */
  8012bc:	d809883a 	mov	r4,sp
  8012c0:	01400104 	movi	r5,4
  8012c4:	0800df80 	call	800df8 <rcvr_mmc>
			if (buf[2] == 0x01 && buf[3] == 0xAA) {		/* The card can work at vdd range of 2.7-3.6V */
  8012c8:	d8800083 	ldbu	r2,2(sp)
  8012cc:	1400371e 	bne	r2,r16,8013ac <disk_initialize+0x160>
  8012d0:	d8c000c3 	ldbu	r3,3(sp)
  8012d4:	00802a84 	movi	r2,170
  8012d8:	1880341e 	bne	r3,r2,8013ac <disk_initialize+0x160>
  8012dc:	0400fa04 	movi	r16,1000
				for (tmr = 1000; tmr; tmr--) {			/* Wait for leaving idle state (ACMD41 with HCS bit) */
					if (send_cmd(ACMD41, 1UL << 30) == 0) break;
  8012e0:	01002a44 	movi	r4,169
  8012e4:	01500034 	movhi	r5,16384
  8012e8:	08011100 	call	801110 <send_cmd>
  8012ec:	10803fcc 	andi	r2,r2,255
	ty = 0;
	if (send_cmd(CMD0, 0) == 1) {			/* Enter Idle state */
		if (send_cmd(CMD8, 0x1AA) == 1) {	/* SDv2? */
			rcvr_mmc(buf, 4);							/* Get trailing return value of R7 resp */
			if (buf[2] == 0x01 && buf[3] == 0xAA) {		/* The card can work at vdd range of 2.7-3.6V */
				for (tmr = 1000; tmr; tmr--) {			/* Wait for leaving idle state (ACMD41 with HCS bit) */
  8012f0:	843fffc4 	addi	r16,r16,-1
					if (send_cmd(ACMD41, 1UL << 30) == 0) break;
					DLY_US(1000);
  8012f4:	0100fa04 	movi	r4,1000
	if (send_cmd(CMD0, 0) == 1) {			/* Enter Idle state */
		if (send_cmd(CMD8, 0x1AA) == 1) {	/* SDv2? */
			rcvr_mmc(buf, 4);							/* Get trailing return value of R7 resp */
			if (buf[2] == 0x01 && buf[3] == 0xAA) {		/* The card can work at vdd range of 2.7-3.6V */
				for (tmr = 1000; tmr; tmr--) {			/* Wait for leaving idle state (ACMD41 with HCS bit) */
					if (send_cmd(ACMD41, 1UL << 30) == 0) break;
  8012f8:	10000326 	beq	r2,zero,801308 <disk_initialize+0xbc>
					DLY_US(1000);
  8012fc:	0800f100 	call	800f10 <dly_us>
	ty = 0;
	if (send_cmd(CMD0, 0) == 1) {			/* Enter Idle state */
		if (send_cmd(CMD8, 0x1AA) == 1) {	/* SDv2? */
			rcvr_mmc(buf, 4);							/* Get trailing return value of R7 resp */
			if (buf[2] == 0x01 && buf[3] == 0xAA) {		/* The card can work at vdd range of 2.7-3.6V */
				for (tmr = 1000; tmr; tmr--) {			/* Wait for leaving idle state (ACMD41 with HCS bit) */
  801300:	80002a26 	beq	r16,zero,8013ac <disk_initialize+0x160>
  801304:	003ff606 	br	8012e0 <disk_initialize+0x94>
					if (send_cmd(ACMD41, 1UL << 30) == 0) break;
					DLY_US(1000);
				}
				if (tmr && send_cmd(CMD58, 0) == 0) {	/* Check CCS bit in the OCR */
  801308:	01000e84 	movi	r4,58
  80130c:	000b883a 	mov	r5,zero
  801310:	08011100 	call	801110 <send_cmd>
  801314:	10803fcc 	andi	r2,r2,255
  801318:	1000241e 	bne	r2,zero,8013ac <disk_initialize+0x160>
					rcvr_mmc(buf, 4);
  80131c:	d809883a 	mov	r4,sp
  801320:	01400104 	movi	r5,4
  801324:	0800df80 	call	800df8 <rcvr_mmc>
					ty = (buf[0] & 0x40) ? CT_SD2 | CT_BLOCK : CT_SD2;	/* SDv2 */
  801328:	d8800003 	ldbu	r2,0(sp)
  80132c:	1080100c 	andi	r2,r2,64
  801330:	10000226 	beq	r2,zero,80133c <disk_initialize+0xf0>
  801334:	04400304 	movi	r17,12
  801338:	00001d06 	br	8013b0 <disk_initialize+0x164>
  80133c:	04400104 	movi	r17,4
  801340:	00001b06 	br	8013b0 <disk_initialize+0x164>
				}
			}
		} else {							/* SDv1 or MMCv3 */
			if (send_cmd(ACMD41, 0) <= 1) 	{
  801344:	01002a44 	movi	r4,169
  801348:	000b883a 	mov	r5,zero
  80134c:	08011100 	call	801110 <send_cmd>
  801350:	10803fcc 	andi	r2,r2,255
  801354:	80800336 	bltu	r16,r2,801364 <disk_initialize+0x118>
  801358:	04400084 	movi	r17,2
  80135c:	04bfea44 	movi	r18,-87
  801360:	00000206 	br	80136c <disk_initialize+0x120>
  801364:	8025883a 	mov	r18,r16
  801368:	8023883a 	mov	r17,r16
  80136c:	0400fa04 	movi	r16,1000
				ty = CT_SD1; cmd = ACMD41;	/* SDv1 */
			} else {
				ty = CT_MMC; cmd = CMD1;	/* MMCv3 */
			}
			for (tmr = 1000; tmr; tmr--) {			/* Wait for leaving idle state */
				if (send_cmd(cmd, 0) == 0) break;
  801370:	91003fcc 	andi	r4,r18,255
  801374:	000b883a 	mov	r5,zero
  801378:	08011100 	call	801110 <send_cmd>
  80137c:	10803fcc 	andi	r2,r2,255
			if (send_cmd(ACMD41, 0) <= 1) 	{
				ty = CT_SD1; cmd = ACMD41;	/* SDv1 */
			} else {
				ty = CT_MMC; cmd = CMD1;	/* MMCv3 */
			}
			for (tmr = 1000; tmr; tmr--) {			/* Wait for leaving idle state */
  801380:	843fffc4 	addi	r16,r16,-1
				if (send_cmd(cmd, 0) == 0) break;
				DLY_US(1000);
  801384:	0100fa04 	movi	r4,1000
				ty = CT_SD1; cmd = ACMD41;	/* SDv1 */
			} else {
				ty = CT_MMC; cmd = CMD1;	/* MMCv3 */
			}
			for (tmr = 1000; tmr; tmr--) {			/* Wait for leaving idle state */
				if (send_cmd(cmd, 0) == 0) break;
  801388:	10000326 	beq	r2,zero,801398 <disk_initialize+0x14c>
				DLY_US(1000);
  80138c:	0800f100 	call	800f10 <dly_us>
			if (send_cmd(ACMD41, 0) <= 1) 	{
				ty = CT_SD1; cmd = ACMD41;	/* SDv1 */
			} else {
				ty = CT_MMC; cmd = CMD1;	/* MMCv3 */
			}
			for (tmr = 1000; tmr; tmr--) {			/* Wait for leaving idle state */
  801390:	80000626 	beq	r16,zero,8013ac <disk_initialize+0x160>
  801394:	003ff606 	br	801370 <disk_initialize+0x124>
				if (send_cmd(cmd, 0) == 0) break;
				DLY_US(1000);
			}
			if (!tmr || send_cmd(CMD16, 512) != 0)	/* Set R/W block length to 512 */
  801398:	01000404 	movi	r4,16
  80139c:	01408004 	movi	r5,512
  8013a0:	08011100 	call	801110 <send_cmd>
  8013a4:	10803fcc 	andi	r2,r2,255
  8013a8:	10000126 	beq	r2,zero,8013b0 <disk_initialize+0x164>
  8013ac:	0023883a 	mov	r17,zero
				ty = 0;
		}
	}
	CardType = ty;
	s = ty ? 0 : STA_NOINIT;
  8013b0:	88803fcc 	andi	r2,r17,255
  8013b4:	1005003a 	cmpeq	r2,r2,zero
  8013b8:	1021883a 	mov	r16,r2
	Stat = s;
  8013bc:	d0a00205 	stb	r2,-32760(gp)
			}
			if (!tmr || send_cmd(CMD16, 512) != 0)	/* Set R/W block length to 512 */
				ty = 0;
		}
	}
	CardType = ty;
  8013c0:	d466e805 	stb	r17,-25696(gp)
	s = ty ? 0 : STA_NOINIT;
	Stat = s;

	deselect();
  8013c4:	0800e700 	call	800e70 <deselect>

	return s;
  8013c8:	80803fcc 	andi	r2,r16,255
}
  8013cc:	dfc00417 	ldw	ra,16(sp)
  8013d0:	dc800317 	ldw	r18,12(sp)
  8013d4:	dc400217 	ldw	r17,8(sp)
  8013d8:	dc000117 	ldw	r16,4(sp)
  8013dc:	dec00504 	addi	sp,sp,20
  8013e0:	f800283a 	ret

008013e4 <disk_status>:
/*-----------------------------------------------------------------------*/

DSTATUS disk_status (
	BYTE drv			/* Drive number (always 0) */
)
{
  8013e4:	defffd04 	addi	sp,sp,-12
	DSTATUS s;
	BYTE d;


	if (drv) return STA_NOINIT;
  8013e8:	21003fcc 	andi	r4,r4,255
/*-----------------------------------------------------------------------*/

DSTATUS disk_status (
	BYTE drv			/* Drive number (always 0) */
)
{
  8013ec:	dfc00215 	stw	ra,8(sp)
  8013f0:	dc000115 	stw	r16,4(sp)
	DSTATUS s;
	BYTE d;


	if (drv) return STA_NOINIT;
  8013f4:	00800044 	movi	r2,1
  8013f8:	20000f1e 	bne	r4,zero,801438 <disk_status+0x54>

	/* Check if the card is kept initialized */
	s = Stat;
  8013fc:	d4200203 	ldbu	r16,-32760(gp)
	if (!(s & STA_NOINIT)) {
		if (send_cmd(CMD13, 0))	/* Read card status */
  801400:	01000344 	movi	r4,13
  801404:	000b883a 	mov	r5,zero

	if (drv) return STA_NOINIT;

	/* Check if the card is kept initialized */
	s = Stat;
	if (!(s & STA_NOINIT)) {
  801408:	8080004c 	andi	r2,r16,1
  80140c:	1000081e 	bne	r2,zero,801430 <disk_status+0x4c>
		if (send_cmd(CMD13, 0))	/* Read card status */
  801410:	08011100 	call	801110 <send_cmd>
  801414:	10803fcc 	andi	r2,r2,255
			s = STA_NOINIT;
		rcvr_mmc(&d, 1);		/* Receive following half of R2 */
  801418:	d809883a 	mov	r4,sp
  80141c:	01400044 	movi	r5,1
	if (drv) return STA_NOINIT;

	/* Check if the card is kept initialized */
	s = Stat;
	if (!(s & STA_NOINIT)) {
		if (send_cmd(CMD13, 0))	/* Read card status */
  801420:	10000126 	beq	r2,zero,801428 <disk_status+0x44>
  801424:	04000044 	movi	r16,1
			s = STA_NOINIT;
		rcvr_mmc(&d, 1);		/* Receive following half of R2 */
  801428:	0800df80 	call	800df8 <rcvr_mmc>
		deselect();
  80142c:	0800e700 	call	800e70 <deselect>
	}
	Stat = s;
  801430:	d4200205 	stb	r16,-32760(gp)

	return s;
  801434:	80803fcc 	andi	r2,r16,255
}
  801438:	dfc00217 	ldw	ra,8(sp)
  80143c:	dc000117 	ldw	r16,4(sp)
  801440:	dec00304 	addi	sp,sp,12
  801444:	f800283a 	ret

00801448 <disk_ioctl>:
DRESULT disk_ioctl (
	BYTE drv,		/* Physical drive nmuber (0) */
	BYTE ctrl,		/* Control code */
	void *buff		/* Buffer to send/receive control data */
)
{
  801448:	defff804 	addi	sp,sp,-32
	DRESULT res;
	BYTE n, csd[16];
	WORD cs;


	if (disk_status(drv) & STA_NOINIT) return RES_NOTRDY;	/* Check if card is in the socket */
  80144c:	21003fcc 	andi	r4,r4,255
DRESULT disk_ioctl (
	BYTE drv,		/* Physical drive nmuber (0) */
	BYTE ctrl,		/* Control code */
	void *buff		/* Buffer to send/receive control data */
)
{
  801450:	dc800615 	stw	r18,24(sp)
  801454:	dc000415 	stw	r16,16(sp)
  801458:	dfc00715 	stw	ra,28(sp)
  80145c:	dc400515 	stw	r17,20(sp)
  801460:	3025883a 	mov	r18,r6
  801464:	2821883a 	mov	r16,r5
	DRESULT res;
	BYTE n, csd[16];
	WORD cs;


	if (disk_status(drv) & STA_NOINIT) return RES_NOTRDY;	/* Check if card is in the socket */
  801468:	08013e40 	call	8013e4 <disk_status>
  80146c:	1080004c 	andi	r2,r2,1
  801470:	1005003a 	cmpeq	r2,r2,zero
  801474:	00c00044 	movi	r3,1
  801478:	1000021e 	bne	r2,zero,801484 <disk_ioctl+0x3c>
  80147c:	040000c4 	movi	r16,3
  801480:	00004106 	br	801588 <disk_ioctl+0x140>

	res = RES_ERROR;
	switch (ctrl) {
  801484:	84403fcc 	andi	r17,r16,255
  801488:	88c00a26 	beq	r17,r3,8014b4 <disk_ioctl+0x6c>
  80148c:	88c00436 	bltu	r17,r3,8014a0 <disk_ioctl+0x58>
  801490:	008000c4 	movi	r2,3
  801494:	88803626 	beq	r17,r2,801570 <disk_ioctl+0x128>
  801498:	04000104 	movi	r16,4
  80149c:	00003906 	br	801584 <disk_ioctl+0x13c>
		case CTRL_SYNC :		/* Make sure that no pending write process */
			if (select()) {
  8014a0:	08010c00 	call	8010c0 <select>
  8014a4:	10003626 	beq	r2,zero,801580 <disk_ioctl+0x138>
				deselect();
  8014a8:	0800e700 	call	800e70 <deselect>
  8014ac:	0021883a 	mov	r16,zero
  8014b0:	00003406 	br	801584 <disk_ioctl+0x13c>
				res = RES_OK;
			}
			break;

		case GET_SECTOR_COUNT :	/* Get number of sectors on the disk (DWORD) */
			if ((send_cmd(CMD9, 0) == 0) && rcvr_datablock(csd, 16)) {
  8014b4:	01000244 	movi	r4,9
  8014b8:	000b883a 	mov	r5,zero
  8014bc:	08011100 	call	801110 <send_cmd>
  8014c0:	10803fcc 	andi	r2,r2,255
  8014c4:	10002e1e 	bne	r2,zero,801580 <disk_ioctl+0x138>
  8014c8:	d809883a 	mov	r4,sp
  8014cc:	01400404 	movi	r5,16
  8014d0:	0800f500 	call	800f50 <rcvr_datablock>
  8014d4:	10002a26 	beq	r2,zero,801580 <disk_ioctl+0x138>
				if ((csd[0] >> 6) == 1) {	/* SDC ver 2.00 */
  8014d8:	d8800003 	ldbu	r2,0(sp)
  8014dc:	1004d1ba 	srli	r2,r2,6
  8014e0:	1440091e 	bne	r2,r17,801508 <disk_ioctl+0xc0>
					cs= csd[9] + ((WORD)csd[8] << 8) + 1;
					*(DWORD*)buff = (DWORD)cs << 10;
  8014e4:	d8800203 	ldbu	r2,8(sp)
  8014e8:	d8c00243 	ldbu	r3,9(sp)
  8014ec:	0021883a 	mov	r16,zero
  8014f0:	1004923a 	slli	r2,r2,8
  8014f4:	88c7883a 	add	r3,r17,r3
  8014f8:	10c5883a 	add	r2,r2,r3
  8014fc:	10bfffcc 	andi	r2,r2,65535
  801500:	100492ba 	slli	r2,r2,10
  801504:	00001c06 	br	801578 <disk_ioctl+0x130>
				} else {					/* SDC ver 1.XX or MMC */
					n = (csd[5] & 15) + ((csd[10] & 128) >> 7) + ((csd[9] & 3) << 1) + 2;
					cs = (csd[8] >> 6) + ((WORD)csd[7] << 2) + ((WORD)(csd[6] & 3) << 10) + 1;
					*(DWORD*)buff = (DWORD)cs << (n - 9);
  801508:	d8c00203 	ldbu	r3,8(sp)
  80150c:	d88001c3 	ldbu	r2,7(sp)
  801510:	d9400183 	ldbu	r5,6(sp)
  801514:	1806d1ba 	srli	r3,r3,6
  801518:	1085883a 	add	r2,r2,r2
  80151c:	d9800283 	ldbu	r6,10(sp)
  801520:	d9000243 	ldbu	r4,9(sp)
  801524:	1085883a 	add	r2,r2,r2
  801528:	10c5883a 	add	r2,r2,r3
  80152c:	d8c00143 	ldbu	r3,5(sp)
  801530:	294000cc 	andi	r5,r5,3
  801534:	280a92ba 	slli	r5,r5,10
  801538:	210000cc 	andi	r4,r4,3
  80153c:	300cd1fa 	srli	r6,r6,7
  801540:	18c003cc 	andi	r3,r3,15
  801544:	2109883a 	add	r4,r4,r4
  801548:	1445883a 	add	r2,r2,r17
  80154c:	1907883a 	add	r3,r3,r4
  801550:	288b883a 	add	r5,r5,r2
  801554:	30cd883a 	add	r6,r6,r3
  801558:	297fffcc 	andi	r5,r5,65535
  80155c:	31bffe44 	addi	r6,r6,-7
  801560:	298a983a 	sll	r5,r5,r6
  801564:	0021883a 	mov	r16,zero
  801568:	91400015 	stw	r5,0(r18)
  80156c:	00000506 	br	801584 <disk_ioctl+0x13c>
				res = RES_OK;
			}
			break;

		case GET_BLOCK_SIZE :	/* Get erase block size in unit of sector (DWORD) */
			*(DWORD*)buff = 128;
  801570:	0021883a 	mov	r16,zero
  801574:	00802004 	movi	r2,128
  801578:	90800015 	stw	r2,0(r18)
  80157c:	00000106 	br	801584 <disk_ioctl+0x13c>
			res = RES_OK;
			break;
  801580:	04000044 	movi	r16,1

		default:
			res = RES_PARERR;
	}

	deselect();
  801584:	0800e700 	call	800e70 <deselect>

	return res;
}
  801588:	8005883a 	mov	r2,r16
  80158c:	dfc00717 	ldw	ra,28(sp)
  801590:	dc800617 	ldw	r18,24(sp)
  801594:	dc400517 	ldw	r17,20(sp)
  801598:	dc000417 	ldw	r16,16(sp)
  80159c:	dec00804 	addi	sp,sp,32
  8015a0:	f800283a 	ret

008015a4 <disk_write>:
	BYTE drv,			/* Physical drive nmuber (0) */
	const BYTE *buff,	/* Pointer to the data to be written */
	DWORD sector,		/* Start sector number (LBA) */
	BYTE count			/* Sector count (1..128) */
)
{
  8015a4:	defffc04 	addi	sp,sp,-16
	if (disk_status(drv) & STA_NOINIT) return RES_NOTRDY;
  8015a8:	21003fcc 	andi	r4,r4,255
	BYTE drv,			/* Physical drive nmuber (0) */
	const BYTE *buff,	/* Pointer to the data to be written */
	DWORD sector,		/* Start sector number (LBA) */
	BYTE count			/* Sector count (1..128) */
)
{
  8015ac:	dc800215 	stw	r18,8(sp)
  8015b0:	dc400115 	stw	r17,4(sp)
  8015b4:	dc000015 	stw	r16,0(sp)
  8015b8:	dfc00315 	stw	ra,12(sp)
  8015bc:	2825883a 	mov	r18,r5
  8015c0:	3023883a 	mov	r17,r6
  8015c4:	3821883a 	mov	r16,r7
	if (disk_status(drv) & STA_NOINIT) return RES_NOTRDY;
  8015c8:	08013e40 	call	8013e4 <disk_status>
  8015cc:	1080004c 	andi	r2,r2,1
  8015d0:	1005003a 	cmpeq	r2,r2,zero
  8015d4:	1000021e 	bne	r2,zero,8015e0 <disk_write+0x3c>
  8015d8:	008000c4 	movi	r2,3
  8015dc:	00002e06 	br	801698 <disk_write+0xf4>
	if (!count) return RES_PARERR;
  8015e0:	81403fcc 	andi	r5,r16,255
  8015e4:	2800021e 	bne	r5,zero,8015f0 <disk_write+0x4c>
  8015e8:	00800104 	movi	r2,4
  8015ec:	00002a06 	br	801698 <disk_write+0xf4>
	if (!(CardType & CT_BLOCK)) sector *= 512;	/* Convert LBA to byte address if needed */
  8015f0:	d0e6e803 	ldbu	r3,-25696(gp)
  8015f4:	1880020c 	andi	r2,r3,8
  8015f8:	1000011e 	bne	r2,zero,801600 <disk_write+0x5c>
  8015fc:	8822927a 	slli	r17,r17,9

	if (count == 1) {	/* Single block write */
  801600:	00800044 	movi	r2,1
  801604:	28800b1e 	bne	r5,r2,801634 <disk_write+0x90>
		if ((send_cmd(CMD24, sector) == 0)	/* WRITE_BLOCK */
  801608:	880b883a 	mov	r5,r17
  80160c:	01000604 	movi	r4,24
  801610:	08011100 	call	801110 <send_cmd>
  801614:	10803fcc 	andi	r2,r2,255
  801618:	10001c1e 	bne	r2,zero,80168c <disk_write+0xe8>
  80161c:	9009883a 	mov	r4,r18
  801620:	01403f84 	movi	r5,254
  801624:	080102c0 	call	80102c <xmit_datablock>
  801628:	10001826 	beq	r2,zero,80168c <disk_write+0xe8>
  80162c:	0021883a 	mov	r16,zero
  801630:	00001606 	br	80168c <disk_write+0xe8>
			&& xmit_datablock(buff, 0xFE))
			count = 0;
	}
	else {				/* Multiple block write */
		if (CardType & CT_SDC) send_cmd(ACMD23, count);
  801634:	1880018c 	andi	r2,r3,6
  801638:	10000226 	beq	r2,zero,801644 <disk_write+0xa0>
  80163c:	010025c4 	movi	r4,151
  801640:	08011100 	call	801110 <send_cmd>
		if (send_cmd(CMD25, sector) == 0) {	/* WRITE_MULTIPLE_BLOCK */
  801644:	880b883a 	mov	r5,r17
  801648:	01000644 	movi	r4,25
  80164c:	08011100 	call	801110 <send_cmd>
  801650:	10803fcc 	andi	r2,r2,255
  801654:	10000d1e 	bne	r2,zero,80168c <disk_write+0xe8>
			do {
				if (!xmit_datablock(buff, 0xFC)) break;
  801658:	9009883a 	mov	r4,r18
  80165c:	01403f04 	movi	r5,252
				buff += 512;
  801660:	94808004 	addi	r18,r18,512
	}
	else {				/* Multiple block write */
		if (CardType & CT_SDC) send_cmd(ACMD23, count);
		if (send_cmd(CMD25, sector) == 0) {	/* WRITE_MULTIPLE_BLOCK */
			do {
				if (!xmit_datablock(buff, 0xFC)) break;
  801664:	080102c0 	call	80102c <xmit_datablock>
  801668:	10000326 	beq	r2,zero,801678 <disk_write+0xd4>
				buff += 512;
			} while (--count);
  80166c:	843fffc4 	addi	r16,r16,-1
  801670:	80803fcc 	andi	r2,r16,255
  801674:	103ff81e 	bne	r2,zero,801658 <disk_write+0xb4>
			if (!xmit_datablock(0, 0xFD))	/* STOP_TRAN token */
  801678:	0009883a 	mov	r4,zero
  80167c:	01403f44 	movi	r5,253
  801680:	080102c0 	call	80102c <xmit_datablock>
  801684:	1000011e 	bne	r2,zero,80168c <disk_write+0xe8>
  801688:	04000044 	movi	r16,1
				count = 1;
		}
	}
	deselect();
  80168c:	0800e700 	call	800e70 <deselect>

	return count ? RES_ERROR : RES_OK;
  801690:	80803fcc 	andi	r2,r16,255
  801694:	1004c03a 	cmpne	r2,r2,zero
}
  801698:	dfc00317 	ldw	ra,12(sp)
  80169c:	dc800217 	ldw	r18,8(sp)
  8016a0:	dc400117 	ldw	r17,4(sp)
  8016a4:	dc000017 	ldw	r16,0(sp)
  8016a8:	dec00404 	addi	sp,sp,16
  8016ac:	f800283a 	ret

008016b0 <disk_read>:
	BYTE drv,			/* Physical drive nmuber (0) */
	BYTE *buff,			/* Pointer to the data buffer to store read data */
	DWORD sector,		/* Start sector number (LBA) */
	BYTE count			/* Sector count (1..128) */
)
{
  8016b0:	defffc04 	addi	sp,sp,-16
	if (disk_status(drv) & STA_NOINIT) return RES_NOTRDY;
  8016b4:	21003fcc 	andi	r4,r4,255
	BYTE drv,			/* Physical drive nmuber (0) */
	BYTE *buff,			/* Pointer to the data buffer to store read data */
	DWORD sector,		/* Start sector number (LBA) */
	BYTE count			/* Sector count (1..128) */
)
{
  8016b8:	dc400215 	stw	r17,8(sp)
  8016bc:	dc000115 	stw	r16,4(sp)
  8016c0:	2823883a 	mov	r17,r5
  8016c4:	dfc00315 	stw	ra,12(sp)
  8016c8:	3821883a 	mov	r16,r7
	if (disk_status(drv) & STA_NOINIT) return RES_NOTRDY;
  8016cc:	d9800015 	stw	r6,0(sp)
  8016d0:	08013e40 	call	8013e4 <disk_status>
  8016d4:	1080004c 	andi	r2,r2,1
  8016d8:	1005003a 	cmpeq	r2,r2,zero
  8016dc:	d9400017 	ldw	r5,0(sp)
  8016e0:	1000021e 	bne	r2,zero,8016ec <disk_read+0x3c>
  8016e4:	008000c4 	movi	r2,3
  8016e8:	00002606 	br	801784 <disk_read+0xd4>
	if (!count) return RES_PARERR;
  8016ec:	80c03fcc 	andi	r3,r16,255
  8016f0:	1800021e 	bne	r3,zero,8016fc <disk_read+0x4c>
  8016f4:	00800104 	movi	r2,4
  8016f8:	00002206 	br	801784 <disk_read+0xd4>
	if (!(CardType & CT_BLOCK)) sector *= 512;	/* Convert LBA to byte address if needed */
  8016fc:	d0a6e803 	ldbu	r2,-25696(gp)
  801700:	1080020c 	andi	r2,r2,8
  801704:	1000011e 	bne	r2,zero,80170c <disk_read+0x5c>
  801708:	280a927a 	slli	r5,r5,9

	if (count == 1) {	/* Single block read */
  80170c:	00800044 	movi	r2,1
  801710:	18800a1e 	bne	r3,r2,80173c <disk_read+0x8c>
		if ((send_cmd(CMD17, sector) == 0)	/* READ_SINGLE_BLOCK */
  801714:	01000444 	movi	r4,17
  801718:	08011100 	call	801110 <send_cmd>
  80171c:	10803fcc 	andi	r2,r2,255
  801720:	1000151e 	bne	r2,zero,801778 <disk_read+0xc8>
  801724:	8809883a 	mov	r4,r17
  801728:	01408004 	movi	r5,512
  80172c:	0800f500 	call	800f50 <rcvr_datablock>
  801730:	10001126 	beq	r2,zero,801778 <disk_read+0xc8>
  801734:	0021883a 	mov	r16,zero
  801738:	00000f06 	br	801778 <disk_read+0xc8>
			&& rcvr_datablock(buff, 512))
			count = 0;
	}
	else {				/* Multiple block read */
		if (send_cmd(CMD18, sector) == 0) {	/* READ_MULTIPLE_BLOCK */
  80173c:	01000484 	movi	r4,18
  801740:	08011100 	call	801110 <send_cmd>
  801744:	10803fcc 	andi	r2,r2,255
  801748:	10000b1e 	bne	r2,zero,801778 <disk_read+0xc8>
			do {
				if (!rcvr_datablock(buff, 512)) break;
  80174c:	8809883a 	mov	r4,r17
  801750:	01408004 	movi	r5,512
				buff += 512;
  801754:	8c408004 	addi	r17,r17,512
			count = 0;
	}
	else {				/* Multiple block read */
		if (send_cmd(CMD18, sector) == 0) {	/* READ_MULTIPLE_BLOCK */
			do {
				if (!rcvr_datablock(buff, 512)) break;
  801758:	0800f500 	call	800f50 <rcvr_datablock>
  80175c:	10000326 	beq	r2,zero,80176c <disk_read+0xbc>
				buff += 512;
			} while (--count);
  801760:	843fffc4 	addi	r16,r16,-1
  801764:	80803fcc 	andi	r2,r16,255
  801768:	103ff81e 	bne	r2,zero,80174c <disk_read+0x9c>
			send_cmd(CMD12, 0);				/* STOP_TRANSMISSION */
  80176c:	01000304 	movi	r4,12
  801770:	000b883a 	mov	r5,zero
  801774:	08011100 	call	801110 <send_cmd>
		}
	}
	deselect();
  801778:	0800e700 	call	800e70 <deselect>

	return count ? RES_ERROR : RES_OK;
  80177c:	80803fcc 	andi	r2,r16,255
  801780:	1004c03a 	cmpne	r2,r2,zero
}
  801784:	dfc00317 	ldw	ra,12(sp)
  801788:	dc400217 	ldw	r17,8(sp)
  80178c:	dc000117 	ldw	r16,4(sp)
  801790:	dec00404 	addi	sp,sp,16
  801794:	f800283a 	ret

00801798 <mem_cpy>:
/* String functions                                                      */
/*-----------------------------------------------------------------------*/

/* Copy memory to memory */
static
void mem_cpy (void* dst, const void* src, UINT cnt) {
  801798:	00ffffc4 	movi	r3,-1
  80179c:	00000406 	br	8017b0 <mem_cpy+0x18>
		d += sizeof(int); s += sizeof(int);
		cnt -= sizeof(int);
	}
#endif
	while (cnt--)
		*d++ = *s++;
  8017a0:	28800003 	ldbu	r2,0(r5)
  8017a4:	29400044 	addi	r5,r5,1
  8017a8:	20800005 	stb	r2,0(r4)
  8017ac:	21000044 	addi	r4,r4,1
		*(int*)d = *(int*)s;
		d += sizeof(int); s += sizeof(int);
		cnt -= sizeof(int);
	}
#endif
	while (cnt--)
  8017b0:	31bfffc4 	addi	r6,r6,-1
  8017b4:	30fffa1e 	bne	r6,r3,8017a0 <mem_cpy+0x8>
		*d++ = *s++;
}
  8017b8:	f800283a 	ret

008017bc <mem_set>:

/* Fill memory */
static
void mem_set (void* dst, int val, UINT cnt) {
  8017bc:	00bfffc4 	movi	r2,-1
  8017c0:	00000206 	br	8017cc <mem_set+0x10>
	BYTE *d = (BYTE*)dst;

	while (cnt--)
		*d++ = (BYTE)val;
  8017c4:	21400005 	stb	r5,0(r4)
  8017c8:	21000044 	addi	r4,r4,1
/* Fill memory */
static
void mem_set (void* dst, int val, UINT cnt) {
	BYTE *d = (BYTE*)dst;

	while (cnt--)
  8017cc:	31bfffc4 	addi	r6,r6,-1
  8017d0:	30bffc1e 	bne	r6,r2,8017c4 <mem_set+0x8>
		*d++ = (BYTE)val;
}
  8017d4:	f800283a 	ret

008017d8 <clust2sect>:
	FATFS *fs,		/* File system object */
	DWORD clst		/* Cluster# to be converted */
)
{
	clst -= 2;
	if (clst >= (fs->n_fatent - 2)) return 0;		/* Invalid cluster# */
  8017d8:	20800717 	ldw	r2,28(r4)

DWORD clust2sect (	/* !=0: Sector number, 0: Failed - invalid cluster# */
	FATFS *fs,		/* File system object */
	DWORD clst		/* Cluster# to be converted */
)
{
  8017dc:	defffe04 	addi	sp,sp,-8
	clst -= 2;
  8017e0:	297fff84 	addi	r5,r5,-2
	if (clst >= (fs->n_fatent - 2)) return 0;		/* Invalid cluster# */
  8017e4:	10bfff84 	addi	r2,r2,-2

DWORD clust2sect (	/* !=0: Sector number, 0: Failed - invalid cluster# */
	FATFS *fs,		/* File system object */
	DWORD clst		/* Cluster# to be converted */
)
{
  8017e8:	dc000015 	stw	r16,0(sp)
  8017ec:	dfc00115 	stw	ra,4(sp)
  8017f0:	2021883a 	mov	r16,r4
	clst -= 2;
	if (clst >= (fs->n_fatent - 2)) return 0;		/* Invalid cluster# */
  8017f4:	0007883a 	mov	r3,zero
	return clst * fs->csize + fs->database;
  8017f8:	2809883a 	mov	r4,r5
	FATFS *fs,		/* File system object */
	DWORD clst		/* Cluster# to be converted */
)
{
	clst -= 2;
	if (clst >= (fs->n_fatent - 2)) return 0;		/* Invalid cluster# */
  8017fc:	2880042e 	bgeu	r5,r2,801810 <clust2sect+0x38>
	return clst * fs->csize + fs->database;
  801800:	81400083 	ldbu	r5,2(r16)
  801804:	08064840 	call	806484 <__mulsi3>
  801808:	80c00b17 	ldw	r3,44(r16)
  80180c:	10c7883a 	add	r3,r2,r3
}
  801810:	1805883a 	mov	r2,r3
  801814:	dfc00117 	ldw	ra,4(sp)
  801818:	dc000017 	ldw	r16,0(sp)
  80181c:	dec00204 	addi	sp,sp,8
  801820:	f800283a 	ret

00801824 <get_fileinfo>:
	BYTE nt, *dir;
	TCHAR *p, c;


	p = fno->fname;
	if (dj->sect) {
  801824:	20800417 	ldw	r2,16(r4)
static
void get_fileinfo (		/* No return code */
	DIR *dj,			/* Pointer to the directory object */
	FILINFO *fno	 	/* Pointer to the file information to be filled */
)
{
  801828:	2811883a 	mov	r8,r5
	UINT i;
	BYTE nt, *dir;
	TCHAR *p, c;


	p = fno->fname;
  80182c:	29c00244 	addi	r7,r5,9
	if (dj->sect) {
  801830:	10003826 	beq	r2,zero,801914 <get_fileinfo+0xf0>
		dir = dj->dir;
  801834:	21800517 	ldw	r6,20(r4)
  801838:	02c00804 	movi	r11,32
  80183c:	0009883a 	mov	r4,zero
  801840:	02800144 	movi	r10,5
  801844:	02400204 	movi	r9,8
		nt = dir[DIR_NTres];		/* NT flag */
		for (i = 0; i < 8; i++) {	/* Copy name body */
			c = dir[i];
  801848:	3105883a 	add	r2,r6,r4
  80184c:	10800003 	ldbu	r2,0(r2)
			if (c == ' ') break;
			if (c == NDDE) c = (TCHAR)DDE;
  801850:	017ff944 	movi	r5,-27
	if (dj->sect) {
		dir = dj->dir;
		nt = dir[DIR_NTres];		/* NT flag */
		for (i = 0; i < 8; i++) {	/* Copy name body */
			c = dir[i];
			if (c == ' ') break;
  801854:	10c03fcc 	andi	r3,r2,255
  801858:	1ac00626 	beq	r3,r11,801874 <get_fileinfo+0x50>
			if (c == NDDE) c = (TCHAR)DDE;
  80185c:	1a800126 	beq	r3,r10,801864 <get_fileinfo+0x40>
	p = fno->fname;
	if (dj->sect) {
		dir = dj->dir;
		nt = dir[DIR_NTres];		/* NT flag */
		for (i = 0; i < 8; i++) {	/* Copy name body */
			c = dir[i];
  801860:	100b883a 	mov	r5,r2

	p = fno->fname;
	if (dj->sect) {
		dir = dj->dir;
		nt = dir[DIR_NTres];		/* NT flag */
		for (i = 0; i < 8; i++) {	/* Copy name body */
  801864:	21000044 	addi	r4,r4,1
			if (IsDBCS1(c) && i < 7 && IsDBCS2(dir[i+1]))
				c = (c << 8) | dir[++i];
			c = ff_convert(c, 1);
			if (!c) c = '?';
#endif
			*p++ = c;
  801868:	39400005 	stb	r5,0(r7)
  80186c:	39c00044 	addi	r7,r7,1

	p = fno->fname;
	if (dj->sect) {
		dir = dj->dir;
		nt = dir[DIR_NTres];		/* NT flag */
		for (i = 0; i < 8; i++) {	/* Copy name body */
  801870:	227ff51e 	bne	r4,r9,801848 <get_fileinfo+0x24>
			c = ff_convert(c, 1);
			if (!c) c = '?';
#endif
			*p++ = c;
		}
		if (dir[8] != ' ') {		/* Copy name extension */
  801874:	30800203 	ldbu	r2,8(r6)
  801878:	00c00804 	movi	r3,32
  80187c:	10c00e26 	beq	r2,r3,8018b8 <get_fileinfo+0x94>
			*p++ = '.';
  801880:	00800b84 	movi	r2,46
  801884:	1815883a 	mov	r10,r3
  801888:	38800005 	stb	r2,0(r7)
  80188c:	3a400104 	addi	r9,r7,4
  801890:	38c00044 	addi	r3,r7,1
  801894:	3009883a 	mov	r4,r6
			for (i = 8; i < 11; i++) {
				c = dir[i];
  801898:	21400203 	ldbu	r5,8(r4)
				if (IsDBCS1(c) && i < 10 && IsDBCS2(dir[i+1]))
					c = (c << 8) | dir[++i];
				c = ff_convert(c, 1);
				if (!c) c = '?';
#endif
				*p++ = c;
  80189c:	21000044 	addi	r4,r4,1
		}
		if (dir[8] != ' ') {		/* Copy name extension */
			*p++ = '.';
			for (i = 8; i < 11; i++) {
				c = dir[i];
				if (c == ' ') break;
  8018a0:	28803fcc 	andi	r2,r5,255
  8018a4:	12800326 	beq	r2,r10,8018b4 <get_fileinfo+0x90>
				if (IsDBCS1(c) && i < 10 && IsDBCS2(dir[i+1]))
					c = (c << 8) | dir[++i];
				c = ff_convert(c, 1);
				if (!c) c = '?';
#endif
				*p++ = c;
  8018a8:	19400005 	stb	r5,0(r3)
  8018ac:	18c00044 	addi	r3,r3,1
#endif
			*p++ = c;
		}
		if (dir[8] != ' ') {		/* Copy name extension */
			*p++ = '.';
			for (i = 8; i < 11; i++) {
  8018b0:	1a7ff91e 	bne	r3,r9,801898 <get_fileinfo+0x74>
  8018b4:	180f883a 	mov	r7,r3
				if (!c) c = '?';
#endif
				*p++ = c;
			}
		}
		fno->fattrib = dir[DIR_Attr];				/* Attribute */
  8018b8:	308002c3 	ldbu	r2,11(r6)
  8018bc:	40800205 	stb	r2,8(r8)
		fno->fsize = LD_DWORD(dir+DIR_FileSize);	/* Size */
  8018c0:	308007c3 	ldbu	r2,31(r6)
  8018c4:	31000783 	ldbu	r4,30(r6)
  8018c8:	30c00743 	ldbu	r3,29(r6)
  8018cc:	1004963a 	slli	r2,r2,24
  8018d0:	2008943a 	slli	r4,r4,16
  8018d4:	31400703 	ldbu	r5,28(r6)
  8018d8:	1806923a 	slli	r3,r3,8
  8018dc:	1104b03a 	or	r2,r2,r4
  8018e0:	1144b03a 	or	r2,r2,r5
  8018e4:	1886b03a 	or	r3,r3,r2
  8018e8:	40c00015 	stw	r3,0(r8)
		fno->fdate = LD_WORD(dir+DIR_WrtDate);		/* Date */
  8018ec:	30800643 	ldbu	r2,25(r6)
  8018f0:	30c00603 	ldbu	r3,24(r6)
  8018f4:	1004923a 	slli	r2,r2,8
  8018f8:	10c4b03a 	or	r2,r2,r3
  8018fc:	4080010d 	sth	r2,4(r8)
		fno->ftime = LD_WORD(dir+DIR_WrtTime);		/* Time */
  801900:	308005c3 	ldbu	r2,23(r6)
  801904:	30c00583 	ldbu	r3,22(r6)
  801908:	1004923a 	slli	r2,r2,8
  80190c:	10c4b03a 	or	r2,r2,r3
  801910:	4080018d 	sth	r2,6(r8)
	}
	*p = 0;		/* Terminate SFN str by a \0 */
  801914:	38000005 	stb	zero,0(r7)
			}
		}
		tp[i] = 0;	/* Terminate the LFN str by a \0 */
	}
#endif
}
  801918:	f800283a 	ret

0080191c <f_mount>:
)
{
	FATFS *rfs;


	if (vol >= _VOLUMES)		/* Check if the drive number is valid */
  80191c:	21003fcc 	andi	r4,r4,255
  801920:	008002c4 	movi	r2,11
  801924:	2000071e 	bne	r4,zero,801944 <f_mount+0x28>
		return FR_INVALID_DRIVE;
	rfs = FatFs[vol];			/* Get current fs object */
  801928:	d0e6e917 	ldw	r3,-25692(gp)
		fs->fs_type = 0;		/* Clear new fs object */
#if _FS_REENTRANT				/* Create sync object for the new volume */
		if (!ff_cre_syncobj(vol, &fs->sobj)) return FR_INT_ERR;
#endif
	}
	FatFs[vol] = fs;			/* Register new fs object */
  80192c:	0005883a 	mov	r2,zero

	if (vol >= _VOLUMES)		/* Check if the drive number is valid */
		return FR_INVALID_DRIVE;
	rfs = FatFs[vol];			/* Get current fs object */

	if (rfs) {
  801930:	18000126 	beq	r3,zero,801938 <f_mount+0x1c>
		clear_lock(rfs);
#endif
#if _FS_REENTRANT				/* Discard sync object of the current volume */
		if (!ff_del_syncobj(rfs->sobj)) return FR_INT_ERR;
#endif
		rfs->fs_type = 0;		/* Clear old fs object */
  801934:	18000005 	stb	zero,0(r3)
	}

	if (fs) {
  801938:	28000126 	beq	r5,zero,801940 <f_mount+0x24>
		fs->fs_type = 0;		/* Clear new fs object */
  80193c:	28000005 	stb	zero,0(r5)
#if _FS_REENTRANT				/* Create sync object for the new volume */
		if (!ff_cre_syncobj(vol, &fs->sobj)) return FR_INT_ERR;
#endif
	}
	FatFs[vol] = fs;			/* Register new fs object */
  801940:	d166e915 	stw	r5,-25692(gp)

	return FR_OK;
}
  801944:	f800283a 	ret

00801948 <f_chdrive>:

FRESULT f_chdrive (
	BYTE drv		/* Drive number */
)
{
	if (drv >= _VOLUMES) return FR_INVALID_DRIVE;
  801948:	21003fcc 	andi	r4,r4,255
  80194c:	008002c4 	movi	r2,11
  801950:	2000021e 	bne	r4,zero,80195c <f_chdrive+0x14>

	CurrVol = drv;
  801954:	d026ea85 	stb	zero,-25686(gp)
  801958:	0005883a 	mov	r2,zero

	return FR_OK;
}
  80195c:	f800283a 	ret

00801960 <get_fattime>:
			| ((DWORD)1 << 21)				/* Month = 1 */
			| ((DWORD)1 << 16)				/* Day_m = 1*/
			| ((DWORD)0 << 11)				/* Hour = 0 */
			| ((DWORD)0 << 5)				/* Min = 0 */
			| ((DWORD)0 >> 1);				/* Sec = 0 */
}
  801960:	00900874 	movhi	r2,16417
  801964:	f800283a 	ret

00801968 <decode_fres>:

/*	Function to decode File Results	*/
const char * decode_fres(FRESULT res){
	switch(res)	{
  801968:	008004c4 	movi	r2,19
  80196c:	11001e36 	bltu	r2,r4,8019e8 <decode_fres+0x80>
  801970:	2105883a 	add	r2,r4,r4
  801974:	1085883a 	add	r2,r2,r2
  801978:	00c02034 	movhi	r3,128
  80197c:	18c66304 	addi	r3,r3,6540
  801980:	10c5883a 	add	r2,r2,r3
  801984:	10800017 	ldw	r2,0(r2)
  801988:	1000683a 	jmp	r2
  80198c:	008019f4 	movhi	r2,103
  801990:	00801a00 	call	801a0 <__reset-0x77fe60>
  801994:	00801a0c 	andi	r2,zero,104
  801998:	00801a18 	cmpnei	r2,zero,104
  80199c:	00801a24 	muli	r2,zero,104
  8019a0:	00801a30 	cmpltui	r2,zero,104
  8019a4:	00801a3c 	xorhi	r2,zero,104
  8019a8:	00801a48 	cmpgei	r2,zero,105
  8019ac:	00801a54 	movui	r2,105
  8019b0:	00801a60 	cmpeqi	r2,zero,105
  8019b4:	00801a6c 	andhi	r2,zero,105
  8019b8:	00801a78 	rdprs	r2,zero,105
  8019bc:	00801a84 	movi	r2,106
  8019c0:	00801a90 	cmplti	r2,zero,106
  8019c4:	00801a9c 	xori	r2,zero,106
  8019c8:	00801aa8 	cmpgeui	r2,zero,106
  8019cc:	00801ab4 	movhi	r2,106
  8019d0:	00801ac0 	call	801ac <__reset-0x77fe54>
  8019d4:	00801acc 	andi	r2,zero,107
  8019d8:	008019dc 	xori	r2,zero,103
  8019dc:	00802074 	movhi	r2,129
  8019e0:	109dfa04 	addi	r2,r2,30696
  8019e4:	f800283a 	ret
  8019e8:	00802074 	movhi	r2,129
  8019ec:	109f0f04 	addi	r2,r2,31804
  8019f0:	f800283a 	ret
  8019f4:	00802074 	movhi	r2,129
  8019f8:	109d4304 	addi	r2,r2,29964
  8019fc:	f800283a 	ret
	case	FR_OK:
		return	"Succeeded";
  801a00:	00802074 	movhi	r2,129
  801a04:	109d4604 	addi	r2,r2,29976
  801a08:	f800283a 	ret
	case	FR_DISK_ERR:
		return	"A hard error occured in the low level disk I/O layer";
  801a0c:	00802074 	movhi	r2,129
  801a10:	109d5404 	addi	r2,r2,30032
  801a14:	f800283a 	ret
	case	FR_INT_ERR:
		return	"Assertion failed";
  801a18:	00802074 	movhi	r2,129
  801a1c:	109d5904 	addi	r2,r2,30052
  801a20:	f800283a 	ret
	case	FR_NOT_READY:
		return	"The physical drive cannot work";
  801a24:	00802074 	movhi	r2,129
  801a28:	109d6104 	addi	r2,r2,30084
  801a2c:	f800283a 	ret
	case	FR_NO_FILE:
		return	"Could not find the file";
  801a30:	00802074 	movhi	r2,129
  801a34:	109d6704 	addi	r2,r2,30108
  801a38:	f800283a 	ret
	case	FR_NO_PATH:
		return	"Could not find the path";
  801a3c:	00802074 	movhi	r2,129
  801a40:	109d6d04 	addi	r2,r2,30132
  801a44:	f800283a 	ret
	case	FR_INVALID_NAME:
		return	"The path name format is invalid";
  801a48:	00802074 	movhi	r2,129
  801a4c:	109d7504 	addi	r2,r2,30164
  801a50:	f800283a 	ret
	case	FR_DENIED:
		return	"Access denied due to prohibited access or directory full";
  801a54:	00802074 	movhi	r2,129
  801a58:	109d8404 	addi	r2,r2,30224
  801a5c:	f800283a 	ret
	case	FR_EXIST:
		return	"Access denied due to prohibited access";
  801a60:	00802074 	movhi	r2,129
  801a64:	109d8e04 	addi	r2,r2,30264
  801a68:	f800283a 	ret
	case	FR_INVALID_OBJECT:
		return	"The file/directory object is invalid";
  801a6c:	00802074 	movhi	r2,129
  801a70:	109d9804 	addi	r2,r2,30304
  801a74:	f800283a 	ret
	case	FR_WRITE_PROTECTED:
		return	"The physical drive is write protected";
  801a78:	00802074 	movhi	r2,129
  801a7c:	109da204 	addi	r2,r2,30344
  801a80:	f800283a 	ret
	case	FR_INVALID_DRIVE:
		return	"The logical drive number is invalid";
  801a84:	00802074 	movhi	r2,129
  801a88:	109dab04 	addi	r2,r2,30380
  801a8c:	f800283a 	ret
	case	FR_NOT_ENABLED:
		return	"The volume has no work area";
  801a90:	00802074 	movhi	r2,129
  801a94:	109db204 	addi	r2,r2,30408
  801a98:	f800283a 	ret
	case	FR_NO_FILESYSTEM:
		return	"There is no valid FAT volume";
  801a9c:	00802074 	movhi	r2,129
  801aa0:	109dba04 	addi	r2,r2,30440
  801aa4:	f800283a 	ret
	case	FR_MKFS_ABORTED:
		return	"f_mkfs() aborted due to any parameter error";
  801aa8:	00802074 	movhi	r2,129
  801aac:	109dc504 	addi	r2,r2,30484
  801ab0:	f800283a 	ret
	case	FR_TIMEOUT:
		return	"Could not get a grant to access the volume within defined period";
  801ab4:	00802074 	movhi	r2,129
  801ab8:	109dd604 	addi	r2,r2,30552
  801abc:	f800283a 	ret
	case	FR_LOCKED:
		return	"The operation is rejected according to the file sharing policy";
  801ac0:	00802074 	movhi	r2,129
  801ac4:	109de604 	addi	r2,r2,30616
  801ac8:	f800283a 	ret
	case	FR_NOT_ENOUGH_CORE:
		return	"LFN working buffer could not be allocated";
  801acc:	00802074 	movhi	r2,129
  801ad0:	109df104 	addi	r2,r2,30660
	case	FR_INVALID_PARAMETER:
		return	"Given parameter is invalid";
	}

	return "";
}
  801ad4:	f800283a 	ret

00801ad8 <validate>:
static
FRESULT validate (	/* FR_OK(0): The object is valid, !=0: Invalid */
	FATFS *fs,		/* Pointer to the file system object */
	WORD id			/* Member id of the target object to be checked */
)
{
  801ad8:	deffff04 	addi	sp,sp,-4
  801adc:	dfc00015 	stw	ra,0(sp)
	if (!fs || !fs->fs_type || fs->id != id)
  801ae0:	20000e26 	beq	r4,zero,801b1c <validate+0x44>
  801ae4:	20800003 	ldbu	r2,0(r4)
  801ae8:	297fffcc 	andi	r5,r5,65535
  801aec:	10000b26 	beq	r2,zero,801b1c <validate+0x44>
  801af0:	2080018b 	ldhu	r2,6(r4)
  801af4:	1140091e 	bne	r2,r5,801b1c <validate+0x44>
		return FR_INVALID_OBJECT;

	ENTER_FF(fs);		/* Lock file system */

	if (disk_status(fs->drv) & STA_NOINIT)
  801af8:	21000043 	ldbu	r4,1(r4)
  801afc:	08013e40 	call	8013e4 <disk_status>
  801b00:	1080004c 	andi	r2,r2,1
  801b04:	1005003a 	cmpeq	r2,r2,zero
  801b08:	1000021e 	bne	r2,zero,801b14 <validate+0x3c>
  801b0c:	008000c4 	movi	r2,3
  801b10:	00000306 	br	801b20 <validate+0x48>
  801b14:	0005883a 	mov	r2,zero
  801b18:	00000106 	br	801b20 <validate+0x48>
  801b1c:	00800244 	movi	r2,9
		return FR_NOT_READY;

	return FR_OK;
}
  801b20:	dfc00017 	ldw	ra,0(sp)
  801b24:	dec00104 	addi	sp,sp,4
  801b28:	f800283a 	ret

00801b2c <check_fs>:
static
BYTE check_fs (	/* 0:FAT-VBR, 1:Valid BR but not FAT, 2:Not a BR, 3:Disk error */
	FATFS *fs,	/* File system object */
	DWORD sect	/* Sector# (lba) to check if it is an FAT boot record or not */
)
{
  801b2c:	defffe04 	addi	sp,sp,-8
  801b30:	dc000015 	stw	r16,0(sp)
  801b34:	dfc00115 	stw	ra,4(sp)
  801b38:	2005883a 	mov	r2,r4
	if (disk_read(fs->drv, fs->win, sect, 1) != RES_OK)	/* Load boot record */
  801b3c:	21000043 	ldbu	r4,1(r4)
  801b40:	14000d04 	addi	r16,r2,52
static
BYTE check_fs (	/* 0:FAT-VBR, 1:Valid BR but not FAT, 2:Not a BR, 3:Disk error */
	FATFS *fs,	/* File system object */
	DWORD sect	/* Sector# (lba) to check if it is an FAT boot record or not */
)
{
  801b44:	280d883a 	mov	r6,r5
	if (disk_read(fs->drv, fs->win, sect, 1) != RES_OK)	/* Load boot record */
  801b48:	01c00044 	movi	r7,1
  801b4c:	800b883a 	mov	r5,r16
  801b50:	08016b00 	call	8016b0 <disk_read>
  801b54:	010000c4 	movi	r4,3
  801b58:	1000271e 	bne	r2,zero,801bf8 <check_fs+0xcc>
		return 3;
	if (LD_WORD(&fs->win[BS_55AA]) != 0xAA55)		/* Check record signature (always placed at offset 510 even if the sector size is >512) */
  801b5c:	80807fc3 	ldbu	r2,511(r16)
  801b60:	80c07f83 	ldbu	r3,510(r16)
		return 2;

	if ((LD_DWORD(&fs->win[BS_FilSysType]) & 0xFFFFFF) == 0x544146)	/* Check "FAT" string */
  801b64:	01c04034 	movhi	r7,256
  801b68:	39ffffc4 	addi	r7,r7,-1
	DWORD sect	/* Sector# (lba) to check if it is an FAT boot record or not */
)
{
	if (disk_read(fs->drv, fs->win, sect, 1) != RES_OK)	/* Load boot record */
		return 3;
	if (LD_WORD(&fs->win[BS_55AA]) != 0xAA55)		/* Check record signature (always placed at offset 510 even if the sector size is >512) */
  801b6c:	1004923a 	slli	r2,r2,8
		return 2;

	if ((LD_DWORD(&fs->win[BS_FilSysType]) & 0xFFFFFF) == 0x544146)	/* Check "FAT" string */
  801b70:	01801534 	movhi	r6,84
  801b74:	31905184 	addi	r6,r6,16710
	DWORD sect	/* Sector# (lba) to check if it is an FAT boot record or not */
)
{
	if (disk_read(fs->drv, fs->win, sect, 1) != RES_OK)	/* Load boot record */
		return 3;
	if (LD_WORD(&fs->win[BS_55AA]) != 0xAA55)		/* Check record signature (always placed at offset 510 even if the sector size is >512) */
  801b78:	01000084 	movi	r4,2
  801b7c:	10c4b03a 	or	r2,r2,r3
  801b80:	10bfffcc 	andi	r2,r2,65535
  801b84:	10a0001c 	xori	r2,r2,32768
  801b88:	10a00004 	addi	r2,r2,-32768
  801b8c:	00ea9544 	movi	r3,-21931
  801b90:	10c0191e 	bne	r2,r3,801bf8 <check_fs+0xcc>
		return 2;

	if ((LD_DWORD(&fs->win[BS_FilSysType]) & 0xFFFFFF) == 0x544146)	/* Check "FAT" string */
  801b94:	80800e43 	ldbu	r2,57(r16)
  801b98:	81000e03 	ldbu	r4,56(r16)
  801b9c:	80c00dc3 	ldbu	r3,55(r16)
  801ba0:	1004963a 	slli	r2,r2,24
  801ba4:	2008943a 	slli	r4,r4,16
  801ba8:	81400d83 	ldbu	r5,54(r16)
  801bac:	1806923a 	slli	r3,r3,8
  801bb0:	1104b03a 	or	r2,r2,r4
  801bb4:	1144b03a 	or	r2,r2,r5
  801bb8:	1886b03a 	or	r3,r3,r2
  801bbc:	19c6703a 	and	r3,r3,r7
  801bc0:	0009883a 	mov	r4,zero
  801bc4:	19800c26 	beq	r3,r6,801bf8 <check_fs+0xcc>
  801bc8:	80801543 	ldbu	r2,85(r16)
  801bcc:	81001503 	ldbu	r4,84(r16)
  801bd0:	80c014c3 	ldbu	r3,83(r16)
  801bd4:	1004963a 	slli	r2,r2,24
  801bd8:	2008943a 	slli	r4,r4,16
  801bdc:	81401483 	ldbu	r5,82(r16)
  801be0:	1806923a 	slli	r3,r3,8
  801be4:	1104b03a 	or	r2,r2,r4
  801be8:	1144b03a 	or	r2,r2,r5
  801bec:	1886b03a 	or	r3,r3,r2
  801bf0:	19c6703a 	and	r3,r3,r7
  801bf4:	1988c03a 	cmpne	r4,r3,r6
		return 0;
	if ((LD_DWORD(&fs->win[BS_FilSysType32]) & 0xFFFFFF) == 0x544146)
		return 0;

	return 1;
}
  801bf8:	2005883a 	mov	r2,r4
  801bfc:	dfc00117 	ldw	ra,4(sp)
  801c00:	dc000017 	ldw	r16,0(sp)
  801c04:	dec00204 	addi	sp,sp,8
  801c08:	f800283a 	ret

00801c0c <chk_mounted>:
	BYTE fmt, b, pi, *tbl;
	UINT vol;
	DSTATUS stat;
	DWORD bsect, fasize, tsect, sysect, nclst, szbfat;
	WORD nrsv;
	const TCHAR *p = *path;
  801c0c:	21c00017 	ldw	r7,0(r4)
FRESULT chk_mounted (	/* FR_OK(0): successful, !=0: any error occurred */
	const TCHAR **path,	/* Pointer to pointer to the path name (drive number) */
	FATFS **rfs,		/* Pointer to pointer to the found file system object */
	BYTE chk_wp			/* !=0: Check media write protection for write access */
)
{
  801c10:	defff804 	addi	sp,sp,-32
  801c14:	dc000015 	stw	r16,0(sp)
  801c18:	dfc00715 	stw	ra,28(sp)
  801c1c:	dd800615 	stw	r22,24(sp)
  801c20:	dd400515 	stw	r21,20(sp)
  801c24:	dd000415 	stw	r20,16(sp)
  801c28:	dcc00315 	stw	r19,12(sp)
  801c2c:	dc800215 	stw	r18,8(sp)
  801c30:	dc400115 	stw	r17,4(sp)
	WORD nrsv;
	const TCHAR *p = *path;
	FATFS *fs;

	/* Get logical drive number from the path name */
	vol = p[0] - '0';					/* Is there a drive number? */
  801c34:	38800007 	ldb	r2,0(r7)
FRESULT chk_mounted (	/* FR_OK(0): successful, !=0: any error occurred */
	const TCHAR **path,	/* Pointer to pointer to the path name (drive number) */
	FATFS **rfs,		/* Pointer to pointer to the found file system object */
	BYTE chk_wp			/* !=0: Check media write protection for write access */
)
{
  801c38:	3021883a 	mov	r16,r6
	WORD nrsv;
	const TCHAR *p = *path;
	FATFS *fs;

	/* Get logical drive number from the path name */
	vol = p[0] - '0';					/* Is there a drive number? */
  801c3c:	11bff404 	addi	r6,r2,-48
	if (vol <= 9 && p[1] == ':') {		/* Found a drive number, get and strip it */
  801c40:	00800244 	movi	r2,9
  801c44:	11800636 	bltu	r2,r6,801c60 <chk_mounted+0x54>
  801c48:	38c00047 	ldb	r3,1(r7)
  801c4c:	00800e84 	movi	r2,58
  801c50:	1880031e 	bne	r3,r2,801c60 <chk_mounted+0x54>
		p += 2; *path = p;				/* Return pointer to the path name */
  801c54:	38800084 	addi	r2,r7,2
  801c58:	20800015 	stw	r2,0(r4)
  801c5c:	00000106 	br	801c64 <chk_mounted+0x58>
	} else {							/* No drive number is given */
#if _FS_RPATH
		vol = CurrVol;					/* Use current drive */
  801c60:	d1a6ea83 	ldbu	r6,-25686(gp)
		vol = 0;						/* Use drive 0 */
#endif
	}

	/* Check if the file system object is valid or not */
	if (vol >= _VOLUMES) 				/* Is the drive number valid? */
  801c64:	30000226 	beq	r6,zero,801c70 <chk_mounted+0x64>
  801c68:	00c002c4 	movi	r3,11
  801c6c:	00013206 	br	802138 <chk_mounted+0x52c>
		return FR_INVALID_DRIVE;
	*rfs = fs = FatFs[vol];				/* Return pointer to the corresponding file system object */
  801c70:	d466e917 	ldw	r17,-25692(gp)
  801c74:	2c400015 	stw	r17,0(r5)
	if (!fs) return FR_NOT_ENABLED;		/* Is the file system object available? */
  801c78:	8800021e 	bne	r17,zero,801c84 <chk_mounted+0x78>
  801c7c:	00c00304 	movi	r3,12
  801c80:	00012d06 	br	802138 <chk_mounted+0x52c>

	ENTER_FF(fs);						/* Lock file system */

	if (fs->fs_type) {					/* If the logical drive has been mounted */
  801c84:	88800003 	ldbu	r2,0(r17)
  801c88:	10000a26 	beq	r2,zero,801cb4 <chk_mounted+0xa8>
		stat = disk_status(fs->drv);
  801c8c:	89000043 	ldbu	r4,1(r17)
  801c90:	08013e40 	call	8013e4 <disk_status>
		if (!(stat & STA_NOINIT)) {		/* and the physical drive is kept initialized (has not been changed), */
  801c94:	10c03fcc 	andi	r3,r2,255
  801c98:	1880004c 	andi	r2,r3,1
  801c9c:	1000051e 	bne	r2,zero,801cb4 <chk_mounted+0xa8>
			if (!_FS_READONLY && chk_wp && (stat & STA_PROTECT))	/* Check write protection if needed */
  801ca0:	80803fcc 	andi	r2,r16,255
  801ca4:	10011726 	beq	r2,zero,802104 <chk_mounted+0x4f8>
  801ca8:	1880010c 	andi	r2,r3,4
  801cac:	1001131e 	bne	r2,zero,8020fc <chk_mounted+0x4f0>
  801cb0:	00011406 	br	802104 <chk_mounted+0x4f8>
	}

	/* The file system object is not valid. */
	/* Following code attempts to mount the volume. (analyze BPB and initialize the fs object) */

	fs->fs_type = 0;					/* Clear the file system object */
  801cb4:	88000005 	stb	zero,0(r17)
	fs->drv = LD2PD(vol);				/* Bind the logical drive and a physical drive */
  801cb8:	88000045 	stb	zero,1(r17)
	stat = disk_initialize(fs->drv);	/* Initialize low level disk I/O layer */
  801cbc:	0009883a 	mov	r4,zero
  801cc0:	080124c0 	call	80124c <disk_initialize>
	if (stat & STA_NOINIT)				/* Check if the initialization succeeded */
  801cc4:	10c03fcc 	andi	r3,r2,255
  801cc8:	1880004c 	andi	r2,r3,1
  801ccc:	1005003a 	cmpeq	r2,r2,zero
  801cd0:	1000021e 	bne	r2,zero,801cdc <chk_mounted+0xd0>
  801cd4:	00c000c4 	movi	r3,3
  801cd8:	00011706 	br	802138 <chk_mounted+0x52c>
		return FR_NOT_READY;			/* Failed to initialize due to no media or hard error */
	if (!_FS_READONLY && chk_wp && (stat & STA_PROTECT))	/* Check disk write protection if needed */
  801cdc:	80803fcc 	andi	r2,r16,255
  801ce0:	10000226 	beq	r2,zero,801cec <chk_mounted+0xe0>
  801ce4:	1880010c 	andi	r2,r3,4
  801ce8:	1001041e 	bne	r2,zero,8020fc <chk_mounted+0x4f0>
#if _MAX_SS != 512						/* Get disk sector size (variable sector size cfg only) */
	if (disk_ioctl(fs->drv, GET_SECTOR_SIZE, &fs->ssize) != RES_OK)
		return FR_DISK_ERR;
#endif
	/* Search FAT partition on the drive. Supports only generic partitionings, FDISK and SFD. */
	fmt = check_fs(fs, bsect = 0);		/* Load sector 0 and check if it is an FAT-VBR (in SFD) */
  801cec:	8809883a 	mov	r4,r17
  801cf0:	000b883a 	mov	r5,zero
  801cf4:	0801b2c0 	call	801b2c <check_fs>
  801cf8:	1009883a 	mov	r4,r2
	if (LD2PT(vol) && !fmt) fmt = 1;	/* Force non-SFD if the volume is forced partition */
	if (fmt == 1) {						/* Not an FAT-VBR, the physical drive can be partitioned */
  801cfc:	10c03fcc 	andi	r3,r2,255
  801d00:	00800044 	movi	r2,1
  801d04:	18800226 	beq	r3,r2,801d10 <chk_mounted+0x104>
  801d08:	002d883a 	mov	r22,zero
  801d0c:	00001106 	br	801d54 <chk_mounted+0x148>
		/* Check the partition listed in the partition table */
		pi = LD2PT(vol);
		if (pi) pi--;
		tbl = &fs->win[MBR_Table + pi * SZ_PTE];/* Partition table */
  801d10:	89407c84 	addi	r5,r17,498
		if (tbl[4]) {						/* Is the partition existing? */
  801d14:	28800103 	ldbu	r2,4(r5)
  801d18:	1000fc26 	beq	r2,zero,80210c <chk_mounted+0x500>
			bsect = LD_DWORD(&tbl[8]);		/* Partition offset in LBA */
  801d1c:	288002c3 	ldbu	r2,11(r5)
  801d20:	28c00283 	ldbu	r3,10(r5)
  801d24:	29000243 	ldbu	r4,9(r5)
  801d28:	1004963a 	slli	r2,r2,24
  801d2c:	1806943a 	slli	r3,r3,16
  801d30:	29400203 	ldbu	r5,8(r5)
  801d34:	2008923a 	slli	r4,r4,8
  801d38:	10c4b03a 	or	r2,r2,r3
  801d3c:	1144b03a 	or	r2,r2,r5
  801d40:	20acb03a 	or	r22,r4,r2
			fmt = check_fs(fs, bsect);		/* Check the partition */
  801d44:	b00b883a 	mov	r5,r22
  801d48:	8809883a 	mov	r4,r17
  801d4c:	0801b2c0 	call	801b2c <check_fs>
  801d50:	1009883a 	mov	r4,r2
		}
	}
	if (fmt == 3) return FR_DISK_ERR;
  801d54:	20c03fcc 	andi	r3,r4,255
  801d58:	008000c4 	movi	r2,3
  801d5c:	1880021e 	bne	r3,r2,801d68 <chk_mounted+0x15c>
  801d60:	00c00044 	movi	r3,1
  801d64:	0000f406 	br	802138 <chk_mounted+0x52c>
	if (fmt) return FR_NO_FILESYSTEM;		/* No FAT volume is found */
  801d68:	1800e81e 	bne	r3,zero,80210c <chk_mounted+0x500>

	/* An FAT volume is found. Following code initializes the file system object */

	if (LD_WORD(fs->win+BPB_BytsPerSec) != SS(fs))		/* (BPB_BytsPerSec must be equal to the physical sector size) */
  801d6c:	8c000d04 	addi	r16,r17,52
  801d70:	80800303 	ldbu	r2,12(r16)
  801d74:	80c002c3 	ldbu	r3,11(r16)
  801d78:	1004923a 	slli	r2,r2,8
  801d7c:	10c4b03a 	or	r2,r2,r3
  801d80:	10bfffcc 	andi	r2,r2,65535
  801d84:	10a0001c 	xori	r2,r2,32768
  801d88:	10a00004 	addi	r2,r2,-32768
  801d8c:	00c08004 	movi	r3,512
  801d90:	10c0de1e 	bne	r2,r3,80210c <chk_mounted+0x500>
		return FR_NO_FILESYSTEM;

	fasize = LD_WORD(fs->win+BPB_FATSz16);				/* Number of sectors per FAT */
  801d94:	808005c3 	ldbu	r2,23(r16)
  801d98:	80c00583 	ldbu	r3,22(r16)
  801d9c:	1004923a 	slli	r2,r2,8
  801da0:	10c8b03a 	or	r4,r2,r3
	if (!fasize) fasize = LD_DWORD(fs->win+BPB_FATSz32);
  801da4:	20bfffcc 	andi	r2,r4,65535
  801da8:	10a0001c 	xori	r2,r2,32768
  801dac:	10a00004 	addi	r2,r2,-32768
  801db0:	10000226 	beq	r2,zero,801dbc <chk_mounted+0x1b0>
	/* An FAT volume is found. Following code initializes the file system object */

	if (LD_WORD(fs->win+BPB_BytsPerSec) != SS(fs))		/* (BPB_BytsPerSec must be equal to the physical sector size) */
		return FR_NO_FILESYSTEM;

	fasize = LD_WORD(fs->win+BPB_FATSz16);				/* Number of sectors per FAT */
  801db4:	21ffffcc 	andi	r7,r4,65535
  801db8:	00000a06 	br	801de4 <chk_mounted+0x1d8>
	if (!fasize) fasize = LD_DWORD(fs->win+BPB_FATSz32);
  801dbc:	808009c3 	ldbu	r2,39(r16)
  801dc0:	80c00983 	ldbu	r3,38(r16)
  801dc4:	81000943 	ldbu	r4,37(r16)
  801dc8:	1004963a 	slli	r2,r2,24
  801dcc:	1806943a 	slli	r3,r3,16
  801dd0:	81400903 	ldbu	r5,36(r16)
  801dd4:	2008923a 	slli	r4,r4,8
  801dd8:	10c4b03a 	or	r2,r2,r3
  801ddc:	1144b03a 	or	r2,r2,r5
  801de0:	208eb03a 	or	r7,r4,r2
	fs->fsize = fasize;

	fs->n_fats = b = fs->win[BPB_NumFATs];				/* Number of FAT copies */
  801de4:	89801103 	ldbu	r6,68(r17)
	if (b != 1 && b != 2) return FR_NO_FILESYSTEM;		/* (Must be 1 or 2) */
  801de8:	00c00044 	movi	r3,1
	if (LD_WORD(fs->win+BPB_BytsPerSec) != SS(fs))		/* (BPB_BytsPerSec must be equal to the physical sector size) */
		return FR_NO_FILESYSTEM;

	fasize = LD_WORD(fs->win+BPB_FATSz16);				/* Number of sectors per FAT */
	if (!fasize) fasize = LD_DWORD(fs->win+BPB_FATSz32);
	fs->fsize = fasize;
  801dec:	89c00815 	stw	r7,32(r17)

	fs->n_fats = b = fs->win[BPB_NumFATs];				/* Number of FAT copies */
	if (b != 1 && b != 2) return FR_NO_FILESYSTEM;		/* (Must be 1 or 2) */
  801df0:	30bfffc4 	addi	r2,r6,-1
  801df4:	10803fcc 	andi	r2,r2,255

	fasize = LD_WORD(fs->win+BPB_FATSz16);				/* Number of sectors per FAT */
	if (!fasize) fasize = LD_DWORD(fs->win+BPB_FATSz32);
	fs->fsize = fasize;

	fs->n_fats = b = fs->win[BPB_NumFATs];				/* Number of FAT copies */
  801df8:	898000c5 	stb	r6,3(r17)
	if (b != 1 && b != 2) return FR_NO_FILESYSTEM;		/* (Must be 1 or 2) */
  801dfc:	1880c336 	bltu	r3,r2,80210c <chk_mounted+0x500>
	fasize *= b;										/* Number of sectors for FAT area */

	fs->csize = b = fs->win[BPB_SecPerClus];			/* Number of sectors per cluster */
  801e00:	88801043 	ldbu	r2,65(r17)
	if (!b || (b & (b - 1))) return FR_NO_FILESYSTEM;	/* (Must be power of 2) */
  801e04:	1007883a 	mov	r3,r2

	fs->n_fats = b = fs->win[BPB_NumFATs];				/* Number of FAT copies */
	if (b != 1 && b != 2) return FR_NO_FILESYSTEM;		/* (Must be 1 or 2) */
	fasize *= b;										/* Number of sectors for FAT area */

	fs->csize = b = fs->win[BPB_SecPerClus];			/* Number of sectors per cluster */
  801e08:	88800085 	stb	r2,2(r17)
	if (!b || (b & (b - 1))) return FR_NO_FILESYSTEM;	/* (Must be power of 2) */
  801e0c:	1000bf26 	beq	r2,zero,80210c <chk_mounted+0x500>
  801e10:	10bfffc4 	addi	r2,r2,-1
  801e14:	1884703a 	and	r2,r3,r2
  801e18:	1000bc1e 	bne	r2,zero,80210c <chk_mounted+0x500>

	fs->n_rootdir = LD_WORD(fs->win+BPB_RootEntCnt);	/* Number of root directory entries */
  801e1c:	80800483 	ldbu	r2,18(r16)
  801e20:	80c00443 	ldbu	r3,17(r16)
  801e24:	1004923a 	slli	r2,r2,8
  801e28:	10c4b03a 	or	r2,r2,r3
	if (fs->n_rootdir % (SS(fs) / SZ_DIR)) return FR_NO_FILESYSTEM;	/* (BPB_RootEntCnt must be sector aligned) */
  801e2c:	10c003cc 	andi	r3,r2,15
	fasize *= b;										/* Number of sectors for FAT area */

	fs->csize = b = fs->win[BPB_SecPerClus];			/* Number of sectors per cluster */
	if (!b || (b & (b - 1))) return FR_NO_FILESYSTEM;	/* (Must be power of 2) */

	fs->n_rootdir = LD_WORD(fs->win+BPB_RootEntCnt);	/* Number of root directory entries */
  801e30:	1029883a 	mov	r20,r2
  801e34:	8880020d 	sth	r2,8(r17)
	if (fs->n_rootdir % (SS(fs) / SZ_DIR)) return FR_NO_FILESYSTEM;	/* (BPB_RootEntCnt must be sector aligned) */
  801e38:	1800b41e 	bne	r3,zero,80210c <chk_mounted+0x500>

	tsect = LD_WORD(fs->win+BPB_TotSec16);				/* Number of sectors on the volume */
  801e3c:	80800503 	ldbu	r2,20(r16)
  801e40:	80c004c3 	ldbu	r3,19(r16)
  801e44:	1004923a 	slli	r2,r2,8
  801e48:	10c8b03a 	or	r4,r2,r3
	if (!tsect) tsect = LD_DWORD(fs->win+BPB_TotSec32);
  801e4c:	20bfffcc 	andi	r2,r4,65535
  801e50:	10a0001c 	xori	r2,r2,32768
  801e54:	10a00004 	addi	r2,r2,-32768
  801e58:	10000226 	beq	r2,zero,801e64 <chk_mounted+0x258>
	if (!b || (b & (b - 1))) return FR_NO_FILESYSTEM;	/* (Must be power of 2) */

	fs->n_rootdir = LD_WORD(fs->win+BPB_RootEntCnt);	/* Number of root directory entries */
	if (fs->n_rootdir % (SS(fs) / SZ_DIR)) return FR_NO_FILESYSTEM;	/* (BPB_RootEntCnt must be sector aligned) */

	tsect = LD_WORD(fs->win+BPB_TotSec16);				/* Number of sectors on the volume */
  801e5c:	24ffffcc 	andi	r19,r4,65535
  801e60:	00000a06 	br	801e8c <chk_mounted+0x280>
	if (!tsect) tsect = LD_DWORD(fs->win+BPB_TotSec32);
  801e64:	808008c3 	ldbu	r2,35(r16)
  801e68:	80c00883 	ldbu	r3,34(r16)
  801e6c:	81000843 	ldbu	r4,33(r16)
  801e70:	1004963a 	slli	r2,r2,24
  801e74:	1806943a 	slli	r3,r3,16
  801e78:	81400803 	ldbu	r5,32(r16)
  801e7c:	2008923a 	slli	r4,r4,8
  801e80:	10c4b03a 	or	r2,r2,r3
  801e84:	1144b03a 	or	r2,r2,r5
  801e88:	20a6b03a 	or	r19,r4,r2

	nrsv = LD_WORD(fs->win+BPB_RsvdSecCnt);				/* Number of reserved sectors */
  801e8c:	808003c3 	ldbu	r2,15(r16)
  801e90:	80c00383 	ldbu	r3,14(r16)
  801e94:	1004923a 	slli	r2,r2,8
  801e98:	10e4b03a 	or	r18,r2,r3
	if (!nrsv) return FR_NO_FILESYSTEM;					/* (BPB_RsvdSecCnt must not be 0) */
  801e9c:	90bfffcc 	andi	r2,r18,65535
  801ea0:	10a0001c 	xori	r2,r2,32768
  801ea4:	10a00004 	addi	r2,r2,-32768
  801ea8:	10009826 	beq	r2,zero,80210c <chk_mounted+0x500>
	if (!fasize) fasize = LD_DWORD(fs->win+BPB_FATSz32);
	fs->fsize = fasize;

	fs->n_fats = b = fs->win[BPB_NumFATs];				/* Number of FAT copies */
	if (b != 1 && b != 2) return FR_NO_FILESYSTEM;		/* (Must be 1 or 2) */
	fasize *= b;										/* Number of sectors for FAT area */
  801eac:	3809883a 	mov	r4,r7
  801eb0:	31403fcc 	andi	r5,r6,255
  801eb4:	08064840 	call	806484 <__mulsi3>
  801eb8:	102b883a 	mov	r21,r2

	nrsv = LD_WORD(fs->win+BPB_RsvdSecCnt);				/* Number of reserved sectors */
	if (!nrsv) return FR_NO_FILESYSTEM;					/* (BPB_RsvdSecCnt must not be 0) */

	/* Determine the FAT sub type */
	sysect = nrsv + fasize + fs->n_rootdir / (SS(fs) / SZ_DIR);	/* RSV+FAT+DIR */
  801ebc:	a0bfffcc 	andi	r2,r20,65535
  801ec0:	1004d13a 	srli	r2,r2,4
  801ec4:	953fffcc 	andi	r20,r18,65535
  801ec8:	a085883a 	add	r2,r20,r2
  801ecc:	a8a5883a 	add	r18,r21,r2
	if (tsect < sysect) return FR_NO_FILESYSTEM;		/* (Invalid volume size) */
  801ed0:	9c808e36 	bltu	r19,r18,80210c <chk_mounted+0x500>
	nclst = (tsect - sysect) / fs->csize;				/* Number of clusters */
  801ed4:	89400083 	ldbu	r5,2(r17)
  801ed8:	9c89c83a 	sub	r4,r19,r18
  801edc:	08064740 	call	806474 <__udivsi3>
  801ee0:	1009883a 	mov	r4,r2
	if (!nclst) return FR_NO_FILESYSTEM;				/* (Invalid volume size) */
  801ee4:	10008926 	beq	r2,zero,80210c <chk_mounted+0x500>
	fmt = FS_FAT12;
	if (nclst >= MIN_FAT16) fmt = FS_FAT16;
  801ee8:	0083fd44 	movi	r2,4085
  801eec:	11000236 	bltu	r2,r4,801ef8 <chk_mounted+0x2ec>
  801ef0:	04c00044 	movi	r19,1
  801ef4:	00000306 	br	801f04 <chk_mounted+0x2f8>
	if (nclst >= MIN_FAT32) fmt = FS_FAT32;
  801ef8:	00bffd54 	movui	r2,65525
  801efc:	11008536 	bltu	r2,r4,802114 <chk_mounted+0x508>
  801f00:	04c00084 	movi	r19,2
	if (fmt == FS_FAT32) {
		if (fs->n_rootdir) return FR_NO_FILESYSTEM;		/* (BPB_RootEntCnt must be 0) */
		fs->dirbase = LD_DWORD(fs->win+BPB_RootClus);	/* Root directory start cluster */
		szbfat = fs->n_fatent * 4;						/* (Required FAT size) */
	} else {
		if (!fs->n_rootdir)	return FR_NO_FILESYSTEM;	/* (BPB_RootEntCnt must not be 0) */
  801f04:	88c0020b 	ldhu	r3,8(r17)
	fmt = FS_FAT12;
	if (nclst >= MIN_FAT16) fmt = FS_FAT16;
	if (nclst >= MIN_FAT32) fmt = FS_FAT32;

	/* Boundaries and Limits */
	fs->n_fatent = nclst + 2;							/* Number of FAT entries */
  801f08:	21400084 	addi	r5,r4,2
	fs->database = bsect + sysect;						/* Data start sector */
  801f0c:	b485883a 	add	r2,r22,r18
	fs->fatbase = bsect + nrsv; 						/* FAT start sector */
  801f10:	b509883a 	add	r4,r22,r20
	if (nclst >= MIN_FAT16) fmt = FS_FAT16;
	if (nclst >= MIN_FAT32) fmt = FS_FAT32;

	/* Boundaries and Limits */
	fs->n_fatent = nclst + 2;							/* Number of FAT entries */
	fs->database = bsect + sysect;						/* Data start sector */
  801f14:	88800b15 	stw	r2,44(r17)
	fmt = FS_FAT12;
	if (nclst >= MIN_FAT16) fmt = FS_FAT16;
	if (nclst >= MIN_FAT32) fmt = FS_FAT32;

	/* Boundaries and Limits */
	fs->n_fatent = nclst + 2;							/* Number of FAT entries */
  801f18:	89400715 	stw	r5,28(r17)
	fs->database = bsect + sysect;						/* Data start sector */
	fs->fatbase = bsect + nrsv; 						/* FAT start sector */
  801f1c:	89000915 	stw	r4,36(r17)
	if (fmt == FS_FAT32) {
		if (fs->n_rootdir) return FR_NO_FILESYSTEM;		/* (BPB_RootEntCnt must be 0) */
		fs->dirbase = LD_DWORD(fs->win+BPB_RootClus);	/* Root directory start cluster */
		szbfat = fs->n_fatent * 4;						/* (Required FAT size) */
	} else {
		if (!fs->n_rootdir)	return FR_NO_FILESYSTEM;	/* (BPB_RootEntCnt must not be 0) */
  801f20:	1800111e 	bne	r3,zero,801f68 <chk_mounted+0x35c>
  801f24:	00007906 	br	80210c <chk_mounted+0x500>
	fs->n_fatent = nclst + 2;							/* Number of FAT entries */
	fs->database = bsect + sysect;						/* Data start sector */
	fs->fatbase = bsect + nrsv; 						/* FAT start sector */
	if (fmt == FS_FAT32) {
		if (fs->n_rootdir) return FR_NO_FILESYSTEM;		/* (BPB_RootEntCnt must be 0) */
		fs->dirbase = LD_DWORD(fs->win+BPB_RootClus);	/* Root directory start cluster */
  801f28:	80800bc3 	ldbu	r2,47(r16)
  801f2c:	81000b83 	ldbu	r4,46(r16)
  801f30:	81400b43 	ldbu	r5,45(r16)
  801f34:	1004963a 	slli	r2,r2,24
  801f38:	2008943a 	slli	r4,r4,16
  801f3c:	81800b03 	ldbu	r6,44(r16)
		szbfat = fs->n_fatent * 4;						/* (Required FAT size) */
  801f40:	88c00717 	ldw	r3,28(r17)
	fs->n_fatent = nclst + 2;							/* Number of FAT entries */
	fs->database = bsect + sysect;						/* Data start sector */
	fs->fatbase = bsect + nrsv; 						/* FAT start sector */
	if (fmt == FS_FAT32) {
		if (fs->n_rootdir) return FR_NO_FILESYSTEM;		/* (BPB_RootEntCnt must be 0) */
		fs->dirbase = LD_DWORD(fs->win+BPB_RootClus);	/* Root directory start cluster */
  801f44:	280a923a 	slli	r5,r5,8
  801f48:	1104b03a 	or	r2,r2,r4
  801f4c:	1184b03a 	or	r2,r2,r6
		szbfat = fs->n_fatent * 4;						/* (Required FAT size) */
  801f50:	18c7883a 	add	r3,r3,r3
	fs->n_fatent = nclst + 2;							/* Number of FAT entries */
	fs->database = bsect + sysect;						/* Data start sector */
	fs->fatbase = bsect + nrsv; 						/* FAT start sector */
	if (fmt == FS_FAT32) {
		if (fs->n_rootdir) return FR_NO_FILESYSTEM;		/* (BPB_RootEntCnt must be 0) */
		fs->dirbase = LD_DWORD(fs->win+BPB_RootClus);	/* Root directory start cluster */
  801f54:	288ab03a 	or	r5,r5,r2
		szbfat = fs->n_fatent * 4;						/* (Required FAT size) */
  801f58:	04c000c4 	movi	r19,3
  801f5c:	18c5883a 	add	r2,r3,r3
	fs->n_fatent = nclst + 2;							/* Number of FAT entries */
	fs->database = bsect + sysect;						/* Data start sector */
	fs->fatbase = bsect + nrsv; 						/* FAT start sector */
	if (fmt == FS_FAT32) {
		if (fs->n_rootdir) return FR_NO_FILESYSTEM;		/* (BPB_RootEntCnt must be 0) */
		fs->dirbase = LD_DWORD(fs->win+BPB_RootClus);	/* Root directory start cluster */
  801f60:	89400a15 	stw	r5,40(r17)
  801f64:	00000c06 	br	801f98 <chk_mounted+0x38c>
		szbfat = fs->n_fatent * 4;						/* (Required FAT size) */
	} else {
		if (!fs->n_rootdir)	return FR_NO_FILESYSTEM;	/* (BPB_RootEntCnt must not be 0) */
		fs->dirbase = fs->fatbase + fasize;				/* Root directory start sector */
  801f68:	2545883a 	add	r2,r4,r21
  801f6c:	88800a15 	stw	r2,40(r17)
		szbfat = (fmt == FS_FAT16) ?					/* (Required FAT size) */
  801f70:	98c03fcc 	andi	r3,r19,255
  801f74:	00800084 	movi	r2,2
  801f78:	1880021e 	bne	r3,r2,801f84 <chk_mounted+0x378>
  801f7c:	2945883a 	add	r2,r5,r5
  801f80:	00000506 	br	801f98 <chk_mounted+0x38c>
  801f84:	2945883a 	add	r2,r5,r5
  801f88:	1145883a 	add	r2,r2,r5
  801f8c:	1004d07a 	srli	r2,r2,1
  801f90:	28c0004c 	andi	r3,r5,1
  801f94:	10c5883a 	add	r2,r2,r3
			fs->n_fatent * 2 : fs->n_fatent * 3 / 2 + (fs->n_fatent & 1);
	}
	if (fs->fsize < (szbfat + (SS(fs) - 1)) / SS(fs))	/* (BPB_FATSz must not be less than required) */
  801f98:	10807fc4 	addi	r2,r2,511
  801f9c:	1004d27a 	srli	r2,r2,9
  801fa0:	88c00817 	ldw	r3,32(r17)
  801fa4:	18805936 	bltu	r3,r2,80210c <chk_mounted+0x500>
		return FR_NO_FILESYSTEM;

#if !_FS_READONLY
	/* Initialize cluster allocation information */
	fs->free_clust = 0xFFFFFFFF;
  801fa8:	00ffffc4 	movi	r3,-1
  801fac:	88c00415 	stw	r3,16(r17)
	fs->last_clust = 0;

	/* Get fsinfo if available */
	if (fmt == FS_FAT32) {
  801fb0:	98803fcc 	andi	r2,r19,255
  801fb4:	00c000c4 	movi	r3,3
		return FR_NO_FILESYSTEM;

#if !_FS_READONLY
	/* Initialize cluster allocation information */
	fs->free_clust = 0xFFFFFFFF;
	fs->last_clust = 0;
  801fb8:	88000315 	stw	zero,12(r17)

	/* Get fsinfo if available */
	if (fmt == FS_FAT32) {
  801fbc:	10c0451e 	bne	r2,r3,8020d4 <chk_mounted+0x4c8>
	 	fs->fsi_flag = 0;
  801fc0:	88000145 	stb	zero,5(r17)
		fs->fsi_sector = bsect + LD_WORD(fs->win+BPB_FSInfo);
  801fc4:	81800c43 	ldbu	r6,49(r16)
  801fc8:	80800c03 	ldbu	r2,48(r16)
		if (disk_read(fs->drv, fs->win, fs->fsi_sector, 1) == RES_OK &&
  801fcc:	89000043 	ldbu	r4,1(r17)
	fs->last_clust = 0;

	/* Get fsinfo if available */
	if (fmt == FS_FAT32) {
	 	fs->fsi_flag = 0;
		fs->fsi_sector = bsect + LD_WORD(fs->win+BPB_FSInfo);
  801fd0:	300c923a 	slli	r6,r6,8
		if (disk_read(fs->drv, fs->win, fs->fsi_sector, 1) == RES_OK &&
  801fd4:	800b883a 	mov	r5,r16
  801fd8:	01c00044 	movi	r7,1
	fs->last_clust = 0;

	/* Get fsinfo if available */
	if (fmt == FS_FAT32) {
	 	fs->fsi_flag = 0;
		fs->fsi_sector = bsect + LD_WORD(fs->win+BPB_FSInfo);
  801fdc:	308cb03a 	or	r6,r6,r2
  801fe0:	b18d883a 	add	r6,r22,r6
  801fe4:	89800515 	stw	r6,20(r17)
		if (disk_read(fs->drv, fs->win, fs->fsi_sector, 1) == RES_OK &&
  801fe8:	08016b00 	call	8016b0 <disk_read>
  801fec:	1000391e 	bne	r2,zero,8020d4 <chk_mounted+0x4c8>
  801ff0:	80807fc3 	ldbu	r2,511(r16)
  801ff4:	80c07f83 	ldbu	r3,510(r16)
  801ff8:	1004923a 	slli	r2,r2,8
  801ffc:	10c4b03a 	or	r2,r2,r3
  802000:	10bfffcc 	andi	r2,r2,65535
  802004:	10a0001c 	xori	r2,r2,32768
  802008:	10a00004 	addi	r2,r2,-32768
  80200c:	00ea9544 	movi	r3,-21931
  802010:	10c0301e 	bne	r2,r3,8020d4 <chk_mounted+0x4c8>
  802014:	808000c3 	ldbu	r2,3(r16)
  802018:	80c00083 	ldbu	r3,2(r16)
  80201c:	81000043 	ldbu	r4,1(r16)
  802020:	1004963a 	slli	r2,r2,24
  802024:	1806943a 	slli	r3,r3,16
  802028:	89400d03 	ldbu	r5,52(r17)
  80202c:	2008923a 	slli	r4,r4,8
  802030:	10c4b03a 	or	r2,r2,r3
  802034:	1144b03a 	or	r2,r2,r5
  802038:	2088b03a 	or	r4,r4,r2
  80203c:	00905874 	movhi	r2,16737
  802040:	10949484 	addi	r2,r2,21074
  802044:	2080231e 	bne	r4,r2,8020d4 <chk_mounted+0x4c8>
  802048:	808079c3 	ldbu	r2,487(r16)
  80204c:	80c07983 	ldbu	r3,486(r16)
  802050:	81007943 	ldbu	r4,485(r16)
  802054:	1004963a 	slli	r2,r2,24
  802058:	1806943a 	slli	r3,r3,16
  80205c:	81407903 	ldbu	r5,484(r16)
  802060:	2008923a 	slli	r4,r4,8
  802064:	10c4b03a 	or	r2,r2,r3
  802068:	1144b03a 	or	r2,r2,r5
  80206c:	2088b03a 	or	r4,r4,r2
  802070:	00985074 	movhi	r2,24897
  802074:	109c9c84 	addi	r2,r2,29298
  802078:	2080161e 	bne	r4,r2,8020d4 <chk_mounted+0x4c8>
			LD_WORD(fs->win+BS_55AA) == 0xAA55 &&
			LD_DWORD(fs->win+FSI_LeadSig) == 0x41615252 &&
			LD_DWORD(fs->win+FSI_StrucSig) == 0x61417272) {
				fs->last_clust = LD_DWORD(fs->win+FSI_Nxt_Free);
  80207c:	80807bc3 	ldbu	r2,495(r16)
  802080:	81007b83 	ldbu	r4,494(r16)
  802084:	80c07b43 	ldbu	r3,493(r16)
  802088:	1004963a 	slli	r2,r2,24
  80208c:	2008943a 	slli	r4,r4,16
  802090:	81407b03 	ldbu	r5,492(r16)
  802094:	1806923a 	slli	r3,r3,8
  802098:	1104b03a 	or	r2,r2,r4
  80209c:	1144b03a 	or	r2,r2,r5
  8020a0:	1886b03a 	or	r3,r3,r2
  8020a4:	88c00315 	stw	r3,12(r17)
				fs->free_clust = LD_DWORD(fs->win+FSI_Free_Count);
  8020a8:	80807ac3 	ldbu	r2,491(r16)
  8020ac:	81007a83 	ldbu	r4,490(r16)
  8020b0:	80c07a43 	ldbu	r3,489(r16)
  8020b4:	1004963a 	slli	r2,r2,24
  8020b8:	2008943a 	slli	r4,r4,16
  8020bc:	81407a03 	ldbu	r5,488(r16)
  8020c0:	1806923a 	slli	r3,r3,8
  8020c4:	1104b03a 	or	r2,r2,r4
  8020c8:	1144b03a 	or	r2,r2,r5
  8020cc:	1886b03a 	or	r3,r3,r2
  8020d0:	88c00415 	stw	r3,16(r17)
		}
	}
#endif
	fs->fs_type = fmt;		/* FAT sub-type */
  8020d4:	8cc00005 	stb	r19,0(r17)
	fs->id = ++Fsid;		/* File system mount ID */
  8020d8:	d0a6ea0b 	ldhu	r2,-25688(gp)
	fs->winsect = 0;		/* Invalidate sector cache */
	fs->wflag = 0;
#if _FS_RPATH
	fs->cdir = 0;			/* Current directory (root dir) */
  8020dc:	0007883a 	mov	r3,zero
  8020e0:	88000615 	stw	zero,24(r17)
				fs->free_clust = LD_DWORD(fs->win+FSI_Free_Count);
		}
	}
#endif
	fs->fs_type = fmt;		/* FAT sub-type */
	fs->id = ++Fsid;		/* File system mount ID */
  8020e4:	10800044 	addi	r2,r2,1
  8020e8:	d0a6ea0d 	sth	r2,-25688(gp)
  8020ec:	8880018d 	sth	r2,6(r17)
	fs->winsect = 0;		/* Invalidate sector cache */
  8020f0:	88000c15 	stw	zero,48(r17)
	fs->wflag = 0;
  8020f4:	88000105 	stb	zero,4(r17)
  8020f8:	00000f06 	br	802138 <chk_mounted+0x52c>
#endif
#if _FS_SHARE				/* Clear file lock semaphores */
	clear_lock(fs);
#endif

	return FR_OK;
  8020fc:	00c00284 	movi	r3,10
  802100:	00000d06 	br	802138 <chk_mounted+0x52c>
  802104:	0007883a 	mov	r3,zero
  802108:	00000b06 	br	802138 <chk_mounted+0x52c>
  80210c:	00c00344 	movi	r3,13
  802110:	00000906 	br	802138 <chk_mounted+0x52c>
	/* Boundaries and Limits */
	fs->n_fatent = nclst + 2;							/* Number of FAT entries */
	fs->database = bsect + sysect;						/* Data start sector */
	fs->fatbase = bsect + nrsv; 						/* FAT start sector */
	if (fmt == FS_FAT32) {
		if (fs->n_rootdir) return FR_NO_FILESYSTEM;		/* (BPB_RootEntCnt must be 0) */
  802114:	8940020b 	ldhu	r5,8(r17)
	fmt = FS_FAT12;
	if (nclst >= MIN_FAT16) fmt = FS_FAT16;
	if (nclst >= MIN_FAT32) fmt = FS_FAT32;

	/* Boundaries and Limits */
	fs->n_fatent = nclst + 2;							/* Number of FAT entries */
  802118:	20800084 	addi	r2,r4,2
	fs->database = bsect + sysect;						/* Data start sector */
  80211c:	b487883a 	add	r3,r22,r18
	fs->fatbase = bsect + nrsv; 						/* FAT start sector */
  802120:	b509883a 	add	r4,r22,r20
	fmt = FS_FAT12;
	if (nclst >= MIN_FAT16) fmt = FS_FAT16;
	if (nclst >= MIN_FAT32) fmt = FS_FAT32;

	/* Boundaries and Limits */
	fs->n_fatent = nclst + 2;							/* Number of FAT entries */
  802124:	88800715 	stw	r2,28(r17)
	fs->database = bsect + sysect;						/* Data start sector */
  802128:	88c00b15 	stw	r3,44(r17)
	fs->fatbase = bsect + nrsv; 						/* FAT start sector */
  80212c:	89000915 	stw	r4,36(r17)
	if (fmt == FS_FAT32) {
		if (fs->n_rootdir) return FR_NO_FILESYSTEM;		/* (BPB_RootEntCnt must be 0) */
  802130:	283ff61e 	bne	r5,zero,80210c <chk_mounted+0x500>
  802134:	003f7c06 	br	801f28 <chk_mounted+0x31c>
#if _FS_SHARE				/* Clear file lock semaphores */
	clear_lock(fs);
#endif

	return FR_OK;
}
  802138:	1805883a 	mov	r2,r3
  80213c:	dfc00717 	ldw	ra,28(sp)
  802140:	dd800617 	ldw	r22,24(sp)
  802144:	dd400517 	ldw	r21,20(sp)
  802148:	dd000417 	ldw	r20,16(sp)
  80214c:	dcc00317 	ldw	r19,12(sp)
  802150:	dc800217 	ldw	r18,8(sp)
  802154:	dc400117 	ldw	r17,4(sp)
  802158:	dc000017 	ldw	r16,0(sp)
  80215c:	dec00804 	addi	sp,sp,32
  802160:	f800283a 	ret

00802164 <move_window>:
static
FRESULT move_window (
	FATFS *fs,		/* File system object */
	DWORD sector	/* Sector number to make appearance in the fs->win[] */
)					/* Move to zero only writes back dirty window */
{
  802164:	defffa04 	addi	sp,sp,-24
  802168:	dc800215 	stw	r18,8(sp)
	DWORD wsect;


	wsect = fs->winsect;
  80216c:	24800c17 	ldw	r18,48(r4)
static
FRESULT move_window (
	FATFS *fs,		/* File system object */
	DWORD sector	/* Sector number to make appearance in the fs->win[] */
)					/* Move to zero only writes back dirty window */
{
  802170:	dcc00315 	stw	r19,12(sp)
  802174:	dc000015 	stw	r16,0(sp)
  802178:	dfc00515 	stw	ra,20(sp)
  80217c:	dd000415 	stw	r20,16(sp)
  802180:	dc400115 	stw	r17,4(sp)
  802184:	2021883a 	mov	r16,r4
  802188:	2827883a 	mov	r19,r5
	DWORD wsect;


	wsect = fs->winsect;
	if (wsect != sector) {	/* Changed current window */
  80218c:	91402626 	beq	r18,r5,802228 <move_window+0xc4>
#if !_FS_READONLY
		if (fs->wflag) {	/* Write back dirty window if needed */
  802190:	20800103 	ldbu	r2,4(r4)
  802194:	10001926 	beq	r2,zero,8021fc <move_window+0x98>
			if (disk_write(fs->drv, fs->win, wsect, 1) != RES_OK)
  802198:	21000043 	ldbu	r4,1(r4)
  80219c:	85000d04 	addi	r20,r16,52
  8021a0:	a00b883a 	mov	r5,r20
  8021a4:	900d883a 	mov	r6,r18
  8021a8:	01c00044 	movi	r7,1
  8021ac:	08015a40 	call	8015a4 <disk_write>
  8021b0:	10001b1e 	bne	r2,zero,802220 <move_window+0xbc>
				return FR_DISK_ERR;
			fs->wflag = 0;
			if (wsect < (fs->fatbase + fs->fsize)) {	/* In FAT area */
  8021b4:	80800917 	ldw	r2,36(r16)
  8021b8:	80c00817 	ldw	r3,32(r16)
	if (wsect != sector) {	/* Changed current window */
#if !_FS_READONLY
		if (fs->wflag) {	/* Write back dirty window if needed */
			if (disk_write(fs->drv, fs->win, wsect, 1) != RES_OK)
				return FR_DISK_ERR;
			fs->wflag = 0;
  8021bc:	80000105 	stb	zero,4(r16)
			if (wsect < (fs->fatbase + fs->fsize)) {	/* In FAT area */
  8021c0:	10c5883a 	add	r2,r2,r3
  8021c4:	90800d2e 	bgeu	r18,r2,8021fc <move_window+0x98>
				BYTE nf;
				for (nf = fs->n_fats; nf > 1; nf--) {	/* Reflect the change to all FAT copies */
  8021c8:	844000c3 	ldbu	r17,3(r16)
  8021cc:	00000506 	br	8021e4 <move_window+0x80>
					wsect += fs->fsize;
  8021d0:	80800817 	ldw	r2,32(r16)
					disk_write(fs->drv, fs->win, wsect, 1);
  8021d4:	81000043 	ldbu	r4,1(r16)
				return FR_DISK_ERR;
			fs->wflag = 0;
			if (wsect < (fs->fatbase + fs->fsize)) {	/* In FAT area */
				BYTE nf;
				for (nf = fs->n_fats; nf > 1; nf--) {	/* Reflect the change to all FAT copies */
					wsect += fs->fsize;
  8021d8:	90a5883a 	add	r18,r18,r2
					disk_write(fs->drv, fs->win, wsect, 1);
  8021dc:	900d883a 	mov	r6,r18
  8021e0:	08015a40 	call	8015a4 <disk_write>
			if (disk_write(fs->drv, fs->win, wsect, 1) != RES_OK)
				return FR_DISK_ERR;
			fs->wflag = 0;
			if (wsect < (fs->fatbase + fs->fsize)) {	/* In FAT area */
				BYTE nf;
				for (nf = fs->n_fats; nf > 1; nf--) {	/* Reflect the change to all FAT copies */
  8021e4:	88c03fcc 	andi	r3,r17,255
  8021e8:	00800044 	movi	r2,1
					wsect += fs->fsize;
					disk_write(fs->drv, fs->win, wsect, 1);
  8021ec:	a00b883a 	mov	r5,r20
  8021f0:	100f883a 	mov	r7,r2
			if (disk_write(fs->drv, fs->win, wsect, 1) != RES_OK)
				return FR_DISK_ERR;
			fs->wflag = 0;
			if (wsect < (fs->fatbase + fs->fsize)) {	/* In FAT area */
				BYTE nf;
				for (nf = fs->n_fats; nf > 1; nf--) {	/* Reflect the change to all FAT copies */
  8021f4:	8c7fffc4 	addi	r17,r17,-1
  8021f8:	10fff536 	bltu	r2,r3,8021d0 <move_window+0x6c>
					disk_write(fs->drv, fs->win, wsect, 1);
				}
			}
		}
#endif
		if (sector) {
  8021fc:	98000a26 	beq	r19,zero,802228 <move_window+0xc4>
			if (disk_read(fs->drv, fs->win, sector, 1) != RES_OK)
  802200:	81000043 	ldbu	r4,1(r16)
  802204:	81400d04 	addi	r5,r16,52
  802208:	980d883a 	mov	r6,r19
  80220c:	01c00044 	movi	r7,1
  802210:	08016b00 	call	8016b0 <disk_read>
  802214:	1000021e 	bne	r2,zero,802220 <move_window+0xbc>
				return FR_DISK_ERR;
			fs->winsect = sector;
  802218:	84c00c15 	stw	r19,48(r16)
  80221c:	00000306 	br	80222c <move_window+0xc8>
  802220:	00800044 	movi	r2,1
  802224:	00000106 	br	80222c <move_window+0xc8>
  802228:	0005883a 	mov	r2,zero
		}
	}

	return FR_OK;
}
  80222c:	dfc00517 	ldw	ra,20(sp)
  802230:	dd000417 	ldw	r20,16(sp)
  802234:	dcc00317 	ldw	r19,12(sp)
  802238:	dc800217 	ldw	r18,8(sp)
  80223c:	dc400117 	ldw	r17,4(sp)
  802240:	dc000017 	ldw	r16,0(sp)
  802244:	dec00604 	addi	sp,sp,24
  802248:	f800283a 	ret

0080224c <put_fat>:
FRESULT put_fat (
	FATFS *fs,	/* File system object */
	DWORD clst,	/* Cluster# to be changed in range of 2 to fs->n_fatent - 1 */
	DWORD val	/* New value to mark the cluster */
)
{
  80224c:	defff904 	addi	sp,sp,-28
  802250:	dc000015 	stw	r16,0(sp)
  802254:	2821883a 	mov	r16,r5
	UINT bc;
	BYTE *p;
	FRESULT res;


	if (clst < 2 || clst >= fs->n_fatent) {	/* Check range */
  802258:	01400044 	movi	r5,1
FRESULT put_fat (
	FATFS *fs,	/* File system object */
	DWORD clst,	/* Cluster# to be changed in range of 2 to fs->n_fatent - 1 */
	DWORD val	/* New value to mark the cluster */
)
{
  80225c:	dd000415 	stw	r20,16(sp)
  802260:	dc800215 	stw	r18,8(sp)
  802264:	dfc00615 	stw	ra,24(sp)
  802268:	dd400515 	stw	r21,20(sp)
  80226c:	dcc00315 	stw	r19,12(sp)
  802270:	dc400115 	stw	r17,4(sp)
  802274:	3029883a 	mov	r20,r6
  802278:	2025883a 	mov	r18,r4
	UINT bc;
	BYTE *p;
	FRESULT res;


	if (clst < 2 || clst >= fs->n_fatent) {	/* Check range */
  80227c:	2c005e2e 	bgeu	r5,r16,8023f8 <put_fat+0x1ac>
  802280:	20800717 	ldw	r2,28(r4)
  802284:	80805c2e 	bgeu	r16,r2,8023f8 <put_fat+0x1ac>
		res = FR_INT_ERR;

	} else {
		switch (fs->fs_type) {
  802288:	24400003 	ldbu	r17,0(r4)
  80228c:	00c00084 	movi	r3,2
  802290:	88c03126 	beq	r17,r3,802358 <put_fat+0x10c>
  802294:	008000c4 	movi	r2,3
  802298:	88803d26 	beq	r17,r2,802390 <put_fat+0x144>
  80229c:	89400226 	beq	r17,r5,8022a8 <put_fat+0x5c>
  8022a0:	1811883a 	mov	r8,r3
  8022a4:	00005106 	br	8023ec <put_fat+0x1a0>
		case FS_FAT12 :
			bc = clst; bc += bc / 2;
  8022a8:	8004d07a 	srli	r2,r16,1
			res = move_window(fs, fs->fatbase + (bc / SS(fs)));
  8022ac:	20c00917 	ldw	r3,36(r4)
		res = FR_INT_ERR;

	} else {
		switch (fs->fs_type) {
		case FS_FAT12 :
			bc = clst; bc += bc / 2;
  8022b0:	80a7883a 	add	r19,r16,r2
			res = move_window(fs, fs->fatbase + (bc / SS(fs)));
  8022b4:	980ad27a 	srli	r5,r19,9
  8022b8:	28cb883a 	add	r5,r5,r3
  8022bc:	08021640 	call	802164 <move_window>
  8022c0:	1011883a 	mov	r8,r2
			if (res != FR_OK) break;
  8022c4:	1000491e 	bne	r2,zero,8023ec <put_fat+0x1a0>
			p = &fs->win[bc % SS(fs)];
			*p = (clst & 1) ? ((*p & 0x0F) | ((BYTE)val << 4)) : (BYTE)val;
  8022c8:	846a703a 	and	r21,r16,r17
		switch (fs->fs_type) {
		case FS_FAT12 :
			bc = clst; bc += bc / 2;
			res = move_window(fs, fs->fatbase + (bc / SS(fs)));
			if (res != FR_OK) break;
			p = &fs->win[bc % SS(fs)];
  8022cc:	98807fcc 	andi	r2,r19,511
  8022d0:	94400d04 	addi	r17,r18,52
  8022d4:	8889883a 	add	r4,r17,r2
			*p = (clst & 1) ? ((*p & 0x0F) | ((BYTE)val << 4)) : (BYTE)val;
  8022d8:	a8000626 	beq	r21,zero,8022f4 <put_fat+0xa8>
  8022dc:	20c00003 	ldbu	r3,0(r4)
  8022e0:	a0803fcc 	andi	r2,r20,255
  8022e4:	1004913a 	slli	r2,r2,4
  8022e8:	18c003cc 	andi	r3,r3,15
  8022ec:	1886b03a 	or	r3,r3,r2
  8022f0:	00000106 	br	8022f8 <put_fat+0xac>
  8022f4:	a007883a 	mov	r3,r20
  8022f8:	20c00005 	stb	r3,0(r4)
			bc++;
  8022fc:	9c000044 	addi	r16,r19,1
			fs->wflag = 1;
			res = move_window(fs, fs->fatbase + (bc / SS(fs)));
  802300:	90c00917 	ldw	r3,36(r18)
  802304:	800ad27a 	srli	r5,r16,9
			res = move_window(fs, fs->fatbase + (bc / SS(fs)));
			if (res != FR_OK) break;
			p = &fs->win[bc % SS(fs)];
			*p = (clst & 1) ? ((*p & 0x0F) | ((BYTE)val << 4)) : (BYTE)val;
			bc++;
			fs->wflag = 1;
  802308:	00800044 	movi	r2,1
  80230c:	90800105 	stb	r2,4(r18)
			res = move_window(fs, fs->fatbase + (bc / SS(fs)));
  802310:	28cb883a 	add	r5,r5,r3
  802314:	9009883a 	mov	r4,r18
  802318:	08021640 	call	802164 <move_window>
  80231c:	1011883a 	mov	r8,r2
			if (res != FR_OK) break;
  802320:	1000321e 	bne	r2,zero,8023ec <put_fat+0x1a0>
			p = &fs->win[bc % SS(fs)];
  802324:	80807fcc 	andi	r2,r16,511
  802328:	888b883a 	add	r5,r17,r2
			*p = (clst & 1) ? (BYTE)(val >> 4) : ((*p & 0xF0) | ((BYTE)(val >> 8) & 0x0F));
  80232c:	a8000226 	beq	r21,zero,802338 <put_fat+0xec>
  802330:	a006d13a 	srli	r3,r20,4
  802334:	00000606 	br	802350 <put_fat+0x104>
  802338:	a004d23a 	srli	r2,r20,8
  80233c:	28c00003 	ldbu	r3,0(r5)
  802340:	013ffc04 	movi	r4,-16
  802344:	108003cc 	andi	r2,r2,15
  802348:	1906703a 	and	r3,r3,r4
  80234c:	1886b03a 	or	r3,r3,r2
  802350:	28c00005 	stb	r3,0(r5)
  802354:	00002506 	br	8023ec <put_fat+0x1a0>
			break;

		case FS_FAT16 :
			res = move_window(fs, fs->fatbase + (clst / (SS(fs) / 2)));
  802358:	20800917 	ldw	r2,36(r4)
  80235c:	800ad23a 	srli	r5,r16,8
  802360:	288b883a 	add	r5,r5,r2
  802364:	08021640 	call	802164 <move_window>
  802368:	1011883a 	mov	r8,r2
			if (res != FR_OK) break;
  80236c:	10001f1e 	bne	r2,zero,8023ec <put_fat+0x1a0>
			p = &fs->win[clst * 2 % SS(fs)];
  802370:	8405883a 	add	r2,r16,r16
			ST_WORD(p, (WORD)val);
  802374:	a008d23a 	srli	r4,r20,8
			break;

		case FS_FAT16 :
			res = move_window(fs, fs->fatbase + (clst / (SS(fs) / 2)));
			if (res != FR_OK) break;
			p = &fs->win[clst * 2 % SS(fs)];
  802378:	10807fcc 	andi	r2,r2,511
  80237c:	90c00d04 	addi	r3,r18,52
  802380:	1887883a 	add	r3,r3,r2
			ST_WORD(p, (WORD)val);
  802384:	19000045 	stb	r4,1(r3)
  802388:	1d000005 	stb	r20,0(r3)
  80238c:	00001706 	br	8023ec <put_fat+0x1a0>
			break;

		case FS_FAT32 :
			res = move_window(fs, fs->fatbase + (clst / (SS(fs) / 4)));
  802390:	20800917 	ldw	r2,36(r4)
  802394:	800ad1fa 	srli	r5,r16,7
  802398:	288b883a 	add	r5,r5,r2
  80239c:	08021640 	call	802164 <move_window>
  8023a0:	1011883a 	mov	r8,r2
			if (res != FR_OK) break;
  8023a4:	1000111e 	bne	r2,zero,8023ec <put_fat+0x1a0>
			p = &fs->win[clst * 4 % SS(fs)];
  8023a8:	8405883a 	add	r2,r16,r16
  8023ac:	1085883a 	add	r2,r2,r2
  8023b0:	10807fcc 	andi	r2,r2,511
  8023b4:	90c00d04 	addi	r3,r18,52
  8023b8:	1887883a 	add	r3,r3,r2
			val |= LD_DWORD(p) & 0xF0000000;
  8023bc:	1c4f883a 	add	r7,r3,r17
  8023c0:	38800003 	ldbu	r2,0(r7)
  8023c4:	1004963a 	slli	r2,r2,24
  8023c8:	10bc002c 	andhi	r2,r2,61440
  8023cc:	a084b03a 	or	r2,r20,r2
			ST_DWORD(p, val);
  8023d0:	1008d23a 	srli	r4,r2,8
  8023d4:	100ad43a 	srli	r5,r2,16
  8023d8:	100cd63a 	srli	r6,r2,24
  8023dc:	19000045 	stb	r4,1(r3)
  8023e0:	19400085 	stb	r5,2(r3)
  8023e4:	18800005 	stb	r2,0(r3)
  8023e8:	39800005 	stb	r6,0(r7)
			break;

		default :
			res = FR_INT_ERR;
		}
		fs->wflag = 1;
  8023ec:	00800044 	movi	r2,1
  8023f0:	90800105 	stb	r2,4(r18)
  8023f4:	00000106 	br	8023fc <put_fat+0x1b0>
  8023f8:	02000084 	movi	r8,2
	}

	return res;
}
  8023fc:	4005883a 	mov	r2,r8
  802400:	dfc00617 	ldw	ra,24(sp)
  802404:	dd400517 	ldw	r21,20(sp)
  802408:	dd000417 	ldw	r20,16(sp)
  80240c:	dcc00317 	ldw	r19,12(sp)
  802410:	dc800217 	ldw	r18,8(sp)
  802414:	dc400117 	ldw	r17,4(sp)
  802418:	dc000017 	ldw	r16,0(sp)
  80241c:	dec00704 	addi	sp,sp,28
  802420:	f800283a 	ret

00802424 <get_fat>:

DWORD get_fat (	/* 0xFFFFFFFF:Disk error, 1:Internal error, Else:Cluster status */
	FATFS *fs,	/* File system object */
	DWORD clst	/* Cluster# to get the link information */
)
{
  802424:	defffa04 	addi	sp,sp,-24
	UINT wc, bc;
	BYTE *p;


	if (clst < 2 || clst >= fs->n_fatent)	/* Chack range */
  802428:	00c00044 	movi	r3,1

DWORD get_fat (	/* 0xFFFFFFFF:Disk error, 1:Internal error, Else:Cluster status */
	FATFS *fs,	/* File system object */
	DWORD clst	/* Cluster# to get the link information */
)
{
  80242c:	dc800215 	stw	r18,8(sp)
  802430:	dc400115 	stw	r17,4(sp)
  802434:	dfc00515 	stw	ra,20(sp)
  802438:	dd000415 	stw	r20,16(sp)
  80243c:	dcc00315 	stw	r19,12(sp)
  802440:	dc000015 	stw	r16,0(sp)
  802444:	2825883a 	mov	r18,r5
  802448:	2023883a 	mov	r17,r4
	UINT wc, bc;
	BYTE *p;


	if (clst < 2 || clst >= fs->n_fatent)	/* Chack range */
  80244c:	19404b2e 	bgeu	r3,r5,80257c <get_fat+0x158>
  802450:	20800717 	ldw	r2,28(r4)
  802454:	2880492e 	bgeu	r5,r2,80257c <get_fat+0x158>
		return 1;

	switch (fs->fs_type) {
  802458:	24c00003 	ldbu	r19,0(r4)
  80245c:	00800084 	movi	r2,2
  802460:	98802026 	beq	r19,r2,8024e4 <get_fat+0xc0>
  802464:	008000c4 	movi	r2,3
  802468:	98802c26 	beq	r19,r2,80251c <get_fat+0xf8>
  80246c:	98c0451e 	bne	r19,r3,802584 <get_fat+0x160>
	case FS_FAT12 :
		bc = (UINT)clst; bc += bc / 2;
  802470:	28c4d83a 	srl	r2,r5,r3
		if (move_window(fs, fs->fatbase + (bc / SS(fs)))) break;
  802474:	20c00917 	ldw	r3,36(r4)
	if (clst < 2 || clst >= fs->n_fatent)	/* Chack range */
		return 1;

	switch (fs->fs_type) {
	case FS_FAT12 :
		bc = (UINT)clst; bc += bc / 2;
  802478:	28a1883a 	add	r16,r5,r2
		if (move_window(fs, fs->fatbase + (bc / SS(fs)))) break;
  80247c:	800ad27a 	srli	r5,r16,9
  802480:	28cb883a 	add	r5,r5,r3
  802484:	08021640 	call	802164 <move_window>
  802488:	10003e1e 	bne	r2,zero,802584 <get_fat+0x160>
		wc = fs->win[bc % SS(fs)]; bc++;
  80248c:	84e9883a 	add	r20,r16,r19
		if (move_window(fs, fs->fatbase + (bc / SS(fs)))) break;
  802490:	a006d27a 	srli	r3,r20,9
  802494:	89400917 	ldw	r5,36(r17)

	switch (fs->fs_type) {
	case FS_FAT12 :
		bc = (UINT)clst; bc += bc / 2;
		if (move_window(fs, fs->fatbase + (bc / SS(fs)))) break;
		wc = fs->win[bc % SS(fs)]; bc++;
  802498:	80807fcc 	andi	r2,r16,511
  80249c:	1445883a 	add	r2,r2,r17
		if (move_window(fs, fs->fatbase + (bc / SS(fs)))) break;
  8024a0:	194b883a 	add	r5,r3,r5
  8024a4:	8809883a 	mov	r4,r17

	switch (fs->fs_type) {
	case FS_FAT12 :
		bc = (UINT)clst; bc += bc / 2;
		if (move_window(fs, fs->fatbase + (bc / SS(fs)))) break;
		wc = fs->win[bc % SS(fs)]; bc++;
  8024a8:	14000d03 	ldbu	r16,52(r2)
		if (move_window(fs, fs->fatbase + (bc / SS(fs)))) break;
  8024ac:	08021640 	call	802164 <move_window>
  8024b0:	1000341e 	bne	r2,zero,802584 <get_fat+0x160>
		wc |= fs->win[bc % SS(fs)] << 8;
  8024b4:	a0807fcc 	andi	r2,r20,511
  8024b8:	1445883a 	add	r2,r2,r17
  8024bc:	10800d03 	ldbu	r2,52(r2)

	switch (fs->fs_type) {
	case FS_FAT12 :
		bc = (UINT)clst; bc += bc / 2;
		if (move_window(fs, fs->fatbase + (bc / SS(fs)))) break;
		wc = fs->win[bc % SS(fs)]; bc++;
  8024c0:	80c03fcc 	andi	r3,r16,255
		if (move_window(fs, fs->fatbase + (bc / SS(fs)))) break;
		wc |= fs->win[bc % SS(fs)] << 8;
		return (clst & 1) ? (wc >> 4) : (wc & 0xFFF);
  8024c4:	94c8703a 	and	r4,r18,r19
	case FS_FAT12 :
		bc = (UINT)clst; bc += bc / 2;
		if (move_window(fs, fs->fatbase + (bc / SS(fs)))) break;
		wc = fs->win[bc % SS(fs)]; bc++;
		if (move_window(fs, fs->fatbase + (bc / SS(fs)))) break;
		wc |= fs->win[bc % SS(fs)] << 8;
  8024c8:	1004923a 	slli	r2,r2,8
  8024cc:	1884b03a 	or	r2,r3,r2
		return (clst & 1) ? (wc >> 4) : (wc & 0xFFF);
  8024d0:	20000226 	beq	r4,zero,8024dc <get_fat+0xb8>
  8024d4:	1004d13a 	srli	r2,r2,4
  8024d8:	00002b06 	br	802588 <get_fat+0x164>
  8024dc:	1083ffcc 	andi	r2,r2,4095
  8024e0:	00002906 	br	802588 <get_fat+0x164>

	case FS_FAT16 :
		if (move_window(fs, fs->fatbase + (clst / (SS(fs) / 2)))) break;
  8024e4:	2804d23a 	srli	r2,r5,8
  8024e8:	21400917 	ldw	r5,36(r4)
  8024ec:	114b883a 	add	r5,r2,r5
  8024f0:	08021640 	call	802164 <move_window>
  8024f4:	1000231e 	bne	r2,zero,802584 <get_fat+0x160>
		p = &fs->win[clst * 2 % SS(fs)];
  8024f8:	9485883a 	add	r2,r18,r18
  8024fc:	10807fcc 	andi	r2,r2,511
  802500:	88c00d04 	addi	r3,r17,52
  802504:	1887883a 	add	r3,r3,r2
		return LD_WORD(p);
  802508:	18800043 	ldbu	r2,1(r3)
  80250c:	18c00003 	ldbu	r3,0(r3)
  802510:	1004923a 	slli	r2,r2,8
  802514:	10c4b03a 	or	r2,r2,r3
  802518:	00001b06 	br	802588 <get_fat+0x164>

	case FS_FAT32 :
		if (move_window(fs, fs->fatbase + (clst / (SS(fs) / 4)))) break;
  80251c:	2804d1fa 	srli	r2,r5,7
  802520:	21400917 	ldw	r5,36(r4)
  802524:	114b883a 	add	r5,r2,r5
  802528:	08021640 	call	802164 <move_window>
  80252c:	1000151e 	bne	r2,zero,802584 <get_fat+0x160>
		p = &fs->win[clst * 4 % SS(fs)];
  802530:	9485883a 	add	r2,r18,r18
  802534:	1085883a 	add	r2,r2,r2
  802538:	10807fcc 	andi	r2,r2,511
  80253c:	88c00d04 	addi	r3,r17,52
  802540:	1887883a 	add	r3,r3,r2
		return LD_DWORD(p) & 0x0FFFFFFF;
  802544:	188000c3 	ldbu	r2,3(r3)
  802548:	19000083 	ldbu	r4,2(r3)
  80254c:	19400043 	ldbu	r5,1(r3)
  802550:	1004963a 	slli	r2,r2,24
  802554:	2008943a 	slli	r4,r4,16
  802558:	18c00003 	ldbu	r3,0(r3)
  80255c:	280a923a 	slli	r5,r5,8
  802560:	1104b03a 	or	r2,r2,r4
  802564:	10c4b03a 	or	r2,r2,r3
  802568:	288ab03a 	or	r5,r5,r2
  80256c:	00840034 	movhi	r2,4096
  802570:	10bfffc4 	addi	r2,r2,-1
  802574:	2884703a 	and	r2,r5,r2
  802578:	00000306 	br	802588 <get_fat+0x164>
  80257c:	00800044 	movi	r2,1
  802580:	00000106 	br	802588 <get_fat+0x164>
  802584:	00bfffc4 	movi	r2,-1
	}

	return 0xFFFFFFFF;	/* An error occurred at the disk I/O layer */
}
  802588:	dfc00517 	ldw	ra,20(sp)
  80258c:	dd000417 	ldw	r20,16(sp)
  802590:	dcc00317 	ldw	r19,12(sp)
  802594:	dc800217 	ldw	r18,8(sp)
  802598:	dc400117 	ldw	r17,4(sp)
  80259c:	dc000017 	ldw	r16,0(sp)
  8025a0:	dec00604 	addi	sp,sp,24
  8025a4:	f800283a 	ret

008025a8 <f_getfree>:
FRESULT f_getfree (
	const TCHAR *path,	/* Pointer to the logical drive number (root dir) */
	DWORD *nclst,		/* Pointer to the variable to return number of free clusters */
	FATFS **fatfs		/* Pointer to pointer to corresponding file system object to return */
)
{
  8025a8:	defff704 	addi	sp,sp,-36
  8025ac:	dd800715 	stw	r22,28(sp)
  8025b0:	dc000115 	stw	r16,4(sp)
  8025b4:	d9000015 	stw	r4,0(sp)
  8025b8:	3021883a 	mov	r16,r6
  8025bc:	282d883a 	mov	r22,r5
	UINT i;
	BYTE fat, *p;


	/* Get drive number */
	res = chk_mounted(&path, fatfs, 0);
  8025c0:	d809883a 	mov	r4,sp
  8025c4:	300b883a 	mov	r5,r6
  8025c8:	000d883a 	mov	r6,zero
FRESULT f_getfree (
	const TCHAR *path,	/* Pointer to the logical drive number (root dir) */
	DWORD *nclst,		/* Pointer to the variable to return number of free clusters */
	FATFS **fatfs		/* Pointer to pointer to corresponding file system object to return */
)
{
  8025cc:	dd000515 	stw	r20,20(sp)
  8025d0:	dfc00815 	stw	ra,32(sp)
  8025d4:	dd400615 	stw	r21,24(sp)
  8025d8:	dcc00415 	stw	r19,16(sp)
  8025dc:	dc800315 	stw	r18,12(sp)
  8025e0:	dc400215 	stw	r17,8(sp)
	UINT i;
	BYTE fat, *p;


	/* Get drive number */
	res = chk_mounted(&path, fatfs, 0);
  8025e4:	0801c0c0 	call	801c0c <chk_mounted>
  8025e8:	1029883a 	mov	r20,r2
	if (res == FR_OK) {
  8025ec:	10005a1e 	bne	r2,zero,802758 <f_getfree+0x1b0>
		/* If free_clust is valid, return it without full cluster scan */
		if ((*fatfs)->free_clust <= (*fatfs)->n_fatent - 2) {
  8025f0:	81400017 	ldw	r5,0(r16)
  8025f4:	2c400717 	ldw	r17,28(r5)
  8025f8:	28c00417 	ldw	r3,16(r5)
  8025fc:	88bfff84 	addi	r2,r17,-2
  802600:	10c00236 	bltu	r2,r3,80260c <f_getfree+0x64>
			*nclst = (*fatfs)->free_clust;
  802604:	b0c00015 	stw	r3,0(r22)
  802608:	00005306 	br	802758 <f_getfree+0x1b0>
		} else {
			/* Get number of free clusters */
			fat = (*fatfs)->fs_type;
  80260c:	2d400003 	ldbu	r21,0(r5)
			n = 0;
			if (fat == FS_FAT12) {
  802610:	00800044 	movi	r2,1
  802614:	a8c03fcc 	andi	r3,r21,255
  802618:	1880111e 	bne	r3,r2,802660 <f_getfree+0xb8>
  80261c:	0025883a 	mov	r18,zero
  802620:	04400084 	movi	r17,2
				clst = 2;
				do {
					stat = get_fat(*fatfs, clst);
  802624:	81000017 	ldw	r4,0(r16)
  802628:	880b883a 	mov	r5,r17
					if (stat == 0xFFFFFFFF) { res = FR_DISK_ERR; break; }
					if (stat == 1) { res = FR_INT_ERR; break; }
					if (stat == 0) n++;
				} while (++clst < (*fatfs)->n_fatent);
  80262c:	8c400044 	addi	r17,r17,1
			fat = (*fatfs)->fs_type;
			n = 0;
			if (fat == FS_FAT12) {
				clst = 2;
				do {
					stat = get_fat(*fatfs, clst);
  802630:	08024240 	call	802424 <get_fat>
  802634:	1007883a 	mov	r3,r2
					if (stat == 0xFFFFFFFF) { res = FR_DISK_ERR; break; }
  802638:	00bfffc4 	movi	r2,-1
  80263c:	18804226 	beq	r3,r2,802748 <f_getfree+0x1a0>
					if (stat == 1) { res = FR_INT_ERR; break; }
  802640:	00800044 	movi	r2,1
  802644:	18803e26 	beq	r3,r2,802740 <f_getfree+0x198>
					if (stat == 0) n++;
  802648:	1800011e 	bne	r3,zero,802650 <f_getfree+0xa8>
  80264c:	90a5883a 	add	r18,r18,r2
				} while (++clst < (*fatfs)->n_fatent);
  802650:	80800017 	ldw	r2,0(r16)
  802654:	10800717 	ldw	r2,28(r2)
  802658:	88803c2e 	bgeu	r17,r2,80274c <f_getfree+0x1a4>
  80265c:	003ff106 	br	802624 <f_getfree+0x7c>
			} else {
				clst = (*fatfs)->n_fatent;
				sect = (*fatfs)->fatbase;
  802660:	2cc00917 	ldw	r19,36(r5)
  802664:	0025883a 	mov	r18,zero
  802668:	000f883a 	mov	r7,zero
  80266c:	000d883a 	mov	r6,zero
				i = 0; p = 0;
				do {
					if (!i) {
  802670:	3800091e 	bne	r7,zero,802698 <f_getfree+0xf0>
						res = move_window(*fatfs, sect++);
  802674:	81000017 	ldw	r4,0(r16)
  802678:	980b883a 	mov	r5,r19
  80267c:	08021640 	call	802164 <move_window>
  802680:	1029883a 	mov	r20,r2
						if (res != FR_OK) break;
  802684:	1000251e 	bne	r2,zero,80271c <f_getfree+0x174>
						p = (*fatfs)->win;
  802688:	80800017 	ldw	r2,0(r16)
				clst = (*fatfs)->n_fatent;
				sect = (*fatfs)->fatbase;
				i = 0; p = 0;
				do {
					if (!i) {
						res = move_window(*fatfs, sect++);
  80268c:	9cc00044 	addi	r19,r19,1
						if (res != FR_OK) break;
						p = (*fatfs)->win;
  802690:	01c08004 	movi	r7,512
  802694:	11800d04 	addi	r6,r2,52
						i = SS(*fatfs);
					}
					if (fat == FS_FAT16) {
  802698:	a9003fcc 	andi	r4,r21,255
  80269c:	00800084 	movi	r2,2
  8026a0:	30c00043 	ldbu	r3,1(r6)
  8026a4:	20800b1e 	bne	r4,r2,8026d4 <f_getfree+0x12c>
						if (LD_WORD(p) == 0) n++;
  8026a8:	1804923a 	slli	r2,r3,8
  8026ac:	30c00003 	ldbu	r3,0(r6)
  8026b0:	10c4b03a 	or	r2,r2,r3
  8026b4:	10bfffcc 	andi	r2,r2,65535
  8026b8:	10a0001c 	xori	r2,r2,32768
  8026bc:	10a00004 	addi	r2,r2,-32768
  8026c0:	1000011e 	bne	r2,zero,8026c8 <f_getfree+0x120>
  8026c4:	94800044 	addi	r18,r18,1
						p += 2; i -= 2;
  8026c8:	390fc83a 	sub	r7,r7,r4
  8026cc:	310d883a 	add	r6,r6,r4
  8026d0:	00001006 	br	802714 <f_getfree+0x16c>
					} else {
						if ((LD_DWORD(p) & 0x0FFFFFFF) == 0) n++;
  8026d4:	308000c3 	ldbu	r2,3(r6)
  8026d8:	31000083 	ldbu	r4,2(r6)
  8026dc:	31400003 	ldbu	r5,0(r6)
  8026e0:	1004963a 	slli	r2,r2,24
  8026e4:	2008943a 	slli	r4,r4,16
  8026e8:	1806923a 	slli	r3,r3,8
  8026ec:	1104b03a 	or	r2,r2,r4
  8026f0:	1144b03a 	or	r2,r2,r5
  8026f4:	1886b03a 	or	r3,r3,r2
  8026f8:	00840034 	movhi	r2,4096
  8026fc:	10bfffc4 	addi	r2,r2,-1
  802700:	1886703a 	and	r3,r3,r2
  802704:	1800011e 	bne	r3,zero,80270c <f_getfree+0x164>
  802708:	94800044 	addi	r18,r18,1
						p += 4; i -= 4;
  80270c:	31800104 	addi	r6,r6,4
  802710:	39ffff04 	addi	r7,r7,-4
					}
				} while (--clst);
  802714:	8c7fffc4 	addi	r17,r17,-1
  802718:	883fd51e 	bne	r17,zero,802670 <f_getfree+0xc8>
			}
			(*fatfs)->free_clust = n;
  80271c:	81000017 	ldw	r4,0(r16)
			if (fat == FS_FAT32) (*fatfs)->fsi_flag = 1;
  802720:	a8c03fcc 	andi	r3,r21,255
  802724:	008000c4 	movi	r2,3
						if ((LD_DWORD(p) & 0x0FFFFFFF) == 0) n++;
						p += 4; i -= 4;
					}
				} while (--clst);
			}
			(*fatfs)->free_clust = n;
  802728:	24800415 	stw	r18,16(r4)
			if (fat == FS_FAT32) (*fatfs)->fsi_flag = 1;
  80272c:	1880021e 	bne	r3,r2,802738 <f_getfree+0x190>
  802730:	00800044 	movi	r2,1
  802734:	20800145 	stb	r2,5(r4)
			*nclst = n;
  802738:	b4800015 	stw	r18,0(r22)
  80273c:	00000606 	br	802758 <f_getfree+0x1b0>
			if (fat == FS_FAT12) {
				clst = 2;
				do {
					stat = get_fat(*fatfs, clst);
					if (stat == 0xFFFFFFFF) { res = FR_DISK_ERR; break; }
					if (stat == 1) { res = FR_INT_ERR; break; }
  802740:	05000084 	movi	r20,2
  802744:	00000106 	br	80274c <f_getfree+0x1a4>
					}
				} while (--clst);
			}
			(*fatfs)->free_clust = n;
			if (fat == FS_FAT32) (*fatfs)->fsi_flag = 1;
			*nclst = n;
  802748:	05000044 	movi	r20,1
						if ((LD_DWORD(p) & 0x0FFFFFFF) == 0) n++;
						p += 4; i -= 4;
					}
				} while (--clst);
			}
			(*fatfs)->free_clust = n;
  80274c:	80800017 	ldw	r2,0(r16)
  802750:	14800415 	stw	r18,16(r2)
  802754:	003ff806 	br	802738 <f_getfree+0x190>
			if (fat == FS_FAT32) (*fatfs)->fsi_flag = 1;
			*nclst = n;
		}
	}
	LEAVE_FF(*fatfs, res);
}
  802758:	a005883a 	mov	r2,r20
  80275c:	dfc00817 	ldw	ra,32(sp)
  802760:	dd800717 	ldw	r22,28(sp)
  802764:	dd400617 	ldw	r21,24(sp)
  802768:	dd000517 	ldw	r20,20(sp)
  80276c:	dcc00417 	ldw	r19,16(sp)
  802770:	dc800317 	ldw	r18,12(sp)
  802774:	dc400217 	ldw	r17,8(sp)
  802778:	dc000117 	ldw	r16,4(sp)
  80277c:	dec00904 	addi	sp,sp,36
  802780:	f800283a 	ret

00802784 <f_read>:
	FIL *fp, 		/* Pointer to the file object */
	void *buff,		/* Pointer to data buffer */
	UINT btr,		/* Number of bytes to read */
	UINT *br		/* Pointer to number of bytes read */
)
{
  802784:	defff704 	addi	sp,sp,-36
  802788:	dc000015 	stw	r16,0(sp)
  80278c:	2021883a 	mov	r16,r4
  802790:	dc800215 	stw	r18,8(sp)
	BYTE csect, *rbuff = buff;


	*br = 0;	/* Initialize byte counter */

	res = validate(fp->fs, fp->id);				/* Check validity */
  802794:	21000017 	ldw	r4,0(r4)
	FIL *fp, 		/* Pointer to the file object */
	void *buff,		/* Pointer to data buffer */
	UINT btr,		/* Number of bytes to read */
	UINT *br		/* Pointer to number of bytes read */
)
{
  802798:	2825883a 	mov	r18,r5
	BYTE csect, *rbuff = buff;


	*br = 0;	/* Initialize byte counter */

	res = validate(fp->fs, fp->id);				/* Check validity */
  80279c:	8140010b 	ldhu	r5,4(r16)
	DWORD clst, sect, remain;
	UINT rcnt, cc;
	BYTE csect, *rbuff = buff;


	*br = 0;	/* Initialize byte counter */
  8027a0:	38000015 	stw	zero,0(r7)
	FIL *fp, 		/* Pointer to the file object */
	void *buff,		/* Pointer to data buffer */
	UINT btr,		/* Number of bytes to read */
	UINT *br		/* Pointer to number of bytes read */
)
{
  8027a4:	ddc00715 	stw	r23,28(sp)
  8027a8:	dd400515 	stw	r21,20(sp)
  8027ac:	dc400115 	stw	r17,4(sp)
  8027b0:	dfc00815 	stw	ra,32(sp)
  8027b4:	dd800615 	stw	r22,24(sp)
  8027b8:	dd000415 	stw	r20,16(sp)
  8027bc:	dcc00315 	stw	r19,12(sp)
  8027c0:	382f883a 	mov	r23,r7
  8027c4:	3023883a 	mov	r17,r6
	BYTE csect, *rbuff = buff;


	*br = 0;	/* Initialize byte counter */

	res = validate(fp->fs, fp->id);				/* Check validity */
  8027c8:	0801ad80 	call	801ad8 <validate>
  8027cc:	102b883a 	mov	r21,r2
	if (res != FR_OK) LEAVE_FF(fp->fs, res);
  8027d0:	1000701e 	bne	r2,zero,802994 <f_read+0x210>
	if (fp->flag & FA__ERROR)					/* Aborted file? */
  8027d4:	80c00183 	ldbu	r3,6(r16)
  8027d8:	18803fcc 	andi	r2,r3,255
  8027dc:	1080201c 	xori	r2,r2,128
  8027e0:	10bfe004 	addi	r2,r2,-128
  8027e4:	1000020e 	bge	r2,zero,8027f0 <f_read+0x6c>
  8027e8:	05400084 	movi	r21,2
  8027ec:	00006906 	br	802994 <f_read+0x210>
		LEAVE_FF(fp->fs, FR_INT_ERR);
	if (!(fp->flag & FA_READ)) 					/* Check access mode */
  8027f0:	1880004c 	andi	r2,r3,1
  8027f4:	10000e1e 	bne	r2,zero,802830 <f_read+0xac>
  8027f8:	054001c4 	movi	r21,7
  8027fc:	00006506 	br	802994 <f_read+0x210>
					else
#endif
						clst = get_fat(fp->fs, fp->clust);	/* Follow cluster chain on the FAT */
				}
				if (clst < 2) ABORT(fp->fs, FR_INT_ERR);
				if (clst == 0xFFFFFFFF) ABORT(fp->fs, FR_DISK_ERR);
  802800:	80800183 	ldbu	r2,6(r16)
  802804:	202b883a 	mov	r21,r4
  802808:	00ffe004 	movi	r3,-128
  80280c:	10c4b03a 	or	r2,r2,r3
  802810:	80800185 	stb	r2,6(r16)
  802814:	00005f06 	br	802994 <f_read+0x210>
				fp->clust = clst;				/* Update current cluster */
			}
			sect = clust2sect(fp->fs, fp->clust);	/* Get current sector */
			if (!sect) ABORT(fp->fs, FR_INT_ERR);
  802818:	80800183 	ldbu	r2,6(r16)
  80281c:	05400084 	movi	r21,2
  802820:	003ff906 	br	802808 <f_read+0x84>
		}
		rcnt = SS(fp->fs) - (fp->fptr % SS(fp->fs));	/* Get partial sector data from sector buffer */
		if (rcnt > btr) rcnt = btr;
#if _FS_TINY
		if (move_window(fp->fs, fp->dsect))		/* Move sector window */
			ABORT(fp->fs, FR_DISK_ERR);
  802824:	80800183 	ldbu	r2,6(r16)
  802828:	05400044 	movi	r21,1
  80282c:	003ff606 	br	802808 <f_read+0x84>
)
{
	FRESULT res;
	DWORD clst, sect, remain;
	UINT rcnt, cc;
	BYTE csect, *rbuff = buff;
  802830:	80c00317 	ldw	r3,12(r16)
  802834:	80800217 	ldw	r2,8(r16)
  802838:	902d883a 	mov	r22,r18
  80283c:	18a9c83a 	sub	r20,r3,r2
  802840:	8d00532e 	bgeu	r17,r20,802990 <f_read+0x20c>
  802844:	8829883a 	mov	r20,r17
  802848:	00005106 	br	802990 <f_read+0x20c>
	remain = fp->fsize - fp->fptr;
	if (btr > remain) btr = (UINT)remain;		/* Truncate btr by remaining bytes */

	for ( ;  btr;								/* Repeat until all data read */
		rbuff += rcnt, fp->fptr += rcnt, *br += rcnt, btr -= rcnt) {
		if ((fp->fptr % SS(fp->fs)) == 0) {		/* On the sector boundary? */
  80284c:	81400217 	ldw	r5,8(r16)
  802850:	28807fcc 	andi	r2,r5,511
  802854:	1000331e 	bne	r2,zero,802924 <f_read+0x1a0>
			csect = (BYTE)(fp->fptr / SS(fp->fs) & (fp->fs->csize - 1));	/* Sector offset in the cluster */
  802858:	81000017 	ldw	r4,0(r16)
  80285c:	2804d27a 	srli	r2,r5,9
  802860:	20c00083 	ldbu	r3,2(r4)
  802864:	18ffffc4 	addi	r3,r3,-1
  802868:	10e6703a 	and	r19,r2,r3
			if (!csect) {						/* On the cluster boundary? */
  80286c:	98803fcc 	andi	r2,r19,255
  802870:	10000b1e 	bne	r2,zero,8028a0 <f_read+0x11c>
				if (fp->fptr == 0) {			/* On the top of the file? */
  802874:	2800021e 	bne	r5,zero,802880 <f_read+0xfc>
					clst = fp->sclust;			/* Follow from the origin */
  802878:	80c00417 	ldw	r3,16(r16)
  80287c:	00000306 	br	80288c <f_read+0x108>
#if _USE_FASTSEEK
					if (fp->cltbl)
						clst = clmt_clust(fp, fp->fptr);	/* Get cluster# from the CLMT */
					else
#endif
						clst = get_fat(fp->fs, fp->clust);	/* Follow cluster chain on the FAT */
  802880:	81400517 	ldw	r5,20(r16)
  802884:	08024240 	call	802424 <get_fat>
  802888:	1007883a 	mov	r3,r2
				}
				if (clst < 2) ABORT(fp->fs, FR_INT_ERR);
  80288c:	01000044 	movi	r4,1
  802890:	20ffe12e 	bgeu	r4,r3,802818 <f_read+0x94>
				if (clst == 0xFFFFFFFF) ABORT(fp->fs, FR_DISK_ERR);
  802894:	00bfffc4 	movi	r2,-1
  802898:	18bfd926 	beq	r3,r2,802800 <f_read+0x7c>
				fp->clust = clst;				/* Update current cluster */
  80289c:	80c00515 	stw	r3,20(r16)
			}
			sect = clust2sect(fp->fs, fp->clust);	/* Get current sector */
  8028a0:	84800017 	ldw	r18,0(r16)
  8028a4:	81400517 	ldw	r5,20(r16)
  8028a8:	9009883a 	mov	r4,r18
  8028ac:	08017d80 	call	8017d8 <clust2sect>
			if (!sect) ABORT(fp->fs, FR_INT_ERR);
  8028b0:	103fd926 	beq	r2,zero,802818 <f_read+0x94>
			sect += csect;
			cc = btr / SS(fp->fs);				/* When remaining bytes >= sector size, */
  8028b4:	a022d27a 	srli	r17,r20,9
				if (clst == 0xFFFFFFFF) ABORT(fp->fs, FR_DISK_ERR);
				fp->clust = clst;				/* Update current cluster */
			}
			sect = clust2sect(fp->fs, fp->clust);	/* Get current sector */
			if (!sect) ABORT(fp->fs, FR_INT_ERR);
			sect += csect;
  8028b8:	98c03fcc 	andi	r3,r19,255
  8028bc:	10e7883a 	add	r19,r2,r3
			cc = btr / SS(fp->fs);				/* When remaining bytes >= sector size, */
			if (cc) {							/* Read maximum contiguous sectors directly */
  8028c0:	88001726 	beq	r17,zero,802920 <f_read+0x19c>
				if (csect + cc > fp->fs->csize)	/* Clip at cluster boundary */
  8028c4:	91000083 	ldbu	r4,2(r18)
  8028c8:	1c45883a 	add	r2,r3,r17
  8028cc:	2080012e 	bgeu	r4,r2,8028d4 <f_read+0x150>
					cc = fp->fs->csize - csect;
  8028d0:	20e3c83a 	sub	r17,r4,r3
				if (disk_read(fp->fs->drv, rbuff, sect, (BYTE)cc) != RES_OK)
  8028d4:	91000043 	ldbu	r4,1(r18)
  8028d8:	b00b883a 	mov	r5,r22
  8028dc:	980d883a 	mov	r6,r19
  8028e0:	89c03fcc 	andi	r7,r17,255
  8028e4:	08016b00 	call	8016b0 <disk_read>
  8028e8:	103fce1e 	bne	r2,zero,802824 <f_read+0xa0>
					ABORT(fp->fs, FR_DISK_ERR);
#if !_FS_READONLY && _FS_MINIMIZE <= 2			/* Replace one of the read sectors with cached data if it contains a dirty sector */
#if _FS_TINY
				if (fp->fs->wflag && fp->fs->winsect - sect < cc)
  8028ec:	81400017 	ldw	r5,0(r16)
  8028f0:	28800103 	ldbu	r2,4(r5)
  8028f4:	10000826 	beq	r2,zero,802918 <f_read+0x194>
  8028f8:	28800c17 	ldw	r2,48(r5)
  8028fc:	14c5c83a 	sub	r2,r2,r19
  802900:	1440052e 	bgeu	r2,r17,802918 <f_read+0x194>
					mem_cpy(rbuff + ((fp->fs->winsect - sect) * SS(fp->fs)), fp->fs->win, SS(fp->fs));
  802904:	1008927a 	slli	r4,r2,9
  802908:	29400d04 	addi	r5,r5,52
  80290c:	01808004 	movi	r6,512
  802910:	b109883a 	add	r4,r22,r4
  802914:	08017980 	call	801798 <mem_cpy>
#else
				if ((fp->flag & FA__DIRTY) && fp->dsect - sect < cc)
					mem_cpy(rbuff + ((fp->dsect - sect) * SS(fp->fs)), fp->buf, SS(fp->fs));
#endif
#endif
				rcnt = SS(fp->fs) * cc;			/* Number of bytes transferred */
  802918:	8822927a 	slli	r17,r17,9
  80291c:	00001406 	br	802970 <f_read+0x1ec>
#endif
				if (disk_read(fp->fs->drv, fp->buf, sect, 1) != RES_OK)	/* Fill sector cache */
					ABORT(fp->fs, FR_DISK_ERR);
			}
#endif
			fp->dsect = sect;
  802920:	84c00615 	stw	r19,24(r16)
		}
		rcnt = SS(fp->fs) - (fp->fptr % SS(fp->fs));	/* Get partial sector data from sector buffer */
		if (rcnt > btr) rcnt = btr;
#if _FS_TINY
		if (move_window(fp->fs, fp->dsect))		/* Move sector window */
  802924:	81000017 	ldw	r4,0(r16)
  802928:	81400617 	ldw	r5,24(r16)
					ABORT(fp->fs, FR_DISK_ERR);
			}
#endif
			fp->dsect = sect;
		}
		rcnt = SS(fp->fs) - (fp->fptr % SS(fp->fs));	/* Get partial sector data from sector buffer */
  80292c:	84400217 	ldw	r17,8(r16)
		if (rcnt > btr) rcnt = btr;
#if _FS_TINY
		if (move_window(fp->fs, fp->dsect))		/* Move sector window */
  802930:	08021640 	call	802164 <move_window>
  802934:	103fbb1e 	bne	r2,zero,802824 <f_read+0xa0>
					ABORT(fp->fs, FR_DISK_ERR);
			}
#endif
			fp->dsect = sect;
		}
		rcnt = SS(fp->fs) - (fp->fptr % SS(fp->fs));	/* Get partial sector data from sector buffer */
  802938:	88c07fcc 	andi	r3,r17,511
  80293c:	00808004 	movi	r2,512
  802940:	10c5c83a 	sub	r2,r2,r3
  802944:	a023883a 	mov	r17,r20
  802948:	1500012e 	bgeu	r2,r20,802950 <f_read+0x1cc>
  80294c:	1023883a 	mov	r17,r2
		if (rcnt > btr) rcnt = btr;
#if _FS_TINY
		if (move_window(fp->fs, fp->dsect))		/* Move sector window */
			ABORT(fp->fs, FR_DISK_ERR);
		mem_cpy(rbuff, &fp->fs->win[fp->fptr % SS(fp->fs)], rcnt);	/* Pick partial sector */
  802950:	80800017 	ldw	r2,0(r16)
  802954:	81400217 	ldw	r5,8(r16)
  802958:	b009883a 	mov	r4,r22
  80295c:	10800d04 	addi	r2,r2,52
  802960:	29407fcc 	andi	r5,r5,511
  802964:	114b883a 	add	r5,r2,r5
  802968:	880d883a 	mov	r6,r17
  80296c:	08017980 	call	801798 <mem_cpy>
		LEAVE_FF(fp->fs, FR_DENIED);
	remain = fp->fsize - fp->fptr;
	if (btr > remain) btr = (UINT)remain;		/* Truncate btr by remaining bytes */

	for ( ;  btr;								/* Repeat until all data read */
		rbuff += rcnt, fp->fptr += rcnt, *br += rcnt, btr -= rcnt) {
  802970:	80800217 	ldw	r2,8(r16)
  802974:	b8c00017 	ldw	r3,0(r23)
  802978:	a469c83a 	sub	r20,r20,r17
  80297c:	1445883a 	add	r2,r2,r17
  802980:	1c47883a 	add	r3,r3,r17
  802984:	80800215 	stw	r2,8(r16)
  802988:	b8c00015 	stw	r3,0(r23)
  80298c:	b46d883a 	add	r22,r22,r17
	if (!(fp->flag & FA_READ)) 					/* Check access mode */
		LEAVE_FF(fp->fs, FR_DENIED);
	remain = fp->fsize - fp->fptr;
	if (btr > remain) btr = (UINT)remain;		/* Truncate btr by remaining bytes */

	for ( ;  btr;								/* Repeat until all data read */
  802990:	a03fae1e 	bne	r20,zero,80284c <f_read+0xc8>
		mem_cpy(rbuff, &fp->buf[fp->fptr % SS(fp->fs)], rcnt);	/* Pick partial sector */
#endif
	}

	LEAVE_FF(fp->fs, FR_OK);
}
  802994:	a805883a 	mov	r2,r21
  802998:	dfc00817 	ldw	ra,32(sp)
  80299c:	ddc00717 	ldw	r23,28(sp)
  8029a0:	dd800617 	ldw	r22,24(sp)
  8029a4:	dd400517 	ldw	r21,20(sp)
  8029a8:	dd000417 	ldw	r20,16(sp)
  8029ac:	dcc00317 	ldw	r19,12(sp)
  8029b0:	dc800217 	ldw	r18,8(sp)
  8029b4:	dc400117 	ldw	r17,4(sp)
  8029b8:	dc000017 	ldw	r16,0(sp)
  8029bc:	dec00904 	addi	sp,sp,36
  8029c0:	f800283a 	ret

008029c4 <dir_sdi>:
	DWORD clst;
	WORD ic;


	dj->index = idx;
	clst = dj->sclust;
  8029c4:	20c00217 	ldw	r3,8(r4)
static
FRESULT dir_sdi (
	DIR *dj,		/* Pointer to directory object */
	WORD idx		/* Directory index number */
)
{
  8029c8:	defffb04 	addi	sp,sp,-20
	WORD ic;


	dj->index = idx;
	clst = dj->sclust;
	if (clst == 1 || clst >= dj->fs->n_fatent)	/* Check start cluster range */
  8029cc:	00800044 	movi	r2,1
static
FRESULT dir_sdi (
	DIR *dj,		/* Pointer to directory object */
	WORD idx		/* Directory index number */
)
{
  8029d0:	dc800215 	stw	r18,8(sp)
  8029d4:	dc000015 	stw	r16,0(sp)
  8029d8:	dfc00415 	stw	ra,16(sp)
  8029dc:	dcc00315 	stw	r19,12(sp)
  8029e0:	dc400115 	stw	r17,4(sp)
  8029e4:	2021883a 	mov	r16,r4
	DWORD clst;
	WORD ic;


	dj->index = idx;
  8029e8:	2140018d 	sth	r5,6(r4)
static
FRESULT dir_sdi (
	DIR *dj,		/* Pointer to directory object */
	WORD idx		/* Directory index number */
)
{
  8029ec:	2825883a 	mov	r18,r5
	WORD ic;


	dj->index = idx;
	clst = dj->sclust;
	if (clst == 1 || clst >= dj->fs->n_fatent)	/* Check start cluster range */
  8029f0:	18803226 	beq	r3,r2,802abc <dir_sdi+0xf8>
  8029f4:	21000017 	ldw	r4,0(r4)
  8029f8:	20800717 	ldw	r2,28(r4)
  8029fc:	18802f2e 	bgeu	r3,r2,802abc <dir_sdi+0xf8>
		return FR_INT_ERR;
	if (!clst && dj->fs->fs_type == FS_FAT32)	/* Replace cluster# 0 with root cluster# if in FAT32 */
  802a00:	18000c1e 	bne	r3,zero,802a34 <dir_sdi+0x70>
  802a04:	20c00003 	ldbu	r3,0(r4)
  802a08:	008000c4 	movi	r2,3
  802a0c:	1880021e 	bne	r3,r2,802a18 <dir_sdi+0x54>
		clst = dj->fs->dirbase;
  802a10:	20c00a17 	ldw	r3,40(r4)

	if (clst == 0) {	/* Static table (root-dir in FAT12/16) */
  802a14:	1800071e 	bne	r3,zero,802a34 <dir_sdi+0x70>
		dj->clust = clst;
		if (idx >= dj->fs->n_rootdir)		/* Index is out of range */
  802a18:	2080020b 	ldhu	r2,8(r4)
  802a1c:	90ffffcc 	andi	r3,r18,65535
		return FR_INT_ERR;
	if (!clst && dj->fs->fs_type == FS_FAT32)	/* Replace cluster# 0 with root cluster# if in FAT32 */
		clst = dj->fs->dirbase;

	if (clst == 0) {	/* Static table (root-dir in FAT12/16) */
		dj->clust = clst;
  802a20:	80000315 	stw	zero,12(r16)
		if (idx >= dj->fs->n_rootdir)		/* Index is out of range */
  802a24:	1880252e 	bgeu	r3,r2,802abc <dir_sdi+0xf8>
			return FR_INT_ERR;
		dj->sect = dj->fs->dirbase + idx / (SS(dj->fs) / SZ_DIR);	/* Sector# */
  802a28:	20800a17 	ldw	r2,40(r4)
  802a2c:	1806d13a 	srli	r3,r3,4
  802a30:	00001606 	br	802a8c <dir_sdi+0xc8>
	}
	else {				/* Dynamic table (sub-dirs or root-dir in FAT32) */
		ic = SS(dj->fs) / SZ_DIR * dj->fs->csize;	/* Entries per cluster */
  802a34:	20800083 	ldbu	r2,2(r4)
  802a38:	1026913a 	slli	r19,r2,4
  802a3c:	00000b06 	br	802a6c <dir_sdi+0xa8>
		while (idx >= ic) {	/* Follow cluster chain */
			clst = get_fat(dj->fs, clst);				/* Get next cluster */
  802a40:	81000017 	ldw	r4,0(r16)
			if (clst == 0xFFFFFFFF) return FR_DISK_ERR;	/* Disk error */
			if (clst < 2 || clst >= dj->fs->n_fatent)	/* Reached to end of table or int error */
				return FR_INT_ERR;
			idx -= ic;
  802a44:	94e5c83a 	sub	r18,r18,r19
		dj->sect = dj->fs->dirbase + idx / (SS(dj->fs) / SZ_DIR);	/* Sector# */
	}
	else {				/* Dynamic table (sub-dirs or root-dir in FAT32) */
		ic = SS(dj->fs) / SZ_DIR * dj->fs->csize;	/* Entries per cluster */
		while (idx >= ic) {	/* Follow cluster chain */
			clst = get_fat(dj->fs, clst);				/* Get next cluster */
  802a48:	08024240 	call	802424 <get_fat>
  802a4c:	1007883a 	mov	r3,r2
			if (clst == 0xFFFFFFFF) return FR_DISK_ERR;	/* Disk error */
  802a50:	00bfffc4 	movi	r2,-1
  802a54:	18801726 	beq	r3,r2,802ab4 <dir_sdi+0xf0>
			if (clst < 2 || clst >= dj->fs->n_fatent)	/* Reached to end of table or int error */
  802a58:	00800044 	movi	r2,1
  802a5c:	10c0172e 	bgeu	r2,r3,802abc <dir_sdi+0xf8>
  802a60:	80800017 	ldw	r2,0(r16)
  802a64:	10800717 	ldw	r2,28(r2)
  802a68:	1880142e 	bgeu	r3,r2,802abc <dir_sdi+0xf8>
			return FR_INT_ERR;
		dj->sect = dj->fs->dirbase + idx / (SS(dj->fs) / SZ_DIR);	/* Sector# */
	}
	else {				/* Dynamic table (sub-dirs or root-dir in FAT32) */
		ic = SS(dj->fs) / SZ_DIR * dj->fs->csize;	/* Entries per cluster */
		while (idx >= ic) {	/* Follow cluster chain */
  802a6c:	947fffcc 	andi	r17,r18,65535
  802a70:	98bfffcc 	andi	r2,r19,65535
			clst = get_fat(dj->fs, clst);				/* Get next cluster */
  802a74:	180b883a 	mov	r5,r3
			return FR_INT_ERR;
		dj->sect = dj->fs->dirbase + idx / (SS(dj->fs) / SZ_DIR);	/* Sector# */
	}
	else {				/* Dynamic table (sub-dirs or root-dir in FAT32) */
		ic = SS(dj->fs) / SZ_DIR * dj->fs->csize;	/* Entries per cluster */
		while (idx >= ic) {	/* Follow cluster chain */
  802a78:	88bff12e 	bgeu	r17,r2,802a40 <dir_sdi+0x7c>
			if (clst < 2 || clst >= dj->fs->n_fatent)	/* Reached to end of table or int error */
				return FR_INT_ERR;
			idx -= ic;
		}
		dj->clust = clst;
		dj->sect = clust2sect(dj->fs, clst) + idx / (SS(dj->fs) / SZ_DIR);	/* Sector# */
  802a7c:	81000017 	ldw	r4,0(r16)
			if (clst == 0xFFFFFFFF) return FR_DISK_ERR;	/* Disk error */
			if (clst < 2 || clst >= dj->fs->n_fatent)	/* Reached to end of table or int error */
				return FR_INT_ERR;
			idx -= ic;
		}
		dj->clust = clst;
  802a80:	80c00315 	stw	r3,12(r16)
		dj->sect = clust2sect(dj->fs, clst) + idx / (SS(dj->fs) / SZ_DIR);	/* Sector# */
  802a84:	08017d80 	call	8017d8 <clust2sect>
  802a88:	8806d13a 	srli	r3,r17,4
  802a8c:	10c5883a 	add	r2,r2,r3
  802a90:	80800415 	stw	r2,16(r16)
	}

	dj->dir = dj->fs->win + (idx % (SS(dj->fs) / SZ_DIR)) * SZ_DIR;	/* Ptr to the entry in the sector */
  802a94:	90c003cc 	andi	r3,r18,15
  802a98:	80800017 	ldw	r2,0(r16)
  802a9c:	1806917a 	slli	r3,r3,5
  802aa0:	0009883a 	mov	r4,zero
  802aa4:	10800d04 	addi	r2,r2,52
  802aa8:	10c5883a 	add	r2,r2,r3
  802aac:	80800515 	stw	r2,20(r16)
  802ab0:	00000306 	br	802ac0 <dir_sdi+0xfc>
	}
	else {				/* Dynamic table (sub-dirs or root-dir in FAT32) */
		ic = SS(dj->fs) / SZ_DIR * dj->fs->csize;	/* Entries per cluster */
		while (idx >= ic) {	/* Follow cluster chain */
			clst = get_fat(dj->fs, clst);				/* Get next cluster */
			if (clst == 0xFFFFFFFF) return FR_DISK_ERR;	/* Disk error */
  802ab4:	01000044 	movi	r4,1
  802ab8:	00000106 	br	802ac0 <dir_sdi+0xfc>
		dj->sect = clust2sect(dj->fs, clst) + idx / (SS(dj->fs) / SZ_DIR);	/* Sector# */
	}

	dj->dir = dj->fs->win + (idx % (SS(dj->fs) / SZ_DIR)) * SZ_DIR;	/* Ptr to the entry in the sector */

	return FR_OK;	/* Seek succeeded */
  802abc:	01000084 	movi	r4,2
}
  802ac0:	2005883a 	mov	r2,r4
  802ac4:	dfc00417 	ldw	ra,16(sp)
  802ac8:	dcc00317 	ldw	r19,12(sp)
  802acc:	dc800217 	ldw	r18,8(sp)
  802ad0:	dc400117 	ldw	r17,4(sp)
  802ad4:	dc000017 	ldw	r16,0(sp)
  802ad8:	dec00504 	addi	sp,sp,20
  802adc:	f800283a 	ret

00802ae0 <dir_remove>:
		} while (res == FR_OK);
		if (res == FR_NO_FILE) res = FR_INT_ERR;
	}

#else			/* Non LFN configuration */
	res = dir_sdi(dj, dj->index);
  802ae0:	2140018b 	ldhu	r5,6(r4)
#if !_FS_READONLY && !_FS_MINIMIZE
static
FRESULT dir_remove (	/* FR_OK: Successful, FR_DISK_ERR: A disk error */
	DIR *dj				/* Directory object pointing the entry to be removed */
)
{
  802ae4:	defffe04 	addi	sp,sp,-8
  802ae8:	dc000015 	stw	r16,0(sp)
  802aec:	dfc00115 	stw	ra,4(sp)
  802af0:	2021883a 	mov	r16,r4
		} while (res == FR_OK);
		if (res == FR_NO_FILE) res = FR_INT_ERR;
	}

#else			/* Non LFN configuration */
	res = dir_sdi(dj, dj->index);
  802af4:	08029c40 	call	8029c4 <dir_sdi>
  802af8:	1009883a 	mov	r4,r2
	if (res == FR_OK) {
  802afc:	10000b1e 	bne	r2,zero,802b2c <dir_remove+0x4c>
		res = move_window(dj->fs, dj->sect);
  802b00:	81000017 	ldw	r4,0(r16)
  802b04:	81400417 	ldw	r5,16(r16)
  802b08:	08021640 	call	802164 <move_window>
  802b0c:	1009883a 	mov	r4,r2
		if (res == FR_OK) {
  802b10:	1000061e 	bne	r2,zero,802b2c <dir_remove+0x4c>
			*dj->dir = DDE;			/* Mark the entry "deleted" */
  802b14:	80c00517 	ldw	r3,20(r16)
  802b18:	00bff944 	movi	r2,-27
  802b1c:	18800005 	stb	r2,0(r3)
			dj->fs->wflag = 1;
  802b20:	80c00017 	ldw	r3,0(r16)
  802b24:	00800044 	movi	r2,1
  802b28:	18800105 	stb	r2,4(r3)
		}
	}
#endif

	return res;
}
  802b2c:	2005883a 	mov	r2,r4
  802b30:	dfc00117 	ldw	ra,4(sp)
  802b34:	dc000017 	ldw	r16,0(sp)
  802b38:	dec00204 	addi	sp,sp,8
  802b3c:	f800283a 	ret

00802b40 <create_chain>:
static
DWORD create_chain (	/* 0:No free cluster, 1:Internal error, 0xFFFFFFFF:Disk error, >=2:New cluster# */
	FATFS *fs,			/* File system object */
	DWORD clst			/* Cluster# to stretch. 0 means create a new chain. */
)
{
  802b40:	defffa04 	addi	sp,sp,-24
  802b44:	dcc00315 	stw	r19,12(sp)
  802b48:	dc800215 	stw	r18,8(sp)
  802b4c:	dfc00515 	stw	ra,20(sp)
  802b50:	dd000415 	stw	r20,16(sp)
  802b54:	dc400115 	stw	r17,4(sp)
  802b58:	dc000015 	stw	r16,0(sp)
  802b5c:	2827883a 	mov	r19,r5
  802b60:	2025883a 	mov	r18,r4
	DWORD cs, ncl, scl;
	FRESULT res;


	if (clst == 0) {		/* Create a new chain */
  802b64:	2800051e 	bne	r5,zero,802b7c <create_chain+0x3c>
		scl = fs->last_clust;			/* Get suggested start point */
  802b68:	24400317 	ldw	r17,12(r4)
		if (!scl || scl >= fs->n_fatent) scl = 1;
  802b6c:	88000b26 	beq	r17,zero,802b9c <create_chain+0x5c>
  802b70:	20800717 	ldw	r2,28(r4)
  802b74:	8880092e 	bgeu	r17,r2,802b9c <create_chain+0x5c>
  802b78:	00000906 	br	802ba0 <create_chain+0x60>
	}
	else {					/* Stretch the current chain */
		cs = get_fat(fs, clst);			/* Check the cluster status */
  802b7c:	08024240 	call	802424 <get_fat>
  802b80:	1007883a 	mov	r3,r2
		if (cs < 2) return 1;			/* It is an invalid cluster */
  802b84:	00800044 	movi	r2,1
  802b88:	10c0332e 	bgeu	r2,r3,802c58 <create_chain+0x118>
		if (cs < fs->n_fatent) return cs;	/* It is already followed by next cluster */
  802b8c:	90800717 	ldw	r2,28(r18)
  802b90:	18803436 	bltu	r3,r2,802c64 <create_chain+0x124>
  802b94:	9823883a 	mov	r17,r19
  802b98:	00000106 	br	802ba0 <create_chain+0x60>
  802b9c:	04400044 	movi	r17,1
  802ba0:	8821883a 	mov	r16,r17
	}

	ncl = scl;				/* Start cluster */
	for (;;) {
		ncl++;							/* Next cluster */
		if (ncl >= fs->n_fatent) {		/* Wrap around */
  802ba4:	90800717 	ldw	r2,28(r18)
		scl = clst;
	}

	ncl = scl;				/* Start cluster */
	for (;;) {
		ncl++;							/* Next cluster */
  802ba8:	84000044 	addi	r16,r16,1
		if (ncl >= fs->n_fatent) {		/* Wrap around */
			ncl = 2;
			if (ncl > scl) return 0;	/* No free cluster */
		}
		cs = get_fat(fs, ncl);			/* Get the cluster status */
  802bac:	9009883a 	mov	r4,r18
		scl = clst;
	}

	ncl = scl;				/* Start cluster */
	for (;;) {
		ncl++;							/* Next cluster */
  802bb0:	05000044 	movi	r20,1
		if (ncl >= fs->n_fatent) {		/* Wrap around */
  802bb4:	80800236 	bltu	r16,r2,802bc0 <create_chain+0x80>
			ncl = 2;
			if (ncl > scl) return 0;	/* No free cluster */
  802bb8:	a440292e 	bgeu	r20,r17,802c60 <create_chain+0x120>
  802bbc:	04000084 	movi	r16,2
		}
		cs = get_fat(fs, ncl);			/* Get the cluster status */
  802bc0:	800b883a 	mov	r5,r16
  802bc4:	08024240 	call	802424 <get_fat>
  802bc8:	1007883a 	mov	r3,r2
		if (cs == 0) break;				/* Found a free cluster */
  802bcc:	10000526 	beq	r2,zero,802be4 <create_chain+0xa4>
		if (cs == 0xFFFFFFFF || cs == 1)/* An error occurred */
  802bd0:	00bfffc4 	movi	r2,-1
  802bd4:	18802326 	beq	r3,r2,802c64 <create_chain+0x124>
  802bd8:	1d002226 	beq	r3,r20,802c64 <create_chain+0x124>
			return cs;
		if (ncl == scl) return 0;		/* No free cluster */
  802bdc:	84402026 	beq	r16,r17,802c60 <create_chain+0x120>
  802be0:	003ff006 	br	802ba4 <create_chain+0x64>
	}

	res = put_fat(fs, ncl, 0x0FFFFFFF);	/* Mark the new cluster "last link" */
  802be4:	9009883a 	mov	r4,r18
  802be8:	800b883a 	mov	r5,r16
  802bec:	01840034 	movhi	r6,4096
  802bf0:	31bfffc4 	addi	r6,r6,-1
  802bf4:	080224c0 	call	80224c <put_fat>
  802bf8:	1007883a 	mov	r3,r2
	if (res == FR_OK && clst != 0) {
  802bfc:	1000121e 	bne	r2,zero,802c48 <create_chain+0x108>
  802c00:	98000626 	beq	r19,zero,802c1c <create_chain+0xdc>
		res = put_fat(fs, clst, ncl);	/* Link it to the previous one if needed */
  802c04:	980b883a 	mov	r5,r19
  802c08:	9009883a 	mov	r4,r18
  802c0c:	800d883a 	mov	r6,r16
  802c10:	080224c0 	call	80224c <put_fat>
  802c14:	1007883a 	mov	r3,r2
	}
	if (res == FR_OK) {
  802c18:	10000b1e 	bne	r2,zero,802c48 <create_chain+0x108>
		fs->last_clust = ncl;			/* Update FSINFO */
		if (fs->free_clust != 0xFFFFFFFF) {
  802c1c:	90c00417 	ldw	r3,16(r18)
  802c20:	00bfffc4 	movi	r2,-1
	res = put_fat(fs, ncl, 0x0FFFFFFF);	/* Mark the new cluster "last link" */
	if (res == FR_OK && clst != 0) {
		res = put_fat(fs, clst, ncl);	/* Link it to the previous one if needed */
	}
	if (res == FR_OK) {
		fs->last_clust = ncl;			/* Update FSINFO */
  802c24:	94000315 	stw	r16,12(r18)
		if (fs->free_clust != 0xFFFFFFFF) {
  802c28:	1880021e 	bne	r3,r2,802c34 <create_chain+0xf4>
  802c2c:	8007883a 	mov	r3,r16
  802c30:	00000c06 	br	802c64 <create_chain+0x124>
			fs->free_clust--;
  802c34:	18bfffc4 	addi	r2,r3,-1
			fs->fsi_flag = 1;
  802c38:	8007883a 	mov	r3,r16
  802c3c:	95000145 	stb	r20,5(r18)
		res = put_fat(fs, clst, ncl);	/* Link it to the previous one if needed */
	}
	if (res == FR_OK) {
		fs->last_clust = ncl;			/* Update FSINFO */
		if (fs->free_clust != 0xFFFFFFFF) {
			fs->free_clust--;
  802c40:	90800415 	stw	r2,16(r18)
  802c44:	00000706 	br	802c64 <create_chain+0x124>
			fs->fsi_flag = 1;
		}
	} else {
		ncl = (res == FR_DISK_ERR) ? 0xFFFFFFFF : 1;
  802c48:	00800044 	movi	r2,1
  802c4c:	1880021e 	bne	r3,r2,802c58 <create_chain+0x118>
  802c50:	00ffffc4 	movi	r3,-1
  802c54:	00000306 	br	802c64 <create_chain+0x124>
  802c58:	00c00044 	movi	r3,1
  802c5c:	00000106 	br	802c64 <create_chain+0x124>
  802c60:	0007883a 	mov	r3,zero
	}

	return ncl;		/* Return new cluster number or error code */
}
  802c64:	1805883a 	mov	r2,r3
  802c68:	dfc00517 	ldw	ra,20(sp)
  802c6c:	dd000417 	ldw	r20,16(sp)
  802c70:	dcc00317 	ldw	r19,12(sp)
  802c74:	dc800217 	ldw	r18,8(sp)
  802c78:	dc400117 	ldw	r17,4(sp)
  802c7c:	dc000017 	ldw	r16,0(sp)
  802c80:	dec00604 	addi	sp,sp,24
  802c84:	f800283a 	ret

00802c88 <f_lseek>:

FRESULT f_lseek (
	FIL *fp,		/* Pointer to the file object */
	DWORD ofs		/* File pointer from top of file */
)
{
  802c88:	defff804 	addi	sp,sp,-32
  802c8c:	dc400115 	stw	r17,4(sp)
  802c90:	2023883a 	mov	r17,r4
  802c94:	dc800215 	stw	r18,8(sp)
	FRESULT res;


	res = validate(fp->fs, fp->id);		/* Check validity of the object */
  802c98:	21000017 	ldw	r4,0(r4)

FRESULT f_lseek (
	FIL *fp,		/* Pointer to the file object */
	DWORD ofs		/* File pointer from top of file */
)
{
  802c9c:	2825883a 	mov	r18,r5
	FRESULT res;


	res = validate(fp->fs, fp->id);		/* Check validity of the object */
  802ca0:	8940010b 	ldhu	r5,4(r17)

FRESULT f_lseek (
	FIL *fp,		/* Pointer to the file object */
	DWORD ofs		/* File pointer from top of file */
)
{
  802ca4:	dd400515 	stw	r21,20(sp)
  802ca8:	dfc00715 	stw	ra,28(sp)
  802cac:	dd800615 	stw	r22,24(sp)
  802cb0:	dd000415 	stw	r20,16(sp)
  802cb4:	dcc00315 	stw	r19,12(sp)
  802cb8:	dc000015 	stw	r16,0(sp)
	FRESULT res;


	res = validate(fp->fs, fp->id);		/* Check validity of the object */
  802cbc:	0801ad80 	call	801ad8 <validate>
  802cc0:	102b883a 	mov	r21,r2
	if (res != FR_OK) LEAVE_FF(fp->fs, res);
  802cc4:	1000711e 	bne	r2,zero,802e8c <f_lseek+0x204>
	if (fp->flag & FA__ERROR)			/* Check abort flag */
  802cc8:	88c00183 	ldbu	r3,6(r17)
  802ccc:	18803fcc 	andi	r2,r3,255
  802cd0:	1080201c 	xori	r2,r2,128
  802cd4:	10bfe004 	addi	r2,r2,-128
  802cd8:	1000020e 	bge	r2,zero,802ce4 <f_lseek+0x5c>
  802cdc:	05400084 	movi	r21,2
  802ce0:	00006a06 	br	802e8c <f_lseek+0x204>

	/* Normal Seek */
	{
		DWORD clst, bcs, nsect, ifptr;

		if (ofs > fp->fsize					/* In read-only mode, clip offset with the file size */
  802ce4:	89400317 	ldw	r5,12(r17)
  802ce8:	2c80032e 	bgeu	r5,r18,802cf8 <f_lseek+0x70>
  802cec:	1880008c 	andi	r2,r3,2
  802cf0:	1000011e 	bne	r2,zero,802cf8 <f_lseek+0x70>
  802cf4:	2825883a 	mov	r18,r5
#if !_FS_READONLY
			 && !(fp->flag & FA_WRITE)
#endif
			) ofs = fp->fsize;

		ifptr = fp->fptr;
  802cf8:	89000217 	ldw	r4,8(r17)
		fp->fptr = nsect = 0;
  802cfc:	88000215 	stw	zero,8(r17)
		if (ofs) {
  802d00:	90006226 	beq	r18,zero,802e8c <f_lseek+0x204>
			bcs = (DWORD)fp->fs->csize * SS(fp->fs);	/* Cluster size (byte) */
  802d04:	8d800017 	ldw	r22,0(r17)
  802d08:	b0800083 	ldbu	r2,2(r22)
  802d0c:	1026927a 	slli	r19,r2,9
			if (ifptr > 0 &&
  802d10:	20000f26 	beq	r4,zero,802d50 <f_lseek+0xc8>
  802d14:	253fffc4 	addi	r20,r4,-1
  802d18:	980b883a 	mov	r5,r19
  802d1c:	913fffc4 	addi	r4,r18,-1
  802d20:	08064740 	call	806474 <__udivsi3>
  802d24:	a009883a 	mov	r4,r20
  802d28:	980b883a 	mov	r5,r19
  802d2c:	1021883a 	mov	r16,r2
  802d30:	08064740 	call	806474 <__udivsi3>
  802d34:	80800636 	bltu	r16,r2,802d50 <f_lseek+0xc8>
				(ofs - 1) / bcs >= (ifptr - 1) / bcs) {	/* When seek to same or following cluster, */
				fp->fptr = (ifptr - 1) & ~(bcs - 1);	/* start from the current cluster */
  802d38:	04c5c83a 	sub	r2,zero,r19
				ofs -= fp->fptr;
				clst = fp->clust;
  802d3c:	89800517 	ldw	r6,20(r17)
		fp->fptr = nsect = 0;
		if (ofs) {
			bcs = (DWORD)fp->fs->csize * SS(fp->fs);	/* Cluster size (byte) */
			if (ifptr > 0 &&
				(ofs - 1) / bcs >= (ifptr - 1) / bcs) {	/* When seek to same or following cluster, */
